   1              		.syntax unified
   2              		.cpu cortex-m3
   3              		.fpu softvfp
   4              		.eabi_attribute 20, 1
   5              		.eabi_attribute 21, 1
   6              		.eabi_attribute 23, 3
   7              		.eabi_attribute 24, 1
   8              		.eabi_attribute 25, 1
   9              		.eabi_attribute 26, 1
  10              		.eabi_attribute 30, 4
  11              		.eabi_attribute 34, 1
  12              		.eabi_attribute 18, 4
  13              		.thumb
  14              		.file	"main.cpp"
  15              		.text
  16              	.Ltext0:
  17              		.cfi_sections	.debug_frame
  18              		.section	.text._ZN12Arduino_OLED8fillRectEsssst,"ax",%progbits
  19              		.align	1
  20              		.global	_ZN12Arduino_OLED8fillRectEsssst
  21              		.thumb
  22              		.thumb_func
  24              	_ZN12Arduino_OLED8fillRectEsssst:
  25              	.LFB100:
  26              		.file 1 "c:/Dropbox/AV_SmartWatch/toolchain_v3/src/driver_display.cpp"
   1:c:/Dropbox/AV_SmartWatch/toolchain_v3/src\driver_display.cpp **** // Davey Taylor, Arduino Verkstad AB
   2:c:/Dropbox/AV_SmartWatch/toolchain_v3/src\driver_display.cpp **** // OLED & LightSensor Arduino Objects
   3:c:/Dropbox/AV_SmartWatch/toolchain_v3/src\driver_display.cpp **** 
   4:c:/Dropbox/AV_SmartWatch/toolchain_v3/src\driver_display.cpp **** #include "driver_display.hpp"
   5:c:/Dropbox/AV_SmartWatch/toolchain_v3/src\driver_display.cpp **** #include <stdlib.h>
   6:c:/Dropbox/AV_SmartWatch/toolchain_v3/src\driver_display.cpp **** 
   7:c:/Dropbox/AV_SmartWatch/toolchain_v3/src\driver_display.cpp **** uint8_t font[] = {
   8:c:/Dropbox/AV_SmartWatch/toolchain_v3/src\driver_display.cpp ****   0x00, 0x00, 0x00, 0x00, 0x00,   
   9:c:/Dropbox/AV_SmartWatch/toolchain_v3/src\driver_display.cpp **** 	0x3E, 0x5B, 0x4F, 0x5B, 0x3E, 	
  10:c:/Dropbox/AV_SmartWatch/toolchain_v3/src\driver_display.cpp **** 	0x3E, 0x6B, 0x4F, 0x6B, 0x3E, 	
  11:c:/Dropbox/AV_SmartWatch/toolchain_v3/src\driver_display.cpp **** 	0x1C, 0x3E, 0x7C, 0x3E, 0x1C, 
  12:c:/Dropbox/AV_SmartWatch/toolchain_v3/src\driver_display.cpp **** 	0x18, 0x3C, 0x7E, 0x3C, 0x18, 
  13:c:/Dropbox/AV_SmartWatch/toolchain_v3/src\driver_display.cpp **** 	0x1C, 0x57, 0x7D, 0x57, 0x1C, 
  14:c:/Dropbox/AV_SmartWatch/toolchain_v3/src\driver_display.cpp **** 	0x1C, 0x5E, 0x7F, 0x5E, 0x1C, 
  15:c:/Dropbox/AV_SmartWatch/toolchain_v3/src\driver_display.cpp **** 	0x00, 0x18, 0x3C, 0x18, 0x00, 
  16:c:/Dropbox/AV_SmartWatch/toolchain_v3/src\driver_display.cpp **** 	0xFF, 0xE7, 0xC3, 0xE7, 0xFF, 
  17:c:/Dropbox/AV_SmartWatch/toolchain_v3/src\driver_display.cpp **** 	0x00, 0x18, 0x24, 0x18, 0x00, 
  18:c:/Dropbox/AV_SmartWatch/toolchain_v3/src\driver_display.cpp **** 	0xFF, 0xE7, 0xDB, 0xE7, 0xFF, 
  19:c:/Dropbox/AV_SmartWatch/toolchain_v3/src\driver_display.cpp **** 	0x30, 0x48, 0x3A, 0x06, 0x0E, 
  20:c:/Dropbox/AV_SmartWatch/toolchain_v3/src\driver_display.cpp **** 	0x26, 0x29, 0x79, 0x29, 0x26, 
  21:c:/Dropbox/AV_SmartWatch/toolchain_v3/src\driver_display.cpp **** 	0x40, 0x7F, 0x05, 0x05, 0x07, 
  22:c:/Dropbox/AV_SmartWatch/toolchain_v3/src\driver_display.cpp **** 	0x40, 0x7F, 0x05, 0x25, 0x3F, 
  23:c:/Dropbox/AV_SmartWatch/toolchain_v3/src\driver_display.cpp **** 	0x5A, 0x3C, 0xE7, 0x3C, 0x5A, 
  24:c:/Dropbox/AV_SmartWatch/toolchain_v3/src\driver_display.cpp **** 	0x7F, 0x3E, 0x1C, 0x1C, 0x08, 
  25:c:/Dropbox/AV_SmartWatch/toolchain_v3/src\driver_display.cpp **** 	0x08, 0x1C, 0x1C, 0x3E, 0x7F, 
  26:c:/Dropbox/AV_SmartWatch/toolchain_v3/src\driver_display.cpp **** 	0x14, 0x22, 0x7F, 0x22, 0x14, 
  27:c:/Dropbox/AV_SmartWatch/toolchain_v3/src\driver_display.cpp **** 	0x5F, 0x5F, 0x00, 0x5F, 0x5F, 
  28:c:/Dropbox/AV_SmartWatch/toolchain_v3/src\driver_display.cpp **** 	0x06, 0x09, 0x7F, 0x01, 0x7F, 
  29:c:/Dropbox/AV_SmartWatch/toolchain_v3/src\driver_display.cpp **** 	0x00, 0x66, 0x89, 0x95, 0x6A, 
  30:c:/Dropbox/AV_SmartWatch/toolchain_v3/src\driver_display.cpp **** 	0x60, 0x60, 0x60, 0x60, 0x60, 
  31:c:/Dropbox/AV_SmartWatch/toolchain_v3/src\driver_display.cpp **** 	0x94, 0xA2, 0xFF, 0xA2, 0x94, 
  32:c:/Dropbox/AV_SmartWatch/toolchain_v3/src\driver_display.cpp **** 	0x08, 0x04, 0x7E, 0x04, 0x08, 
  33:c:/Dropbox/AV_SmartWatch/toolchain_v3/src\driver_display.cpp **** 	0x10, 0x20, 0x7E, 0x20, 0x10, 
  34:c:/Dropbox/AV_SmartWatch/toolchain_v3/src\driver_display.cpp **** 	0x08, 0x08, 0x2A, 0x1C, 0x08, 
  35:c:/Dropbox/AV_SmartWatch/toolchain_v3/src\driver_display.cpp **** 	0x08, 0x1C, 0x2A, 0x08, 0x08, 
  36:c:/Dropbox/AV_SmartWatch/toolchain_v3/src\driver_display.cpp **** 	0x1E, 0x10, 0x10, 0x10, 0x10, 
  37:c:/Dropbox/AV_SmartWatch/toolchain_v3/src\driver_display.cpp **** 	0x0C, 0x1E, 0x0C, 0x1E, 0x0C, 
  38:c:/Dropbox/AV_SmartWatch/toolchain_v3/src\driver_display.cpp **** 	0x30, 0x38, 0x3E, 0x38, 0x30, 
  39:c:/Dropbox/AV_SmartWatch/toolchain_v3/src\driver_display.cpp **** 	0x06, 0x0E, 0x3E, 0x0E, 0x06, 
  40:c:/Dropbox/AV_SmartWatch/toolchain_v3/src\driver_display.cpp **** 	0x00, 0x00, 0x00, 0x00, 0x00, 
  41:c:/Dropbox/AV_SmartWatch/toolchain_v3/src\driver_display.cpp **** 	0x00, 0x00, 0x5F, 0x00, 0x00, 
  42:c:/Dropbox/AV_SmartWatch/toolchain_v3/src\driver_display.cpp **** 	0x00, 0x07, 0x00, 0x07, 0x00, 
  43:c:/Dropbox/AV_SmartWatch/toolchain_v3/src\driver_display.cpp **** 	0x14, 0x7F, 0x14, 0x7F, 0x14, 
  44:c:/Dropbox/AV_SmartWatch/toolchain_v3/src\driver_display.cpp **** 	0x24, 0x2A, 0x7F, 0x2A, 0x12, 
  45:c:/Dropbox/AV_SmartWatch/toolchain_v3/src\driver_display.cpp **** 	0x23, 0x13, 0x08, 0x64, 0x62, 
  46:c:/Dropbox/AV_SmartWatch/toolchain_v3/src\driver_display.cpp **** 	0x36, 0x49, 0x56, 0x20, 0x50, 
  47:c:/Dropbox/AV_SmartWatch/toolchain_v3/src\driver_display.cpp **** 	0x00, 0x08, 0x07, 0x03, 0x00, 
  48:c:/Dropbox/AV_SmartWatch/toolchain_v3/src\driver_display.cpp **** 	0x00, 0x1C, 0x22, 0x41, 0x00, 
  49:c:/Dropbox/AV_SmartWatch/toolchain_v3/src\driver_display.cpp **** 	0x00, 0x41, 0x22, 0x1C, 0x00, 
  50:c:/Dropbox/AV_SmartWatch/toolchain_v3/src\driver_display.cpp **** 	0x2A, 0x1C, 0x7F, 0x1C, 0x2A, 
  51:c:/Dropbox/AV_SmartWatch/toolchain_v3/src\driver_display.cpp **** 	0x08, 0x08, 0x3E, 0x08, 0x08, 
  52:c:/Dropbox/AV_SmartWatch/toolchain_v3/src\driver_display.cpp **** 	0x00, 0x80, 0x70, 0x30, 0x00, 
  53:c:/Dropbox/AV_SmartWatch/toolchain_v3/src\driver_display.cpp **** 	0x08, 0x08, 0x08, 0x08, 0x08, 
  54:c:/Dropbox/AV_SmartWatch/toolchain_v3/src\driver_display.cpp **** 	0x00, 0x00, 0x60, 0x60, 0x00, 
  55:c:/Dropbox/AV_SmartWatch/toolchain_v3/src\driver_display.cpp **** 	0x20, 0x10, 0x08, 0x04, 0x02, 
  56:c:/Dropbox/AV_SmartWatch/toolchain_v3/src\driver_display.cpp **** 	0x3E, 0x51, 0x49, 0x45, 0x3E, 
  57:c:/Dropbox/AV_SmartWatch/toolchain_v3/src\driver_display.cpp **** 	0x00, 0x42, 0x7F, 0x40, 0x00, 
  58:c:/Dropbox/AV_SmartWatch/toolchain_v3/src\driver_display.cpp **** 	0x72, 0x49, 0x49, 0x49, 0x46, 
  59:c:/Dropbox/AV_SmartWatch/toolchain_v3/src\driver_display.cpp **** 	0x21, 0x41, 0x49, 0x4D, 0x33, 
  60:c:/Dropbox/AV_SmartWatch/toolchain_v3/src\driver_display.cpp **** 	0x18, 0x14, 0x12, 0x7F, 0x10, 
  61:c:/Dropbox/AV_SmartWatch/toolchain_v3/src\driver_display.cpp **** 	0x27, 0x45, 0x45, 0x45, 0x39, 
  62:c:/Dropbox/AV_SmartWatch/toolchain_v3/src\driver_display.cpp **** 	0x3C, 0x4A, 0x49, 0x49, 0x31, 
  63:c:/Dropbox/AV_SmartWatch/toolchain_v3/src\driver_display.cpp **** 	0x41, 0x21, 0x11, 0x09, 0x07, 
  64:c:/Dropbox/AV_SmartWatch/toolchain_v3/src\driver_display.cpp **** 	0x36, 0x49, 0x49, 0x49, 0x36, 
  65:c:/Dropbox/AV_SmartWatch/toolchain_v3/src\driver_display.cpp **** 	0x46, 0x49, 0x49, 0x29, 0x1E, 
  66:c:/Dropbox/AV_SmartWatch/toolchain_v3/src\driver_display.cpp **** 	0x00, 0x00, 0x14, 0x00, 0x00, 
  67:c:/Dropbox/AV_SmartWatch/toolchain_v3/src\driver_display.cpp **** 	0x00, 0x40, 0x34, 0x00, 0x00, 
  68:c:/Dropbox/AV_SmartWatch/toolchain_v3/src\driver_display.cpp **** 	0x00, 0x08, 0x14, 0x22, 0x41, 
  69:c:/Dropbox/AV_SmartWatch/toolchain_v3/src\driver_display.cpp **** 	0x14, 0x14, 0x14, 0x14, 0x14, 
  70:c:/Dropbox/AV_SmartWatch/toolchain_v3/src\driver_display.cpp **** 	0x00, 0x41, 0x22, 0x14, 0x08, 
  71:c:/Dropbox/AV_SmartWatch/toolchain_v3/src\driver_display.cpp **** 	0x02, 0x01, 0x59, 0x09, 0x06, 
  72:c:/Dropbox/AV_SmartWatch/toolchain_v3/src\driver_display.cpp **** 	0x3E, 0x41, 0x5D, 0x59, 0x4E, 
  73:c:/Dropbox/AV_SmartWatch/toolchain_v3/src\driver_display.cpp **** 	0x7C, 0x12, 0x11, 0x12, 0x7C, 
  74:c:/Dropbox/AV_SmartWatch/toolchain_v3/src\driver_display.cpp **** 	0x7F, 0x49, 0x49, 0x49, 0x36, 
  75:c:/Dropbox/AV_SmartWatch/toolchain_v3/src\driver_display.cpp **** 	0x3E, 0x41, 0x41, 0x41, 0x22, 
  76:c:/Dropbox/AV_SmartWatch/toolchain_v3/src\driver_display.cpp **** 	0x7F, 0x41, 0x41, 0x41, 0x3E, 
  77:c:/Dropbox/AV_SmartWatch/toolchain_v3/src\driver_display.cpp **** 	0x7F, 0x49, 0x49, 0x49, 0x41, 
  78:c:/Dropbox/AV_SmartWatch/toolchain_v3/src\driver_display.cpp **** 	0x7F, 0x09, 0x09, 0x09, 0x01, 
  79:c:/Dropbox/AV_SmartWatch/toolchain_v3/src\driver_display.cpp **** 	0x3E, 0x41, 0x41, 0x51, 0x73, 
  80:c:/Dropbox/AV_SmartWatch/toolchain_v3/src\driver_display.cpp **** 	0x7F, 0x08, 0x08, 0x08, 0x7F, 
  81:c:/Dropbox/AV_SmartWatch/toolchain_v3/src\driver_display.cpp **** 	0x00, 0x41, 0x7F, 0x41, 0x00, 
  82:c:/Dropbox/AV_SmartWatch/toolchain_v3/src\driver_display.cpp **** 	0x20, 0x40, 0x41, 0x3F, 0x01, 
  83:c:/Dropbox/AV_SmartWatch/toolchain_v3/src\driver_display.cpp **** 	0x7F, 0x08, 0x14, 0x22, 0x41, 
  84:c:/Dropbox/AV_SmartWatch/toolchain_v3/src\driver_display.cpp **** 	0x7F, 0x40, 0x40, 0x40, 0x40, 
  85:c:/Dropbox/AV_SmartWatch/toolchain_v3/src\driver_display.cpp **** 	0x7F, 0x02, 0x1C, 0x02, 0x7F, 
  86:c:/Dropbox/AV_SmartWatch/toolchain_v3/src\driver_display.cpp **** 	0x7F, 0x04, 0x08, 0x10, 0x7F, 
  87:c:/Dropbox/AV_SmartWatch/toolchain_v3/src\driver_display.cpp **** 	0x3E, 0x41, 0x41, 0x41, 0x3E, 
  88:c:/Dropbox/AV_SmartWatch/toolchain_v3/src\driver_display.cpp **** 	0x7F, 0x09, 0x09, 0x09, 0x06, 
  89:c:/Dropbox/AV_SmartWatch/toolchain_v3/src\driver_display.cpp **** 	0x3E, 0x41, 0x51, 0x21, 0x5E, 
  90:c:/Dropbox/AV_SmartWatch/toolchain_v3/src\driver_display.cpp **** 	0x7F, 0x09, 0x19, 0x29, 0x46, 
  91:c:/Dropbox/AV_SmartWatch/toolchain_v3/src\driver_display.cpp **** 	0x26, 0x49, 0x49, 0x49, 0x32, 
  92:c:/Dropbox/AV_SmartWatch/toolchain_v3/src\driver_display.cpp **** 	0x03, 0x01, 0x7F, 0x01, 0x03, 
  93:c:/Dropbox/AV_SmartWatch/toolchain_v3/src\driver_display.cpp **** 	0x3F, 0x40, 0x40, 0x40, 0x3F, 
  94:c:/Dropbox/AV_SmartWatch/toolchain_v3/src\driver_display.cpp **** 	0x1F, 0x20, 0x40, 0x20, 0x1F, 
  95:c:/Dropbox/AV_SmartWatch/toolchain_v3/src\driver_display.cpp **** 	0x3F, 0x40, 0x38, 0x40, 0x3F, 
  96:c:/Dropbox/AV_SmartWatch/toolchain_v3/src\driver_display.cpp **** 	0x63, 0x14, 0x08, 0x14, 0x63, 
  97:c:/Dropbox/AV_SmartWatch/toolchain_v3/src\driver_display.cpp **** 	0x03, 0x04, 0x78, 0x04, 0x03, 
  98:c:/Dropbox/AV_SmartWatch/toolchain_v3/src\driver_display.cpp **** 	0x61, 0x59, 0x49, 0x4D, 0x43, 
  99:c:/Dropbox/AV_SmartWatch/toolchain_v3/src\driver_display.cpp **** 	0x00, 0x7F, 0x41, 0x41, 0x41, 
 100:c:/Dropbox/AV_SmartWatch/toolchain_v3/src\driver_display.cpp **** 	0x02, 0x04, 0x08, 0x10, 0x20, 
 101:c:/Dropbox/AV_SmartWatch/toolchain_v3/src\driver_display.cpp **** 	0x00, 0x41, 0x41, 0x41, 0x7F, 
 102:c:/Dropbox/AV_SmartWatch/toolchain_v3/src\driver_display.cpp **** 	0x04, 0x02, 0x01, 0x02, 0x04, 
 103:c:/Dropbox/AV_SmartWatch/toolchain_v3/src\driver_display.cpp **** 	0x40, 0x40, 0x40, 0x40, 0x40, 
 104:c:/Dropbox/AV_SmartWatch/toolchain_v3/src\driver_display.cpp **** 	0x00, 0x03, 0x07, 0x08, 0x00, 
 105:c:/Dropbox/AV_SmartWatch/toolchain_v3/src\driver_display.cpp **** 	0x20, 0x54, 0x54, 0x78, 0x40, 
 106:c:/Dropbox/AV_SmartWatch/toolchain_v3/src\driver_display.cpp **** 	0x7F, 0x28, 0x44, 0x44, 0x38, 
 107:c:/Dropbox/AV_SmartWatch/toolchain_v3/src\driver_display.cpp **** 	0x38, 0x44, 0x44, 0x44, 0x28, 
 108:c:/Dropbox/AV_SmartWatch/toolchain_v3/src\driver_display.cpp **** 	0x38, 0x44, 0x44, 0x28, 0x7F, 
 109:c:/Dropbox/AV_SmartWatch/toolchain_v3/src\driver_display.cpp **** 	0x38, 0x54, 0x54, 0x54, 0x18, 
 110:c:/Dropbox/AV_SmartWatch/toolchain_v3/src\driver_display.cpp **** 	0x00, 0x08, 0x7E, 0x09, 0x02, 
 111:c:/Dropbox/AV_SmartWatch/toolchain_v3/src\driver_display.cpp **** 	0x18, 0xA4, 0xA4, 0x9C, 0x78, 
 112:c:/Dropbox/AV_SmartWatch/toolchain_v3/src\driver_display.cpp **** 	0x7F, 0x08, 0x04, 0x04, 0x78, 
 113:c:/Dropbox/AV_SmartWatch/toolchain_v3/src\driver_display.cpp **** 	0x00, 0x44, 0x7D, 0x40, 0x00, 
 114:c:/Dropbox/AV_SmartWatch/toolchain_v3/src\driver_display.cpp **** 	0x20, 0x40, 0x40, 0x3D, 0x00, 
 115:c:/Dropbox/AV_SmartWatch/toolchain_v3/src\driver_display.cpp **** 	0x7F, 0x10, 0x28, 0x44, 0x00, 
 116:c:/Dropbox/AV_SmartWatch/toolchain_v3/src\driver_display.cpp **** 	0x00, 0x41, 0x7F, 0x40, 0x00, 
 117:c:/Dropbox/AV_SmartWatch/toolchain_v3/src\driver_display.cpp **** 	0x7C, 0x04, 0x78, 0x04, 0x78, 
 118:c:/Dropbox/AV_SmartWatch/toolchain_v3/src\driver_display.cpp **** 	0x7C, 0x08, 0x04, 0x04, 0x78, 
 119:c:/Dropbox/AV_SmartWatch/toolchain_v3/src\driver_display.cpp **** 	0x38, 0x44, 0x44, 0x44, 0x38, 
 120:c:/Dropbox/AV_SmartWatch/toolchain_v3/src\driver_display.cpp **** 	0xFC, 0x18, 0x24, 0x24, 0x18, 
 121:c:/Dropbox/AV_SmartWatch/toolchain_v3/src\driver_display.cpp **** 	0x18, 0x24, 0x24, 0x18, 0xFC, 
 122:c:/Dropbox/AV_SmartWatch/toolchain_v3/src\driver_display.cpp **** 	0x7C, 0x08, 0x04, 0x04, 0x08, 
 123:c:/Dropbox/AV_SmartWatch/toolchain_v3/src\driver_display.cpp **** 	0x48, 0x54, 0x54, 0x54, 0x24, 
 124:c:/Dropbox/AV_SmartWatch/toolchain_v3/src\driver_display.cpp **** 	0x04, 0x04, 0x3F, 0x44, 0x24, 
 125:c:/Dropbox/AV_SmartWatch/toolchain_v3/src\driver_display.cpp **** 	0x3C, 0x40, 0x40, 0x20, 0x7C, 
 126:c:/Dropbox/AV_SmartWatch/toolchain_v3/src\driver_display.cpp **** 	0x1C, 0x20, 0x40, 0x20, 0x1C, 
 127:c:/Dropbox/AV_SmartWatch/toolchain_v3/src\driver_display.cpp **** 	0x3C, 0x40, 0x30, 0x40, 0x3C, 
 128:c:/Dropbox/AV_SmartWatch/toolchain_v3/src\driver_display.cpp **** 	0x44, 0x28, 0x10, 0x28, 0x44, 
 129:c:/Dropbox/AV_SmartWatch/toolchain_v3/src\driver_display.cpp **** 	0x4C, 0x90, 0x90, 0x90, 0x7C, 
 130:c:/Dropbox/AV_SmartWatch/toolchain_v3/src\driver_display.cpp **** 	0x44, 0x64, 0x54, 0x4C, 0x44, 
 131:c:/Dropbox/AV_SmartWatch/toolchain_v3/src\driver_display.cpp **** 	0x00, 0x08, 0x36, 0x41, 0x00, 
 132:c:/Dropbox/AV_SmartWatch/toolchain_v3/src\driver_display.cpp **** 	0x00, 0x00, 0x77, 0x00, 0x00, 
 133:c:/Dropbox/AV_SmartWatch/toolchain_v3/src\driver_display.cpp **** 	0x00, 0x41, 0x36, 0x08, 0x00, 
 134:c:/Dropbox/AV_SmartWatch/toolchain_v3/src\driver_display.cpp **** 	0x02, 0x01, 0x02, 0x04, 0x02, 
 135:c:/Dropbox/AV_SmartWatch/toolchain_v3/src\driver_display.cpp **** 	0x3C, 0x26, 0x23, 0x26, 0x3C, 
 136:c:/Dropbox/AV_SmartWatch/toolchain_v3/src\driver_display.cpp **** 	0x1E, 0xA1, 0xA1, 0x61, 0x12, 
 137:c:/Dropbox/AV_SmartWatch/toolchain_v3/src\driver_display.cpp **** 	0x3A, 0x40, 0x40, 0x20, 0x7A, 
 138:c:/Dropbox/AV_SmartWatch/toolchain_v3/src\driver_display.cpp **** 	0x38, 0x54, 0x54, 0x55, 0x59, 
 139:c:/Dropbox/AV_SmartWatch/toolchain_v3/src\driver_display.cpp **** 	0x21, 0x55, 0x55, 0x79, 0x41, 
 140:c:/Dropbox/AV_SmartWatch/toolchain_v3/src\driver_display.cpp **** 	0x21, 0x54, 0x54, 0x78, 0x41, 
 141:c:/Dropbox/AV_SmartWatch/toolchain_v3/src\driver_display.cpp **** 	0x21, 0x55, 0x54, 0x78, 0x40, 
 142:c:/Dropbox/AV_SmartWatch/toolchain_v3/src\driver_display.cpp **** 	0x20, 0x54, 0x55, 0x79, 0x40, 
 143:c:/Dropbox/AV_SmartWatch/toolchain_v3/src\driver_display.cpp **** 	0x0C, 0x1E, 0x52, 0x72, 0x12, 
 144:c:/Dropbox/AV_SmartWatch/toolchain_v3/src\driver_display.cpp **** 	0x39, 0x55, 0x55, 0x55, 0x59, 
 145:c:/Dropbox/AV_SmartWatch/toolchain_v3/src\driver_display.cpp **** 	0x39, 0x54, 0x54, 0x54, 0x59, 
 146:c:/Dropbox/AV_SmartWatch/toolchain_v3/src\driver_display.cpp **** 	0x39, 0x55, 0x54, 0x54, 0x58, 
 147:c:/Dropbox/AV_SmartWatch/toolchain_v3/src\driver_display.cpp **** 	0x00, 0x00, 0x45, 0x7C, 0x41, 
 148:c:/Dropbox/AV_SmartWatch/toolchain_v3/src\driver_display.cpp **** 	0x00, 0x02, 0x45, 0x7D, 0x42, 
 149:c:/Dropbox/AV_SmartWatch/toolchain_v3/src\driver_display.cpp **** 	0x00, 0x01, 0x45, 0x7C, 0x40, 
 150:c:/Dropbox/AV_SmartWatch/toolchain_v3/src\driver_display.cpp **** 	0xF0, 0x29, 0x24, 0x29, 0xF0, 
 151:c:/Dropbox/AV_SmartWatch/toolchain_v3/src\driver_display.cpp **** 	0xF0, 0x28, 0x25, 0x28, 0xF0, 
 152:c:/Dropbox/AV_SmartWatch/toolchain_v3/src\driver_display.cpp **** 	0x7C, 0x54, 0x55, 0x45, 0x00, 
 153:c:/Dropbox/AV_SmartWatch/toolchain_v3/src\driver_display.cpp **** 	0x20, 0x54, 0x54, 0x7C, 0x54, 
 154:c:/Dropbox/AV_SmartWatch/toolchain_v3/src\driver_display.cpp **** 	0x7C, 0x0A, 0x09, 0x7F, 0x49, 
 155:c:/Dropbox/AV_SmartWatch/toolchain_v3/src\driver_display.cpp **** 	0x32, 0x49, 0x49, 0x49, 0x32, 
 156:c:/Dropbox/AV_SmartWatch/toolchain_v3/src\driver_display.cpp **** 	0x32, 0x48, 0x48, 0x48, 0x32, 
 157:c:/Dropbox/AV_SmartWatch/toolchain_v3/src\driver_display.cpp **** 	0x32, 0x4A, 0x48, 0x48, 0x30, 
 158:c:/Dropbox/AV_SmartWatch/toolchain_v3/src\driver_display.cpp **** 	0x3A, 0x41, 0x41, 0x21, 0x7A, 
 159:c:/Dropbox/AV_SmartWatch/toolchain_v3/src\driver_display.cpp **** 	0x3A, 0x42, 0x40, 0x20, 0x78, 
 160:c:/Dropbox/AV_SmartWatch/toolchain_v3/src\driver_display.cpp **** 	0x00, 0x9D, 0xA0, 0xA0, 0x7D, 
 161:c:/Dropbox/AV_SmartWatch/toolchain_v3/src\driver_display.cpp **** 	0x39, 0x44, 0x44, 0x44, 0x39, 
 162:c:/Dropbox/AV_SmartWatch/toolchain_v3/src\driver_display.cpp **** 	0x3D, 0x40, 0x40, 0x40, 0x3D, 
 163:c:/Dropbox/AV_SmartWatch/toolchain_v3/src\driver_display.cpp **** 	0x3C, 0x24, 0xFF, 0x24, 0x24, 
 164:c:/Dropbox/AV_SmartWatch/toolchain_v3/src\driver_display.cpp **** 	0x48, 0x7E, 0x49, 0x43, 0x66, 
 165:c:/Dropbox/AV_SmartWatch/toolchain_v3/src\driver_display.cpp **** 	0x2B, 0x2F, 0xFC, 0x2F, 0x2B, 
 166:c:/Dropbox/AV_SmartWatch/toolchain_v3/src\driver_display.cpp **** 	0xFF, 0x09, 0x29, 0xF6, 0x20, 
 167:c:/Dropbox/AV_SmartWatch/toolchain_v3/src\driver_display.cpp **** 	0xC0, 0x88, 0x7E, 0x09, 0x03, 
 168:c:/Dropbox/AV_SmartWatch/toolchain_v3/src\driver_display.cpp **** 	0x20, 0x54, 0x54, 0x79, 0x41, 
 169:c:/Dropbox/AV_SmartWatch/toolchain_v3/src\driver_display.cpp **** 	0x00, 0x00, 0x44, 0x7D, 0x41, 
 170:c:/Dropbox/AV_SmartWatch/toolchain_v3/src\driver_display.cpp **** 	0x30, 0x48, 0x48, 0x4A, 0x32, 
 171:c:/Dropbox/AV_SmartWatch/toolchain_v3/src\driver_display.cpp **** 	0x38, 0x40, 0x40, 0x22, 0x7A, 
 172:c:/Dropbox/AV_SmartWatch/toolchain_v3/src\driver_display.cpp **** 	0x00, 0x7A, 0x0A, 0x0A, 0x72, 
 173:c:/Dropbox/AV_SmartWatch/toolchain_v3/src\driver_display.cpp **** 	0x7D, 0x0D, 0x19, 0x31, 0x7D, 
 174:c:/Dropbox/AV_SmartWatch/toolchain_v3/src\driver_display.cpp **** 	0x26, 0x29, 0x29, 0x2F, 0x28, 
 175:c:/Dropbox/AV_SmartWatch/toolchain_v3/src\driver_display.cpp **** 	0x26, 0x29, 0x29, 0x29, 0x26, 
 176:c:/Dropbox/AV_SmartWatch/toolchain_v3/src\driver_display.cpp **** 	0x30, 0x48, 0x4D, 0x40, 0x20, 
 177:c:/Dropbox/AV_SmartWatch/toolchain_v3/src\driver_display.cpp **** 	0x38, 0x08, 0x08, 0x08, 0x08, 
 178:c:/Dropbox/AV_SmartWatch/toolchain_v3/src\driver_display.cpp **** 	0x08, 0x08, 0x08, 0x08, 0x38, 
 179:c:/Dropbox/AV_SmartWatch/toolchain_v3/src\driver_display.cpp **** 	0x2F, 0x10, 0xC8, 0xAC, 0xBA, 
 180:c:/Dropbox/AV_SmartWatch/toolchain_v3/src\driver_display.cpp **** 	0x2F, 0x10, 0x28, 0x34, 0xFA, 
 181:c:/Dropbox/AV_SmartWatch/toolchain_v3/src\driver_display.cpp **** 	0x00, 0x00, 0x7B, 0x00, 0x00, 
 182:c:/Dropbox/AV_SmartWatch/toolchain_v3/src\driver_display.cpp **** 	0x08, 0x14, 0x2A, 0x14, 0x22, 
 183:c:/Dropbox/AV_SmartWatch/toolchain_v3/src\driver_display.cpp **** 	0x22, 0x14, 0x2A, 0x14, 0x08, 
 184:c:/Dropbox/AV_SmartWatch/toolchain_v3/src\driver_display.cpp **** 	0xAA, 0x00, 0x55, 0x00, 0xAA, 
 185:c:/Dropbox/AV_SmartWatch/toolchain_v3/src\driver_display.cpp **** 	0xAA, 0x55, 0xAA, 0x55, 0xAA, 
 186:c:/Dropbox/AV_SmartWatch/toolchain_v3/src\driver_display.cpp **** 	0x00, 0x00, 0x00, 0xFF, 0x00, 
 187:c:/Dropbox/AV_SmartWatch/toolchain_v3/src\driver_display.cpp **** 	0x10, 0x10, 0x10, 0xFF, 0x00, 
 188:c:/Dropbox/AV_SmartWatch/toolchain_v3/src\driver_display.cpp **** 	0x14, 0x14, 0x14, 0xFF, 0x00, 
 189:c:/Dropbox/AV_SmartWatch/toolchain_v3/src\driver_display.cpp **** 	0x10, 0x10, 0xFF, 0x00, 0xFF, 
 190:c:/Dropbox/AV_SmartWatch/toolchain_v3/src\driver_display.cpp **** 	0x10, 0x10, 0xF0, 0x10, 0xF0, 
 191:c:/Dropbox/AV_SmartWatch/toolchain_v3/src\driver_display.cpp **** 	0x14, 0x14, 0x14, 0xFC, 0x00, 
 192:c:/Dropbox/AV_SmartWatch/toolchain_v3/src\driver_display.cpp **** 	0x14, 0x14, 0xF7, 0x00, 0xFF, 
 193:c:/Dropbox/AV_SmartWatch/toolchain_v3/src\driver_display.cpp **** 	0x00, 0x00, 0xFF, 0x00, 0xFF, 
 194:c:/Dropbox/AV_SmartWatch/toolchain_v3/src\driver_display.cpp **** 	0x14, 0x14, 0xF4, 0x04, 0xFC, 
 195:c:/Dropbox/AV_SmartWatch/toolchain_v3/src\driver_display.cpp **** 	0x14, 0x14, 0x17, 0x10, 0x1F, 
 196:c:/Dropbox/AV_SmartWatch/toolchain_v3/src\driver_display.cpp **** 	0x10, 0x10, 0x1F, 0x10, 0x1F, 
 197:c:/Dropbox/AV_SmartWatch/toolchain_v3/src\driver_display.cpp **** 	0x14, 0x14, 0x14, 0x1F, 0x00, 
 198:c:/Dropbox/AV_SmartWatch/toolchain_v3/src\driver_display.cpp **** 	0x10, 0x10, 0x10, 0xF0, 0x00, 
 199:c:/Dropbox/AV_SmartWatch/toolchain_v3/src\driver_display.cpp **** 	0x00, 0x00, 0x00, 0x1F, 0x10, 
 200:c:/Dropbox/AV_SmartWatch/toolchain_v3/src\driver_display.cpp **** 	0x10, 0x10, 0x10, 0x1F, 0x10, 
 201:c:/Dropbox/AV_SmartWatch/toolchain_v3/src\driver_display.cpp **** 	0x10, 0x10, 0x10, 0xF0, 0x10, 
 202:c:/Dropbox/AV_SmartWatch/toolchain_v3/src\driver_display.cpp **** 	0x00, 0x00, 0x00, 0xFF, 0x10, 
 203:c:/Dropbox/AV_SmartWatch/toolchain_v3/src\driver_display.cpp **** 	0x10, 0x10, 0x10, 0x10, 0x10, 
 204:c:/Dropbox/AV_SmartWatch/toolchain_v3/src\driver_display.cpp **** 	0x10, 0x10, 0x10, 0xFF, 0x10, 
 205:c:/Dropbox/AV_SmartWatch/toolchain_v3/src\driver_display.cpp **** 	0x00, 0x00, 0x00, 0xFF, 0x14, 
 206:c:/Dropbox/AV_SmartWatch/toolchain_v3/src\driver_display.cpp **** 	0x00, 0x00, 0xFF, 0x00, 0xFF, 
 207:c:/Dropbox/AV_SmartWatch/toolchain_v3/src\driver_display.cpp **** 	0x00, 0x00, 0x1F, 0x10, 0x17, 
 208:c:/Dropbox/AV_SmartWatch/toolchain_v3/src\driver_display.cpp **** 	0x00, 0x00, 0xFC, 0x04, 0xF4, 
 209:c:/Dropbox/AV_SmartWatch/toolchain_v3/src\driver_display.cpp **** 	0x14, 0x14, 0x17, 0x10, 0x17, 
 210:c:/Dropbox/AV_SmartWatch/toolchain_v3/src\driver_display.cpp **** 	0x14, 0x14, 0xF4, 0x04, 0xF4, 
 211:c:/Dropbox/AV_SmartWatch/toolchain_v3/src\driver_display.cpp **** 	0x00, 0x00, 0xFF, 0x00, 0xF7, 
 212:c:/Dropbox/AV_SmartWatch/toolchain_v3/src\driver_display.cpp **** 	0x14, 0x14, 0x14, 0x14, 0x14, 
 213:c:/Dropbox/AV_SmartWatch/toolchain_v3/src\driver_display.cpp **** 	0x14, 0x14, 0xF7, 0x00, 0xF7, 
 214:c:/Dropbox/AV_SmartWatch/toolchain_v3/src\driver_display.cpp **** 	0x14, 0x14, 0x14, 0x17, 0x14, 
 215:c:/Dropbox/AV_SmartWatch/toolchain_v3/src\driver_display.cpp **** 	0x10, 0x10, 0x1F, 0x10, 0x1F, 
 216:c:/Dropbox/AV_SmartWatch/toolchain_v3/src\driver_display.cpp **** 	0x14, 0x14, 0x14, 0xF4, 0x14, 
 217:c:/Dropbox/AV_SmartWatch/toolchain_v3/src\driver_display.cpp **** 	0x10, 0x10, 0xF0, 0x10, 0xF0, 
 218:c:/Dropbox/AV_SmartWatch/toolchain_v3/src\driver_display.cpp **** 	0x00, 0x00, 0x1F, 0x10, 0x1F, 
 219:c:/Dropbox/AV_SmartWatch/toolchain_v3/src\driver_display.cpp **** 	0x00, 0x00, 0x00, 0x1F, 0x14, 
 220:c:/Dropbox/AV_SmartWatch/toolchain_v3/src\driver_display.cpp **** 	0x00, 0x00, 0x00, 0xFC, 0x14, 
 221:c:/Dropbox/AV_SmartWatch/toolchain_v3/src\driver_display.cpp **** 	0x00, 0x00, 0xF0, 0x10, 0xF0, 
 222:c:/Dropbox/AV_SmartWatch/toolchain_v3/src\driver_display.cpp **** 	0x10, 0x10, 0xFF, 0x10, 0xFF, 
 223:c:/Dropbox/AV_SmartWatch/toolchain_v3/src\driver_display.cpp **** 	0x14, 0x14, 0x14, 0xFF, 0x14, 
 224:c:/Dropbox/AV_SmartWatch/toolchain_v3/src\driver_display.cpp **** 	0x10, 0x10, 0x10, 0x1F, 0x00, 
 225:c:/Dropbox/AV_SmartWatch/toolchain_v3/src\driver_display.cpp **** 	0x00, 0x00, 0x00, 0xF0, 0x10, 
 226:c:/Dropbox/AV_SmartWatch/toolchain_v3/src\driver_display.cpp **** 	0xFF, 0xFF, 0xFF, 0xFF, 0xFF, 
 227:c:/Dropbox/AV_SmartWatch/toolchain_v3/src\driver_display.cpp **** 	0xF0, 0xF0, 0xF0, 0xF0, 0xF0, 
 228:c:/Dropbox/AV_SmartWatch/toolchain_v3/src\driver_display.cpp **** 	0xFF, 0xFF, 0xFF, 0x00, 0x00, 
 229:c:/Dropbox/AV_SmartWatch/toolchain_v3/src\driver_display.cpp **** 	0x00, 0x00, 0x00, 0xFF, 0xFF, 
 230:c:/Dropbox/AV_SmartWatch/toolchain_v3/src\driver_display.cpp **** 	0x0F, 0x0F, 0x0F, 0x0F, 0x0F, 
 231:c:/Dropbox/AV_SmartWatch/toolchain_v3/src\driver_display.cpp **** 	0x38, 0x44, 0x44, 0x38, 0x44, 
 232:c:/Dropbox/AV_SmartWatch/toolchain_v3/src\driver_display.cpp **** 	0x7C, 0x2A, 0x2A, 0x3E, 0x14, 
 233:c:/Dropbox/AV_SmartWatch/toolchain_v3/src\driver_display.cpp **** 	0x7E, 0x02, 0x02, 0x06, 0x06, 
 234:c:/Dropbox/AV_SmartWatch/toolchain_v3/src\driver_display.cpp **** 	0x02, 0x7E, 0x02, 0x7E, 0x02, 
 235:c:/Dropbox/AV_SmartWatch/toolchain_v3/src\driver_display.cpp **** 	0x63, 0x55, 0x49, 0x41, 0x63, 
 236:c:/Dropbox/AV_SmartWatch/toolchain_v3/src\driver_display.cpp **** 	0x38, 0x44, 0x44, 0x3C, 0x04, 
 237:c:/Dropbox/AV_SmartWatch/toolchain_v3/src\driver_display.cpp **** 	0x40, 0x7E, 0x20, 0x1E, 0x20, 
 238:c:/Dropbox/AV_SmartWatch/toolchain_v3/src\driver_display.cpp **** 	0x06, 0x02, 0x7E, 0x02, 0x02, 
 239:c:/Dropbox/AV_SmartWatch/toolchain_v3/src\driver_display.cpp **** 	0x99, 0xA5, 0xE7, 0xA5, 0x99, 
 240:c:/Dropbox/AV_SmartWatch/toolchain_v3/src\driver_display.cpp **** 	0x1C, 0x2A, 0x49, 0x2A, 0x1C, 
 241:c:/Dropbox/AV_SmartWatch/toolchain_v3/src\driver_display.cpp **** 	0x4C, 0x72, 0x01, 0x72, 0x4C, 
 242:c:/Dropbox/AV_SmartWatch/toolchain_v3/src\driver_display.cpp **** 	0x30, 0x4A, 0x4D, 0x4D, 0x30, 
 243:c:/Dropbox/AV_SmartWatch/toolchain_v3/src\driver_display.cpp **** 	0x30, 0x48, 0x78, 0x48, 0x30, 
 244:c:/Dropbox/AV_SmartWatch/toolchain_v3/src\driver_display.cpp **** 	0xBC, 0x62, 0x5A, 0x46, 0x3D, 
 245:c:/Dropbox/AV_SmartWatch/toolchain_v3/src\driver_display.cpp **** 	0x3E, 0x49, 0x49, 0x49, 0x00, 
 246:c:/Dropbox/AV_SmartWatch/toolchain_v3/src\driver_display.cpp **** 	0x7E, 0x01, 0x01, 0x01, 0x7E, 
 247:c:/Dropbox/AV_SmartWatch/toolchain_v3/src\driver_display.cpp **** 	0x2A, 0x2A, 0x2A, 0x2A, 0x2A, 
 248:c:/Dropbox/AV_SmartWatch/toolchain_v3/src\driver_display.cpp **** 	0x44, 0x44, 0x5F, 0x44, 0x44, 
 249:c:/Dropbox/AV_SmartWatch/toolchain_v3/src\driver_display.cpp **** 	0x40, 0x51, 0x4A, 0x44, 0x40, 
 250:c:/Dropbox/AV_SmartWatch/toolchain_v3/src\driver_display.cpp **** 	0x40, 0x44, 0x4A, 0x51, 0x40, 
 251:c:/Dropbox/AV_SmartWatch/toolchain_v3/src\driver_display.cpp **** 	0x00, 0x00, 0xFF, 0x01, 0x03, 
 252:c:/Dropbox/AV_SmartWatch/toolchain_v3/src\driver_display.cpp **** 	0xE0, 0x80, 0xFF, 0x00, 0x00, 
 253:c:/Dropbox/AV_SmartWatch/toolchain_v3/src\driver_display.cpp **** 	0x08, 0x08, 0x6B, 0x6B, 0x08,
 254:c:/Dropbox/AV_SmartWatch/toolchain_v3/src\driver_display.cpp **** 	0x36, 0x12, 0x36, 0x24, 0x36, 
 255:c:/Dropbox/AV_SmartWatch/toolchain_v3/src\driver_display.cpp **** 	0x06, 0x0F, 0x09, 0x0F, 0x06, 
 256:c:/Dropbox/AV_SmartWatch/toolchain_v3/src\driver_display.cpp **** 	0x00, 0x00, 0x18, 0x18, 0x00, 
 257:c:/Dropbox/AV_SmartWatch/toolchain_v3/src\driver_display.cpp **** 	0x00, 0x00, 0x10, 0x10, 0x00, 
 258:c:/Dropbox/AV_SmartWatch/toolchain_v3/src\driver_display.cpp **** 	0x30, 0x40, 0xFF, 0x01, 0x01, 
 259:c:/Dropbox/AV_SmartWatch/toolchain_v3/src\driver_display.cpp **** 	0x00, 0x1F, 0x01, 0x01, 0x1E, 
 260:c:/Dropbox/AV_SmartWatch/toolchain_v3/src\driver_display.cpp **** 	0x00, 0x19, 0x1D, 0x17, 0x12, 
 261:c:/Dropbox/AV_SmartWatch/toolchain_v3/src\driver_display.cpp **** 	0x00, 0x3C, 0x3C, 0x3C, 0x3C, 
 262:c:/Dropbox/AV_SmartWatch/toolchain_v3/src\driver_display.cpp **** 	0x00, 0x00, 0x00, 0x00, 0x00, 
 263:c:/Dropbox/AV_SmartWatch/toolchain_v3/src\driver_display.cpp **** };
 264:c:/Dropbox/AV_SmartWatch/toolchain_v3/src\driver_display.cpp **** 
 265:c:/Dropbox/AV_SmartWatch/toolchain_v3/src\driver_display.cpp **** ///////////////////////////////////////////////////////
 266:c:/Dropbox/AV_SmartWatch/toolchain_v3/src\driver_display.cpp **** 
 267:c:/Dropbox/AV_SmartWatch/toolchain_v3/src\driver_display.cpp **** // draw a circle outline
 268:c:/Dropbox/AV_SmartWatch/toolchain_v3/src\driver_display.cpp **** void Arduino_GFX::drawCircle(int16_t x0, int16_t y0, int16_t r, 
 269:c:/Dropbox/AV_SmartWatch/toolchain_v3/src\driver_display.cpp **** 			      uint16_t color) {
 270:c:/Dropbox/AV_SmartWatch/toolchain_v3/src\driver_display.cpp ****   int16_t f = 1 - r;
 271:c:/Dropbox/AV_SmartWatch/toolchain_v3/src\driver_display.cpp ****   int16_t ddF_x = 1;
 272:c:/Dropbox/AV_SmartWatch/toolchain_v3/src\driver_display.cpp ****   int16_t ddF_y = -2 * r;
 273:c:/Dropbox/AV_SmartWatch/toolchain_v3/src\driver_display.cpp ****   int16_t x = 0;
 274:c:/Dropbox/AV_SmartWatch/toolchain_v3/src\driver_display.cpp ****   int16_t y = r;
 275:c:/Dropbox/AV_SmartWatch/toolchain_v3/src\driver_display.cpp **** 
 276:c:/Dropbox/AV_SmartWatch/toolchain_v3/src\driver_display.cpp ****   drawPixel(x0, y0+r, color);
 277:c:/Dropbox/AV_SmartWatch/toolchain_v3/src\driver_display.cpp ****   drawPixel(x0, y0-r, color);
 278:c:/Dropbox/AV_SmartWatch/toolchain_v3/src\driver_display.cpp ****   drawPixel(x0+r, y0, color);
 279:c:/Dropbox/AV_SmartWatch/toolchain_v3/src\driver_display.cpp ****   drawPixel(x0-r, y0, color);
 280:c:/Dropbox/AV_SmartWatch/toolchain_v3/src\driver_display.cpp **** 
 281:c:/Dropbox/AV_SmartWatch/toolchain_v3/src\driver_display.cpp ****   while (x<y) {
 282:c:/Dropbox/AV_SmartWatch/toolchain_v3/src\driver_display.cpp ****     if (f >= 0) {
 283:c:/Dropbox/AV_SmartWatch/toolchain_v3/src\driver_display.cpp ****       y--;
 284:c:/Dropbox/AV_SmartWatch/toolchain_v3/src\driver_display.cpp ****       ddF_y += 2;
 285:c:/Dropbox/AV_SmartWatch/toolchain_v3/src\driver_display.cpp ****       f += ddF_y;
 286:c:/Dropbox/AV_SmartWatch/toolchain_v3/src\driver_display.cpp ****     }
 287:c:/Dropbox/AV_SmartWatch/toolchain_v3/src\driver_display.cpp ****     x++;
 288:c:/Dropbox/AV_SmartWatch/toolchain_v3/src\driver_display.cpp ****     ddF_x += 2;
 289:c:/Dropbox/AV_SmartWatch/toolchain_v3/src\driver_display.cpp ****     f += ddF_x;
 290:c:/Dropbox/AV_SmartWatch/toolchain_v3/src\driver_display.cpp ****   
 291:c:/Dropbox/AV_SmartWatch/toolchain_v3/src\driver_display.cpp ****     drawPixel(x0 + x, y0 + y, color);
 292:c:/Dropbox/AV_SmartWatch/toolchain_v3/src\driver_display.cpp ****     drawPixel(x0 - x, y0 + y, color);
 293:c:/Dropbox/AV_SmartWatch/toolchain_v3/src\driver_display.cpp ****     drawPixel(x0 + x, y0 - y, color);
 294:c:/Dropbox/AV_SmartWatch/toolchain_v3/src\driver_display.cpp ****     drawPixel(x0 - x, y0 - y, color);
 295:c:/Dropbox/AV_SmartWatch/toolchain_v3/src\driver_display.cpp ****     drawPixel(x0 + y, y0 + x, color);
 296:c:/Dropbox/AV_SmartWatch/toolchain_v3/src\driver_display.cpp ****     drawPixel(x0 - y, y0 + x, color);
 297:c:/Dropbox/AV_SmartWatch/toolchain_v3/src\driver_display.cpp ****     drawPixel(x0 + y, y0 - x, color);
 298:c:/Dropbox/AV_SmartWatch/toolchain_v3/src\driver_display.cpp ****     drawPixel(x0 - y, y0 - x, color);
 299:c:/Dropbox/AV_SmartWatch/toolchain_v3/src\driver_display.cpp ****     
 300:c:/Dropbox/AV_SmartWatch/toolchain_v3/src\driver_display.cpp ****   }
 301:c:/Dropbox/AV_SmartWatch/toolchain_v3/src\driver_display.cpp **** }
 302:c:/Dropbox/AV_SmartWatch/toolchain_v3/src\driver_display.cpp **** 
 303:c:/Dropbox/AV_SmartWatch/toolchain_v3/src\driver_display.cpp **** void Arduino_GFX::drawCircleHelper( int16_t x0, int16_t y0,
 304:c:/Dropbox/AV_SmartWatch/toolchain_v3/src\driver_display.cpp ****                int16_t r, uint8_t cornername, uint16_t color) {
 305:c:/Dropbox/AV_SmartWatch/toolchain_v3/src\driver_display.cpp ****   int16_t f     = 1 - r;
 306:c:/Dropbox/AV_SmartWatch/toolchain_v3/src\driver_display.cpp ****   int16_t ddF_x = 1;
 307:c:/Dropbox/AV_SmartWatch/toolchain_v3/src\driver_display.cpp ****   int16_t ddF_y = -2 * r;
 308:c:/Dropbox/AV_SmartWatch/toolchain_v3/src\driver_display.cpp ****   int16_t x     = 0;
 309:c:/Dropbox/AV_SmartWatch/toolchain_v3/src\driver_display.cpp ****   int16_t y     = r;
 310:c:/Dropbox/AV_SmartWatch/toolchain_v3/src\driver_display.cpp **** 
 311:c:/Dropbox/AV_SmartWatch/toolchain_v3/src\driver_display.cpp ****   while (x<y) {
 312:c:/Dropbox/AV_SmartWatch/toolchain_v3/src\driver_display.cpp ****     if (f >= 0) {
 313:c:/Dropbox/AV_SmartWatch/toolchain_v3/src\driver_display.cpp ****       y--;
 314:c:/Dropbox/AV_SmartWatch/toolchain_v3/src\driver_display.cpp ****       ddF_y += 2;
 315:c:/Dropbox/AV_SmartWatch/toolchain_v3/src\driver_display.cpp ****       f     += ddF_y;
 316:c:/Dropbox/AV_SmartWatch/toolchain_v3/src\driver_display.cpp ****     }
 317:c:/Dropbox/AV_SmartWatch/toolchain_v3/src\driver_display.cpp ****     x++;
 318:c:/Dropbox/AV_SmartWatch/toolchain_v3/src\driver_display.cpp ****     ddF_x += 2;
 319:c:/Dropbox/AV_SmartWatch/toolchain_v3/src\driver_display.cpp ****     f     += ddF_x;
 320:c:/Dropbox/AV_SmartWatch/toolchain_v3/src\driver_display.cpp ****     if (cornername & 0x4) {
 321:c:/Dropbox/AV_SmartWatch/toolchain_v3/src\driver_display.cpp ****       drawPixel(x0 + x, y0 + y, color);
 322:c:/Dropbox/AV_SmartWatch/toolchain_v3/src\driver_display.cpp ****       drawPixel(x0 + y, y0 + x, color);
 323:c:/Dropbox/AV_SmartWatch/toolchain_v3/src\driver_display.cpp ****     } 
 324:c:/Dropbox/AV_SmartWatch/toolchain_v3/src\driver_display.cpp ****     if (cornername & 0x2) {
 325:c:/Dropbox/AV_SmartWatch/toolchain_v3/src\driver_display.cpp ****       drawPixel(x0 + x, y0 - y, color);
 326:c:/Dropbox/AV_SmartWatch/toolchain_v3/src\driver_display.cpp ****       drawPixel(x0 + y, y0 - x, color);
 327:c:/Dropbox/AV_SmartWatch/toolchain_v3/src\driver_display.cpp ****     }
 328:c:/Dropbox/AV_SmartWatch/toolchain_v3/src\driver_display.cpp ****     if (cornername & 0x8) {
 329:c:/Dropbox/AV_SmartWatch/toolchain_v3/src\driver_display.cpp ****       drawPixel(x0 - y, y0 + x, color);
 330:c:/Dropbox/AV_SmartWatch/toolchain_v3/src\driver_display.cpp ****       drawPixel(x0 - x, y0 + y, color);
 331:c:/Dropbox/AV_SmartWatch/toolchain_v3/src\driver_display.cpp ****     }
 332:c:/Dropbox/AV_SmartWatch/toolchain_v3/src\driver_display.cpp ****     if (cornername & 0x1) {
 333:c:/Dropbox/AV_SmartWatch/toolchain_v3/src\driver_display.cpp ****       drawPixel(x0 - y, y0 - x, color);
 334:c:/Dropbox/AV_SmartWatch/toolchain_v3/src\driver_display.cpp ****       drawPixel(x0 - x, y0 - y, color);
 335:c:/Dropbox/AV_SmartWatch/toolchain_v3/src\driver_display.cpp ****     }
 336:c:/Dropbox/AV_SmartWatch/toolchain_v3/src\driver_display.cpp ****   }
 337:c:/Dropbox/AV_SmartWatch/toolchain_v3/src\driver_display.cpp **** }
 338:c:/Dropbox/AV_SmartWatch/toolchain_v3/src\driver_display.cpp **** 
 339:c:/Dropbox/AV_SmartWatch/toolchain_v3/src\driver_display.cpp **** void Arduino_GFX::fillCircle(int16_t x0, int16_t y0, int16_t r, 
 340:c:/Dropbox/AV_SmartWatch/toolchain_v3/src\driver_display.cpp **** 			      uint16_t color) {
 341:c:/Dropbox/AV_SmartWatch/toolchain_v3/src\driver_display.cpp ****   drawFastVLine(x0, y0-r, 2*r+1, color);
 342:c:/Dropbox/AV_SmartWatch/toolchain_v3/src\driver_display.cpp ****   fillCircleHelper(x0, y0, r, 3, 0, color);
 343:c:/Dropbox/AV_SmartWatch/toolchain_v3/src\driver_display.cpp **** }
 344:c:/Dropbox/AV_SmartWatch/toolchain_v3/src\driver_display.cpp **** 
 345:c:/Dropbox/AV_SmartWatch/toolchain_v3/src\driver_display.cpp **** // used to do circles and roundrects!
 346:c:/Dropbox/AV_SmartWatch/toolchain_v3/src\driver_display.cpp **** void Arduino_GFX::fillCircleHelper(int16_t x0, int16_t y0, int16_t r,
 347:c:/Dropbox/AV_SmartWatch/toolchain_v3/src\driver_display.cpp **** 				    uint8_t cornername, int16_t delta, uint16_t color) {
 348:c:/Dropbox/AV_SmartWatch/toolchain_v3/src\driver_display.cpp **** 
 349:c:/Dropbox/AV_SmartWatch/toolchain_v3/src\driver_display.cpp ****   int16_t f     = 1 - r;
 350:c:/Dropbox/AV_SmartWatch/toolchain_v3/src\driver_display.cpp ****   int16_t ddF_x = 1;
 351:c:/Dropbox/AV_SmartWatch/toolchain_v3/src\driver_display.cpp ****   int16_t ddF_y = -2 * r;
 352:c:/Dropbox/AV_SmartWatch/toolchain_v3/src\driver_display.cpp ****   int16_t x     = 0;
 353:c:/Dropbox/AV_SmartWatch/toolchain_v3/src\driver_display.cpp ****   int16_t y     = r;
 354:c:/Dropbox/AV_SmartWatch/toolchain_v3/src\driver_display.cpp **** 
 355:c:/Dropbox/AV_SmartWatch/toolchain_v3/src\driver_display.cpp ****   while (x<y) {
 356:c:/Dropbox/AV_SmartWatch/toolchain_v3/src\driver_display.cpp ****     if (f >= 0) {
 357:c:/Dropbox/AV_SmartWatch/toolchain_v3/src\driver_display.cpp ****       y--;
 358:c:/Dropbox/AV_SmartWatch/toolchain_v3/src\driver_display.cpp ****       ddF_y += 2;
 359:c:/Dropbox/AV_SmartWatch/toolchain_v3/src\driver_display.cpp ****       f     += ddF_y;
 360:c:/Dropbox/AV_SmartWatch/toolchain_v3/src\driver_display.cpp ****     }
 361:c:/Dropbox/AV_SmartWatch/toolchain_v3/src\driver_display.cpp ****     x++;
 362:c:/Dropbox/AV_SmartWatch/toolchain_v3/src\driver_display.cpp ****     ddF_x += 2;
 363:c:/Dropbox/AV_SmartWatch/toolchain_v3/src\driver_display.cpp ****     f     += ddF_x;
 364:c:/Dropbox/AV_SmartWatch/toolchain_v3/src\driver_display.cpp **** 
 365:c:/Dropbox/AV_SmartWatch/toolchain_v3/src\driver_display.cpp ****     if (cornername & 0x1) {
 366:c:/Dropbox/AV_SmartWatch/toolchain_v3/src\driver_display.cpp ****       drawFastVLine(x0+x, y0-y, 2*y+1+delta, color);
 367:c:/Dropbox/AV_SmartWatch/toolchain_v3/src\driver_display.cpp ****       drawFastVLine(x0+y, y0-x, 2*x+1+delta, color);
 368:c:/Dropbox/AV_SmartWatch/toolchain_v3/src\driver_display.cpp ****     }
 369:c:/Dropbox/AV_SmartWatch/toolchain_v3/src\driver_display.cpp ****     if (cornername & 0x2) {
 370:c:/Dropbox/AV_SmartWatch/toolchain_v3/src\driver_display.cpp ****       drawFastVLine(x0-x, y0-y, 2*y+1+delta, color);
 371:c:/Dropbox/AV_SmartWatch/toolchain_v3/src\driver_display.cpp ****       drawFastVLine(x0-y, y0-x, 2*x+1+delta, color);
 372:c:/Dropbox/AV_SmartWatch/toolchain_v3/src\driver_display.cpp ****     }
 373:c:/Dropbox/AV_SmartWatch/toolchain_v3/src\driver_display.cpp ****   }
 374:c:/Dropbox/AV_SmartWatch/toolchain_v3/src\driver_display.cpp **** }
 375:c:/Dropbox/AV_SmartWatch/toolchain_v3/src\driver_display.cpp **** 
 376:c:/Dropbox/AV_SmartWatch/toolchain_v3/src\driver_display.cpp **** #define swap(a, b) a ^= b; b ^= a; a ^= b;
 377:c:/Dropbox/AV_SmartWatch/toolchain_v3/src\driver_display.cpp **** 
 378:c:/Dropbox/AV_SmartWatch/toolchain_v3/src\driver_display.cpp **** // bresenham's algorithm - thx wikpedia
 379:c:/Dropbox/AV_SmartWatch/toolchain_v3/src\driver_display.cpp **** void Arduino_GFX::drawLine(int16_t x0, int16_t y0, 
 380:c:/Dropbox/AV_SmartWatch/toolchain_v3/src\driver_display.cpp **** 			    int16_t x1, int16_t y1, 
 381:c:/Dropbox/AV_SmartWatch/toolchain_v3/src\driver_display.cpp **** 			    uint16_t color) {
 382:c:/Dropbox/AV_SmartWatch/toolchain_v3/src\driver_display.cpp ****   int16_t steep = abs(y1 - y0) > abs(x1 - x0);
 383:c:/Dropbox/AV_SmartWatch/toolchain_v3/src\driver_display.cpp ****   if (steep) {
 384:c:/Dropbox/AV_SmartWatch/toolchain_v3/src\driver_display.cpp ****     swap(x0, y0);
 385:c:/Dropbox/AV_SmartWatch/toolchain_v3/src\driver_display.cpp ****     swap(x1, y1);
 386:c:/Dropbox/AV_SmartWatch/toolchain_v3/src\driver_display.cpp ****   }
 387:c:/Dropbox/AV_SmartWatch/toolchain_v3/src\driver_display.cpp **** 
 388:c:/Dropbox/AV_SmartWatch/toolchain_v3/src\driver_display.cpp ****   if (x0 > x1) {
 389:c:/Dropbox/AV_SmartWatch/toolchain_v3/src\driver_display.cpp ****     swap(x0, x1);
 390:c:/Dropbox/AV_SmartWatch/toolchain_v3/src\driver_display.cpp ****     swap(y0, y1);
 391:c:/Dropbox/AV_SmartWatch/toolchain_v3/src\driver_display.cpp ****   }
 392:c:/Dropbox/AV_SmartWatch/toolchain_v3/src\driver_display.cpp **** 
 393:c:/Dropbox/AV_SmartWatch/toolchain_v3/src\driver_display.cpp ****   int16_t dx, dy;
 394:c:/Dropbox/AV_SmartWatch/toolchain_v3/src\driver_display.cpp ****   dx = x1 - x0;
 395:c:/Dropbox/AV_SmartWatch/toolchain_v3/src\driver_display.cpp ****   dy = abs(y1 - y0);
 396:c:/Dropbox/AV_SmartWatch/toolchain_v3/src\driver_display.cpp **** 
 397:c:/Dropbox/AV_SmartWatch/toolchain_v3/src\driver_display.cpp ****   int16_t err = dx / 2;
 398:c:/Dropbox/AV_SmartWatch/toolchain_v3/src\driver_display.cpp ****   int16_t ystep;
 399:c:/Dropbox/AV_SmartWatch/toolchain_v3/src\driver_display.cpp **** 
 400:c:/Dropbox/AV_SmartWatch/toolchain_v3/src\driver_display.cpp ****   if (y0 < y1) {
 401:c:/Dropbox/AV_SmartWatch/toolchain_v3/src\driver_display.cpp ****     ystep = 1;
 402:c:/Dropbox/AV_SmartWatch/toolchain_v3/src\driver_display.cpp ****   } else {
 403:c:/Dropbox/AV_SmartWatch/toolchain_v3/src\driver_display.cpp ****     ystep = -1;
 404:c:/Dropbox/AV_SmartWatch/toolchain_v3/src\driver_display.cpp ****   }
 405:c:/Dropbox/AV_SmartWatch/toolchain_v3/src\driver_display.cpp **** 
 406:c:/Dropbox/AV_SmartWatch/toolchain_v3/src\driver_display.cpp ****   for (; x0<=x1; x0++) {
 407:c:/Dropbox/AV_SmartWatch/toolchain_v3/src\driver_display.cpp ****     if (steep) {
 408:c:/Dropbox/AV_SmartWatch/toolchain_v3/src\driver_display.cpp ****       drawPixel(y0, x0, color);
 409:c:/Dropbox/AV_SmartWatch/toolchain_v3/src\driver_display.cpp ****     } else {
 410:c:/Dropbox/AV_SmartWatch/toolchain_v3/src\driver_display.cpp ****       drawPixel(x0, y0, color);
 411:c:/Dropbox/AV_SmartWatch/toolchain_v3/src\driver_display.cpp ****     }
 412:c:/Dropbox/AV_SmartWatch/toolchain_v3/src\driver_display.cpp ****     err -= dy;
 413:c:/Dropbox/AV_SmartWatch/toolchain_v3/src\driver_display.cpp ****     if (err < 0) {
 414:c:/Dropbox/AV_SmartWatch/toolchain_v3/src\driver_display.cpp ****       y0 += ystep;
 415:c:/Dropbox/AV_SmartWatch/toolchain_v3/src\driver_display.cpp ****       err += dx;
 416:c:/Dropbox/AV_SmartWatch/toolchain_v3/src\driver_display.cpp ****     }
 417:c:/Dropbox/AV_SmartWatch/toolchain_v3/src\driver_display.cpp ****   }
 418:c:/Dropbox/AV_SmartWatch/toolchain_v3/src\driver_display.cpp **** }
 419:c:/Dropbox/AV_SmartWatch/toolchain_v3/src\driver_display.cpp **** 
 420:c:/Dropbox/AV_SmartWatch/toolchain_v3/src\driver_display.cpp **** 
 421:c:/Dropbox/AV_SmartWatch/toolchain_v3/src\driver_display.cpp **** // draw a rectangle
 422:c:/Dropbox/AV_SmartWatch/toolchain_v3/src\driver_display.cpp **** void Arduino_GFX::drawRect(int16_t x, int16_t y, 
 423:c:/Dropbox/AV_SmartWatch/toolchain_v3/src\driver_display.cpp **** 			    int16_t w, int16_t h, 
 424:c:/Dropbox/AV_SmartWatch/toolchain_v3/src\driver_display.cpp **** 			    uint16_t color) {
 425:c:/Dropbox/AV_SmartWatch/toolchain_v3/src\driver_display.cpp ****   drawFastHLine(x, y, w, color);
 426:c:/Dropbox/AV_SmartWatch/toolchain_v3/src\driver_display.cpp ****   drawFastHLine(x, y+h-1, w, color);
 427:c:/Dropbox/AV_SmartWatch/toolchain_v3/src\driver_display.cpp ****   drawFastVLine(x, y, h, color);
 428:c:/Dropbox/AV_SmartWatch/toolchain_v3/src\driver_display.cpp ****   drawFastVLine(x+w-1, y, h, color);
 429:c:/Dropbox/AV_SmartWatch/toolchain_v3/src\driver_display.cpp **** }
 430:c:/Dropbox/AV_SmartWatch/toolchain_v3/src\driver_display.cpp **** 
 431:c:/Dropbox/AV_SmartWatch/toolchain_v3/src\driver_display.cpp **** void Arduino_GFX::drawFastVLine(int16_t x, int16_t y, 
 432:c:/Dropbox/AV_SmartWatch/toolchain_v3/src\driver_display.cpp **** 				 int16_t h, uint16_t color) {
 433:c:/Dropbox/AV_SmartWatch/toolchain_v3/src\driver_display.cpp ****   // stupidest version - update in subclasses if desired!
 434:c:/Dropbox/AV_SmartWatch/toolchain_v3/src\driver_display.cpp ****   drawLine(x, y, x, y+h-1, color);
 435:c:/Dropbox/AV_SmartWatch/toolchain_v3/src\driver_display.cpp **** }
 436:c:/Dropbox/AV_SmartWatch/toolchain_v3/src\driver_display.cpp **** 
 437:c:/Dropbox/AV_SmartWatch/toolchain_v3/src\driver_display.cpp **** 
 438:c:/Dropbox/AV_SmartWatch/toolchain_v3/src\driver_display.cpp **** void Arduino_GFX::drawFastHLine(int16_t x, int16_t y, 
 439:c:/Dropbox/AV_SmartWatch/toolchain_v3/src\driver_display.cpp **** 				 int16_t w, uint16_t color) {
 440:c:/Dropbox/AV_SmartWatch/toolchain_v3/src\driver_display.cpp ****   // stupidest version - update in subclasses if desired!
 441:c:/Dropbox/AV_SmartWatch/toolchain_v3/src\driver_display.cpp ****   drawLine(x, y, x+w-1, y, color);
 442:c:/Dropbox/AV_SmartWatch/toolchain_v3/src\driver_display.cpp **** }
 443:c:/Dropbox/AV_SmartWatch/toolchain_v3/src\driver_display.cpp **** 
 444:c:/Dropbox/AV_SmartWatch/toolchain_v3/src\driver_display.cpp **** void Arduino_GFX::fillRect(int16_t x, int16_t y, int16_t w, int16_t h, 
 445:c:/Dropbox/AV_SmartWatch/toolchain_v3/src\driver_display.cpp **** 			    uint16_t color) {
 446:c:/Dropbox/AV_SmartWatch/toolchain_v3/src\driver_display.cpp ****   // stupidest version - update in subclasses if desired!
 447:c:/Dropbox/AV_SmartWatch/toolchain_v3/src\driver_display.cpp ****   for (int16_t i=x; i<x+w; i++) {
 448:c:/Dropbox/AV_SmartWatch/toolchain_v3/src\driver_display.cpp ****     drawFastVLine(i, y, h, color); 
 449:c:/Dropbox/AV_SmartWatch/toolchain_v3/src\driver_display.cpp ****   }
 450:c:/Dropbox/AV_SmartWatch/toolchain_v3/src\driver_display.cpp **** }
 451:c:/Dropbox/AV_SmartWatch/toolchain_v3/src\driver_display.cpp **** 
 452:c:/Dropbox/AV_SmartWatch/toolchain_v3/src\driver_display.cpp **** 
 453:c:/Dropbox/AV_SmartWatch/toolchain_v3/src\driver_display.cpp **** void Arduino_GFX::fillScreen(uint16_t color) {
 454:c:/Dropbox/AV_SmartWatch/toolchain_v3/src\driver_display.cpp ****   fillRect(0, 0, _width, _height, color);
 455:c:/Dropbox/AV_SmartWatch/toolchain_v3/src\driver_display.cpp **** }
 456:c:/Dropbox/AV_SmartWatch/toolchain_v3/src\driver_display.cpp **** 
 457:c:/Dropbox/AV_SmartWatch/toolchain_v3/src\driver_display.cpp **** // draw a rounded rectangle!
 458:c:/Dropbox/AV_SmartWatch/toolchain_v3/src\driver_display.cpp **** void Arduino_GFX::drawRoundRect(int16_t x, int16_t y, int16_t w,
 459:c:/Dropbox/AV_SmartWatch/toolchain_v3/src\driver_display.cpp ****   int16_t h, int16_t r, uint16_t color) {
 460:c:/Dropbox/AV_SmartWatch/toolchain_v3/src\driver_display.cpp ****   // smarter version
 461:c:/Dropbox/AV_SmartWatch/toolchain_v3/src\driver_display.cpp ****   drawFastHLine(x+r  , y    , w-2*r, color); // Top
 462:c:/Dropbox/AV_SmartWatch/toolchain_v3/src\driver_display.cpp ****   drawFastHLine(x+r  , y+h-1, w-2*r, color); // Bottom
 463:c:/Dropbox/AV_SmartWatch/toolchain_v3/src\driver_display.cpp ****   drawFastVLine(  x    , y+r  , h-2*r, color); // Left
 464:c:/Dropbox/AV_SmartWatch/toolchain_v3/src\driver_display.cpp ****   drawFastVLine(  x+w-1, y+r  , h-2*r, color); // Right
 465:c:/Dropbox/AV_SmartWatch/toolchain_v3/src\driver_display.cpp ****   // draw four corners
 466:c:/Dropbox/AV_SmartWatch/toolchain_v3/src\driver_display.cpp ****   drawCircleHelper(x+r    , y+r    , r, 1, color);
 467:c:/Dropbox/AV_SmartWatch/toolchain_v3/src\driver_display.cpp ****   drawCircleHelper(x+w-r-1, y+r    , r, 2, color);
 468:c:/Dropbox/AV_SmartWatch/toolchain_v3/src\driver_display.cpp ****   drawCircleHelper(x+w-r-1, y+h-r-1, r, 4, color);
 469:c:/Dropbox/AV_SmartWatch/toolchain_v3/src\driver_display.cpp ****   drawCircleHelper(x+r    , y+h-r-1, r, 8, color);
 470:c:/Dropbox/AV_SmartWatch/toolchain_v3/src\driver_display.cpp **** }
 471:c:/Dropbox/AV_SmartWatch/toolchain_v3/src\driver_display.cpp **** 
 472:c:/Dropbox/AV_SmartWatch/toolchain_v3/src\driver_display.cpp **** // fill a rounded rectangle!
 473:c:/Dropbox/AV_SmartWatch/toolchain_v3/src\driver_display.cpp **** void Arduino_GFX::fillRoundRect(int16_t x, int16_t y, int16_t w,
 474:c:/Dropbox/AV_SmartWatch/toolchain_v3/src\driver_display.cpp **** 				 int16_t h, int16_t r, uint16_t color) {
 475:c:/Dropbox/AV_SmartWatch/toolchain_v3/src\driver_display.cpp ****   // smarter version
 476:c:/Dropbox/AV_SmartWatch/toolchain_v3/src\driver_display.cpp ****   fillRect(x+r, y, w-2*r, h, color);
 477:c:/Dropbox/AV_SmartWatch/toolchain_v3/src\driver_display.cpp **** 
 478:c:/Dropbox/AV_SmartWatch/toolchain_v3/src\driver_display.cpp ****   // draw four corners
 479:c:/Dropbox/AV_SmartWatch/toolchain_v3/src\driver_display.cpp ****   fillCircleHelper(x+w-r-1, y+r, r, 1, h-2*r-1, color);
 480:c:/Dropbox/AV_SmartWatch/toolchain_v3/src\driver_display.cpp ****   fillCircleHelper(x+r    , y+r, r, 2, h-2*r-1, color);
 481:c:/Dropbox/AV_SmartWatch/toolchain_v3/src\driver_display.cpp **** }
 482:c:/Dropbox/AV_SmartWatch/toolchain_v3/src\driver_display.cpp **** 
 483:c:/Dropbox/AV_SmartWatch/toolchain_v3/src\driver_display.cpp **** // draw a triangle!
 484:c:/Dropbox/AV_SmartWatch/toolchain_v3/src\driver_display.cpp **** void Arduino_GFX::drawTriangle(int16_t x0, int16_t y0,
 485:c:/Dropbox/AV_SmartWatch/toolchain_v3/src\driver_display.cpp **** 				int16_t x1, int16_t y1, 
 486:c:/Dropbox/AV_SmartWatch/toolchain_v3/src\driver_display.cpp **** 				int16_t x2, int16_t y2, uint16_t color) {
 487:c:/Dropbox/AV_SmartWatch/toolchain_v3/src\driver_display.cpp ****   drawLine(x0, y0, x1, y1, color);
 488:c:/Dropbox/AV_SmartWatch/toolchain_v3/src\driver_display.cpp ****   drawLine(x1, y1, x2, y2, color);
 489:c:/Dropbox/AV_SmartWatch/toolchain_v3/src\driver_display.cpp ****   drawLine(x2, y2, x0, y0, color);
 490:c:/Dropbox/AV_SmartWatch/toolchain_v3/src\driver_display.cpp **** }
 491:c:/Dropbox/AV_SmartWatch/toolchain_v3/src\driver_display.cpp **** 
 492:c:/Dropbox/AV_SmartWatch/toolchain_v3/src\driver_display.cpp **** // fill a triangle!
 493:c:/Dropbox/AV_SmartWatch/toolchain_v3/src\driver_display.cpp **** void Arduino_GFX::fillTriangle ( int16_t x0, int16_t y0,
 494:c:/Dropbox/AV_SmartWatch/toolchain_v3/src\driver_display.cpp **** 				  int16_t x1, int16_t y1, 
 495:c:/Dropbox/AV_SmartWatch/toolchain_v3/src\driver_display.cpp **** 				  int16_t x2, int16_t y2, uint16_t color) {
 496:c:/Dropbox/AV_SmartWatch/toolchain_v3/src\driver_display.cpp **** 
 497:c:/Dropbox/AV_SmartWatch/toolchain_v3/src\driver_display.cpp ****   int16_t a, b, y, last;
 498:c:/Dropbox/AV_SmartWatch/toolchain_v3/src\driver_display.cpp **** 
 499:c:/Dropbox/AV_SmartWatch/toolchain_v3/src\driver_display.cpp ****   // Sort coordinates by Y order (y2 >= y1 >= y0)
 500:c:/Dropbox/AV_SmartWatch/toolchain_v3/src\driver_display.cpp ****   if (y0 > y1) {
 501:c:/Dropbox/AV_SmartWatch/toolchain_v3/src\driver_display.cpp ****     swap(y0, y1); swap(x0, x1);
 502:c:/Dropbox/AV_SmartWatch/toolchain_v3/src\driver_display.cpp ****   }
 503:c:/Dropbox/AV_SmartWatch/toolchain_v3/src\driver_display.cpp ****   if (y1 > y2) {
 504:c:/Dropbox/AV_SmartWatch/toolchain_v3/src\driver_display.cpp ****     swap(y2, y1); swap(x2, x1);
 505:c:/Dropbox/AV_SmartWatch/toolchain_v3/src\driver_display.cpp ****   }
 506:c:/Dropbox/AV_SmartWatch/toolchain_v3/src\driver_display.cpp ****   if (y0 > y1) {
 507:c:/Dropbox/AV_SmartWatch/toolchain_v3/src\driver_display.cpp ****     swap(y0, y1); swap(x0, x1);
 508:c:/Dropbox/AV_SmartWatch/toolchain_v3/src\driver_display.cpp ****   }
 509:c:/Dropbox/AV_SmartWatch/toolchain_v3/src\driver_display.cpp **** 
 510:c:/Dropbox/AV_SmartWatch/toolchain_v3/src\driver_display.cpp ****   if(y0 == y2) { // Handle awkward all-on-same-line case as its own thing
 511:c:/Dropbox/AV_SmartWatch/toolchain_v3/src\driver_display.cpp ****     a = b = x0;
 512:c:/Dropbox/AV_SmartWatch/toolchain_v3/src\driver_display.cpp ****     if(x1 < a)      a = x1;
 513:c:/Dropbox/AV_SmartWatch/toolchain_v3/src\driver_display.cpp ****     else if(x1 > b) b = x1;
 514:c:/Dropbox/AV_SmartWatch/toolchain_v3/src\driver_display.cpp ****     if(x2 < a)      a = x2;
 515:c:/Dropbox/AV_SmartWatch/toolchain_v3/src\driver_display.cpp ****     else if(x2 > b) b = x2;
 516:c:/Dropbox/AV_SmartWatch/toolchain_v3/src\driver_display.cpp ****     drawFastHLine(a, y0, b-a+1, color);
 517:c:/Dropbox/AV_SmartWatch/toolchain_v3/src\driver_display.cpp ****     return;
 518:c:/Dropbox/AV_SmartWatch/toolchain_v3/src\driver_display.cpp ****   }
 519:c:/Dropbox/AV_SmartWatch/toolchain_v3/src\driver_display.cpp **** 
 520:c:/Dropbox/AV_SmartWatch/toolchain_v3/src\driver_display.cpp ****   int16_t
 521:c:/Dropbox/AV_SmartWatch/toolchain_v3/src\driver_display.cpp ****     dx01 = x1 - x0,
 522:c:/Dropbox/AV_SmartWatch/toolchain_v3/src\driver_display.cpp ****     dy01 = y1 - y0,
 523:c:/Dropbox/AV_SmartWatch/toolchain_v3/src\driver_display.cpp ****     dx02 = x2 - x0,
 524:c:/Dropbox/AV_SmartWatch/toolchain_v3/src\driver_display.cpp ****     dy02 = y2 - y0,
 525:c:/Dropbox/AV_SmartWatch/toolchain_v3/src\driver_display.cpp ****     dx12 = x2 - x1,
 526:c:/Dropbox/AV_SmartWatch/toolchain_v3/src\driver_display.cpp ****     dy12 = y2 - y1,
 527:c:/Dropbox/AV_SmartWatch/toolchain_v3/src\driver_display.cpp ****     sa   = 0,
 528:c:/Dropbox/AV_SmartWatch/toolchain_v3/src\driver_display.cpp ****     sb   = 0;
 529:c:/Dropbox/AV_SmartWatch/toolchain_v3/src\driver_display.cpp **** 
 530:c:/Dropbox/AV_SmartWatch/toolchain_v3/src\driver_display.cpp ****   // For upper part of triangle, find scanline crossings for segments
 531:c:/Dropbox/AV_SmartWatch/toolchain_v3/src\driver_display.cpp ****   // 0-1 and 0-2.  If y1=y2 (flat-bottomed triangle), the scanline y1
 532:c:/Dropbox/AV_SmartWatch/toolchain_v3/src\driver_display.cpp ****   // is included here (and second loop will be skipped, avoiding a /0
 533:c:/Dropbox/AV_SmartWatch/toolchain_v3/src\driver_display.cpp ****   // error there), otherwise scanline y1 is skipped here and handled
 534:c:/Dropbox/AV_SmartWatch/toolchain_v3/src\driver_display.cpp ****   // in the second loop...which also avoids a /0 error here if y0=y1
 535:c:/Dropbox/AV_SmartWatch/toolchain_v3/src\driver_display.cpp ****   // (flat-topped triangle).
 536:c:/Dropbox/AV_SmartWatch/toolchain_v3/src\driver_display.cpp ****   if(y1 == y2) last = y1;   // Include y1 scanline
 537:c:/Dropbox/AV_SmartWatch/toolchain_v3/src\driver_display.cpp ****   else         last = y1-1; // Skip it
 538:c:/Dropbox/AV_SmartWatch/toolchain_v3/src\driver_display.cpp **** 
 539:c:/Dropbox/AV_SmartWatch/toolchain_v3/src\driver_display.cpp ****   for(y=y0; y<=last; y++) {
 540:c:/Dropbox/AV_SmartWatch/toolchain_v3/src\driver_display.cpp ****     a   = x0 + sa / dy01;
 541:c:/Dropbox/AV_SmartWatch/toolchain_v3/src\driver_display.cpp ****     b   = x0 + sb / dy02;
 542:c:/Dropbox/AV_SmartWatch/toolchain_v3/src\driver_display.cpp ****     sa += dx01;
 543:c:/Dropbox/AV_SmartWatch/toolchain_v3/src\driver_display.cpp ****     sb += dx02;
 544:c:/Dropbox/AV_SmartWatch/toolchain_v3/src\driver_display.cpp ****     if(a > b) swap(a,b);
 545:c:/Dropbox/AV_SmartWatch/toolchain_v3/src\driver_display.cpp ****     drawFastHLine(a, y, b-a+1, color);
 546:c:/Dropbox/AV_SmartWatch/toolchain_v3/src\driver_display.cpp ****   }
 547:c:/Dropbox/AV_SmartWatch/toolchain_v3/src\driver_display.cpp **** 
 548:c:/Dropbox/AV_SmartWatch/toolchain_v3/src\driver_display.cpp ****   // For lower part of triangle, find scanline crossings for segments
 549:c:/Dropbox/AV_SmartWatch/toolchain_v3/src\driver_display.cpp ****   // 0-2 and 1-2.  This loop is skipped if y1=y2.
 550:c:/Dropbox/AV_SmartWatch/toolchain_v3/src\driver_display.cpp ****   sa = dx12 * (y - y1);
 551:c:/Dropbox/AV_SmartWatch/toolchain_v3/src\driver_display.cpp ****   sb = dx02 * (y - y0);
 552:c:/Dropbox/AV_SmartWatch/toolchain_v3/src\driver_display.cpp ****   for(; y<=y2; y++) {
 553:c:/Dropbox/AV_SmartWatch/toolchain_v3/src\driver_display.cpp ****     a   = x1 + sa / dy12;
 554:c:/Dropbox/AV_SmartWatch/toolchain_v3/src\driver_display.cpp ****     b   = x0 + sb / dy02;
 555:c:/Dropbox/AV_SmartWatch/toolchain_v3/src\driver_display.cpp ****     sa += dx12;
 556:c:/Dropbox/AV_SmartWatch/toolchain_v3/src\driver_display.cpp ****     sb += dx02;
 557:c:/Dropbox/AV_SmartWatch/toolchain_v3/src\driver_display.cpp ****     if(a > b) swap(a,b);
 558:c:/Dropbox/AV_SmartWatch/toolchain_v3/src\driver_display.cpp ****     drawFastHLine(a, y, b-a+1, color);
 559:c:/Dropbox/AV_SmartWatch/toolchain_v3/src\driver_display.cpp ****   }
 560:c:/Dropbox/AV_SmartWatch/toolchain_v3/src\driver_display.cpp **** }
 561:c:/Dropbox/AV_SmartWatch/toolchain_v3/src\driver_display.cpp **** 
 562:c:/Dropbox/AV_SmartWatch/toolchain_v3/src\driver_display.cpp **** void Arduino_GFX::drawBitmap(int16_t x, int16_t y, 
 563:c:/Dropbox/AV_SmartWatch/toolchain_v3/src\driver_display.cpp **** 			      const uint8_t *bitmap, int16_t w, int16_t h,
 564:c:/Dropbox/AV_SmartWatch/toolchain_v3/src\driver_display.cpp **** 			      uint16_t color) {
 565:c:/Dropbox/AV_SmartWatch/toolchain_v3/src\driver_display.cpp ****   for (int16_t j=0; j<h; j++) {
 566:c:/Dropbox/AV_SmartWatch/toolchain_v3/src\driver_display.cpp ****     for (int16_t i=0; i<w; i++ ) {
 567:c:/Dropbox/AV_SmartWatch/toolchain_v3/src\driver_display.cpp **** //      if (pgm_read_byte(bitmap + i + (j/8)*w) & _BV(j%8)) {
 568:c:/Dropbox/AV_SmartWatch/toolchain_v3/src\driver_display.cpp ****       if ((*bitmap + i + (j/8)*w) & (1<<(j%8))) {
 569:c:/Dropbox/AV_SmartWatch/toolchain_v3/src\driver_display.cpp **** 	drawPixel(x+i, y+j, color);
 570:c:/Dropbox/AV_SmartWatch/toolchain_v3/src\driver_display.cpp ****       }
 571:c:/Dropbox/AV_SmartWatch/toolchain_v3/src\driver_display.cpp ****     }
 572:c:/Dropbox/AV_SmartWatch/toolchain_v3/src\driver_display.cpp ****   }
 573:c:/Dropbox/AV_SmartWatch/toolchain_v3/src\driver_display.cpp **** }
 574:c:/Dropbox/AV_SmartWatch/toolchain_v3/src\driver_display.cpp **** 
 575:c:/Dropbox/AV_SmartWatch/toolchain_v3/src\driver_display.cpp **** 
 576:c:/Dropbox/AV_SmartWatch/toolchain_v3/src\driver_display.cpp **** uint32_t Arduino_GFX::write(uint8_t c) {
 577:c:/Dropbox/AV_SmartWatch/toolchain_v3/src\driver_display.cpp ****   
 578:c:/Dropbox/AV_SmartWatch/toolchain_v3/src\driver_display.cpp ****   if (c == '\n') {
 579:c:/Dropbox/AV_SmartWatch/toolchain_v3/src\driver_display.cpp ****     cursor_y += textsize*8;
 580:c:/Dropbox/AV_SmartWatch/toolchain_v3/src\driver_display.cpp ****     cursor_x = 0;
 581:c:/Dropbox/AV_SmartWatch/toolchain_v3/src\driver_display.cpp ****   } else if (c == '\r') {
 582:c:/Dropbox/AV_SmartWatch/toolchain_v3/src\driver_display.cpp ****     // skip em
 583:c:/Dropbox/AV_SmartWatch/toolchain_v3/src\driver_display.cpp ****   } else {
 584:c:/Dropbox/AV_SmartWatch/toolchain_v3/src\driver_display.cpp ****     drawChar(cursor_x, cursor_y, c, textcolor, textbgcolor, textsize);
 585:c:/Dropbox/AV_SmartWatch/toolchain_v3/src\driver_display.cpp ****     cursor_x += textsize*6;
 586:c:/Dropbox/AV_SmartWatch/toolchain_v3/src\driver_display.cpp ****     if (wrap && (cursor_x > (_width - textsize*6))) {
 587:c:/Dropbox/AV_SmartWatch/toolchain_v3/src\driver_display.cpp ****       cursor_y += textsize*8;
 588:c:/Dropbox/AV_SmartWatch/toolchain_v3/src\driver_display.cpp ****       cursor_x = 0;
 589:c:/Dropbox/AV_SmartWatch/toolchain_v3/src\driver_display.cpp ****     }
 590:c:/Dropbox/AV_SmartWatch/toolchain_v3/src\driver_display.cpp ****   }
 591:c:/Dropbox/AV_SmartWatch/toolchain_v3/src\driver_display.cpp ****   return 1;
 592:c:/Dropbox/AV_SmartWatch/toolchain_v3/src\driver_display.cpp **** }
 593:c:/Dropbox/AV_SmartWatch/toolchain_v3/src\driver_display.cpp **** 
 594:c:/Dropbox/AV_SmartWatch/toolchain_v3/src\driver_display.cpp **** void Arduino_GFX::print(char *str) {
 595:c:/Dropbox/AV_SmartWatch/toolchain_v3/src\driver_display.cpp ****   while(*str != 0x00) write((uint8_t)*(str++));
 596:c:/Dropbox/AV_SmartWatch/toolchain_v3/src\driver_display.cpp **** }
 597:c:/Dropbox/AV_SmartWatch/toolchain_v3/src\driver_display.cpp **** 
 598:c:/Dropbox/AV_SmartWatch/toolchain_v3/src\driver_display.cpp **** void Arduino_GFX::println(char *str) {
 599:c:/Dropbox/AV_SmartWatch/toolchain_v3/src\driver_display.cpp ****   print(str);
 600:c:/Dropbox/AV_SmartWatch/toolchain_v3/src\driver_display.cpp ****   cursor_y += textsize*8;
 601:c:/Dropbox/AV_SmartWatch/toolchain_v3/src\driver_display.cpp ****   cursor_x = 0;
 602:c:/Dropbox/AV_SmartWatch/toolchain_v3/src\driver_display.cpp **** }
 603:c:/Dropbox/AV_SmartWatch/toolchain_v3/src\driver_display.cpp **** 
 604:c:/Dropbox/AV_SmartWatch/toolchain_v3/src\driver_display.cpp **** // draw a character
 605:c:/Dropbox/AV_SmartWatch/toolchain_v3/src\driver_display.cpp **** void Arduino_GFX::drawChar(int16_t x, int16_t y, unsigned char c,
 606:c:/Dropbox/AV_SmartWatch/toolchain_v3/src\driver_display.cpp **** 			    uint16_t color, uint16_t bg, uint8_t size) {
 607:c:/Dropbox/AV_SmartWatch/toolchain_v3/src\driver_display.cpp **** 
 608:c:/Dropbox/AV_SmartWatch/toolchain_v3/src\driver_display.cpp ****   if((x >= _width)            || // Clip right
 609:c:/Dropbox/AV_SmartWatch/toolchain_v3/src\driver_display.cpp ****      (y >= _height)           || // Clip bottom
 610:c:/Dropbox/AV_SmartWatch/toolchain_v3/src\driver_display.cpp ****      ((x + 5 * size - 1) < 0) || // Clip left
 611:c:/Dropbox/AV_SmartWatch/toolchain_v3/src\driver_display.cpp ****      ((y + 8 * size - 1) < 0))   // Clip top
 612:c:/Dropbox/AV_SmartWatch/toolchain_v3/src\driver_display.cpp ****     return;
 613:c:/Dropbox/AV_SmartWatch/toolchain_v3/src\driver_display.cpp **** 
 614:c:/Dropbox/AV_SmartWatch/toolchain_v3/src\driver_display.cpp ****     
 615:c:/Dropbox/AV_SmartWatch/toolchain_v3/src\driver_display.cpp ****   for (int8_t i=0; i<6; i++ ) {
 616:c:/Dropbox/AV_SmartWatch/toolchain_v3/src\driver_display.cpp ****     uint8_t line;
 617:c:/Dropbox/AV_SmartWatch/toolchain_v3/src\driver_display.cpp ****     if (i == 5) 
 618:c:/Dropbox/AV_SmartWatch/toolchain_v3/src\driver_display.cpp ****       line = 0x0;
 619:c:/Dropbox/AV_SmartWatch/toolchain_v3/src\driver_display.cpp ****     else 
 620:c:/Dropbox/AV_SmartWatch/toolchain_v3/src\driver_display.cpp ****       line = font[(c*5)+i];
 621:c:/Dropbox/AV_SmartWatch/toolchain_v3/src\driver_display.cpp **** //      line = pgm_read_byte(font+(c*5)+i);
 622:c:/Dropbox/AV_SmartWatch/toolchain_v3/src\driver_display.cpp ****     for (int8_t j = 0; j<8; j++) {
 623:c:/Dropbox/AV_SmartWatch/toolchain_v3/src\driver_display.cpp ****       if (line & 0x1) {
 624:c:/Dropbox/AV_SmartWatch/toolchain_v3/src\driver_display.cpp ****         if (size == 1) // default size
 625:c:/Dropbox/AV_SmartWatch/toolchain_v3/src\driver_display.cpp ****           drawPixel(x+i, y+j, color);
 626:c:/Dropbox/AV_SmartWatch/toolchain_v3/src\driver_display.cpp ****         else {  // big size
 627:c:/Dropbox/AV_SmartWatch/toolchain_v3/src\driver_display.cpp ****           fillRect(x+(i*size), y+(j*size), size, size, color);
 628:c:/Dropbox/AV_SmartWatch/toolchain_v3/src\driver_display.cpp ****         } 
 629:c:/Dropbox/AV_SmartWatch/toolchain_v3/src\driver_display.cpp ****       } else if (bg != color) {
 630:c:/Dropbox/AV_SmartWatch/toolchain_v3/src\driver_display.cpp ****         if (size == 1) // default size
 631:c:/Dropbox/AV_SmartWatch/toolchain_v3/src\driver_display.cpp ****           drawPixel(x+i, y+j, bg);
 632:c:/Dropbox/AV_SmartWatch/toolchain_v3/src\driver_display.cpp ****         else {  // big size
 633:c:/Dropbox/AV_SmartWatch/toolchain_v3/src\driver_display.cpp ****           fillRect(x+i*size, y+j*size, size, size, bg);
 634:c:/Dropbox/AV_SmartWatch/toolchain_v3/src\driver_display.cpp ****         } 	
 635:c:/Dropbox/AV_SmartWatch/toolchain_v3/src\driver_display.cpp ****       }
 636:c:/Dropbox/AV_SmartWatch/toolchain_v3/src\driver_display.cpp ****       line >>= 1;
 637:c:/Dropbox/AV_SmartWatch/toolchain_v3/src\driver_display.cpp ****     }
 638:c:/Dropbox/AV_SmartWatch/toolchain_v3/src\driver_display.cpp ****   }
 639:c:/Dropbox/AV_SmartWatch/toolchain_v3/src\driver_display.cpp **** }
 640:c:/Dropbox/AV_SmartWatch/toolchain_v3/src\driver_display.cpp **** 
 641:c:/Dropbox/AV_SmartWatch/toolchain_v3/src\driver_display.cpp **** void Arduino_GFX::setCursor(int16_t x, int16_t y) {
 642:c:/Dropbox/AV_SmartWatch/toolchain_v3/src\driver_display.cpp ****   cursor_x = x;
 643:c:/Dropbox/AV_SmartWatch/toolchain_v3/src\driver_display.cpp ****   cursor_y = y;
 644:c:/Dropbox/AV_SmartWatch/toolchain_v3/src\driver_display.cpp **** }
 645:c:/Dropbox/AV_SmartWatch/toolchain_v3/src\driver_display.cpp **** 
 646:c:/Dropbox/AV_SmartWatch/toolchain_v3/src\driver_display.cpp **** 
 647:c:/Dropbox/AV_SmartWatch/toolchain_v3/src\driver_display.cpp **** void Arduino_GFX::setTextSize(uint8_t s) {
 648:c:/Dropbox/AV_SmartWatch/toolchain_v3/src\driver_display.cpp ****   textsize = (s > 0) ? s : 1;
 649:c:/Dropbox/AV_SmartWatch/toolchain_v3/src\driver_display.cpp **** }
 650:c:/Dropbox/AV_SmartWatch/toolchain_v3/src\driver_display.cpp **** 
 651:c:/Dropbox/AV_SmartWatch/toolchain_v3/src\driver_display.cpp **** 
 652:c:/Dropbox/AV_SmartWatch/toolchain_v3/src\driver_display.cpp **** void Arduino_GFX::setTextColor(uint16_t c) {
 653:c:/Dropbox/AV_SmartWatch/toolchain_v3/src\driver_display.cpp ****   textcolor = c;
 654:c:/Dropbox/AV_SmartWatch/toolchain_v3/src\driver_display.cpp ****   textbgcolor = c; 
 655:c:/Dropbox/AV_SmartWatch/toolchain_v3/src\driver_display.cpp ****   // for 'transparent' background, we'll set the bg 
 656:c:/Dropbox/AV_SmartWatch/toolchain_v3/src\driver_display.cpp ****   // to the same as fg instead of using a flag
 657:c:/Dropbox/AV_SmartWatch/toolchain_v3/src\driver_display.cpp **** }
 658:c:/Dropbox/AV_SmartWatch/toolchain_v3/src\driver_display.cpp **** 
 659:c:/Dropbox/AV_SmartWatch/toolchain_v3/src\driver_display.cpp ****  void Arduino_GFX::setTextColor(uint16_t c, uint16_t b) {
 660:c:/Dropbox/AV_SmartWatch/toolchain_v3/src\driver_display.cpp ****    textcolor = c;
 661:c:/Dropbox/AV_SmartWatch/toolchain_v3/src\driver_display.cpp ****    textbgcolor = b; 
 662:c:/Dropbox/AV_SmartWatch/toolchain_v3/src\driver_display.cpp ****  }
 663:c:/Dropbox/AV_SmartWatch/toolchain_v3/src\driver_display.cpp **** 
 664:c:/Dropbox/AV_SmartWatch/toolchain_v3/src\driver_display.cpp **** void Arduino_GFX::setTextWrap(bool w) {
 665:c:/Dropbox/AV_SmartWatch/toolchain_v3/src\driver_display.cpp ****   wrap = w;
 666:c:/Dropbox/AV_SmartWatch/toolchain_v3/src\driver_display.cpp **** }
 667:c:/Dropbox/AV_SmartWatch/toolchain_v3/src\driver_display.cpp **** 
 668:c:/Dropbox/AV_SmartWatch/toolchain_v3/src\driver_display.cpp **** // return the size of the display which depends on the rotation!
 669:c:/Dropbox/AV_SmartWatch/toolchain_v3/src\driver_display.cpp **** int16_t Arduino_GFX::width(void) { 
 670:c:/Dropbox/AV_SmartWatch/toolchain_v3/src\driver_display.cpp ****   return _width; 
 671:c:/Dropbox/AV_SmartWatch/toolchain_v3/src\driver_display.cpp **** }
 672:c:/Dropbox/AV_SmartWatch/toolchain_v3/src\driver_display.cpp ****  
 673:c:/Dropbox/AV_SmartWatch/toolchain_v3/src\driver_display.cpp **** int16_t Arduino_GFX::height(void) { 
 674:c:/Dropbox/AV_SmartWatch/toolchain_v3/src\driver_display.cpp ****   return _height; 
 675:c:/Dropbox/AV_SmartWatch/toolchain_v3/src\driver_display.cpp **** }
 676:c:/Dropbox/AV_SmartWatch/toolchain_v3/src\driver_display.cpp **** 
 677:c:/Dropbox/AV_SmartWatch/toolchain_v3/src\driver_display.cpp **** Arduino_OLED::Arduino_OLED() {
 678:c:/Dropbox/AV_SmartWatch/toolchain_v3/src\driver_display.cpp ****   _width = WIDTH = 128;
 679:c:/Dropbox/AV_SmartWatch/toolchain_v3/src\driver_display.cpp ****   _height = HEIGHT = 128;
 680:c:/Dropbox/AV_SmartWatch/toolchain_v3/src\driver_display.cpp **** 
 681:c:/Dropbox/AV_SmartWatch/toolchain_v3/src\driver_display.cpp ****   cursor_y = cursor_x = 0;
 682:c:/Dropbox/AV_SmartWatch/toolchain_v3/src\driver_display.cpp ****   textsize = 1;
 683:c:/Dropbox/AV_SmartWatch/toolchain_v3/src\driver_display.cpp ****   textcolor = textbgcolor = 0xFFFF;
 684:c:/Dropbox/AV_SmartWatch/toolchain_v3/src\driver_display.cpp ****   wrap = true;
 685:c:/Dropbox/AV_SmartWatch/toolchain_v3/src\driver_display.cpp **** }
 686:c:/Dropbox/AV_SmartWatch/toolchain_v3/src\driver_display.cpp **** 
 687:c:/Dropbox/AV_SmartWatch/toolchain_v3/src\driver_display.cpp **** void Arduino_OLED::begin() {
 688:c:/Dropbox/AV_SmartWatch/toolchain_v3/src\driver_display.cpp ****   oled_init();
 689:c:/Dropbox/AV_SmartWatch/toolchain_v3/src\driver_display.cpp **** }
 690:c:/Dropbox/AV_SmartWatch/toolchain_v3/src\driver_display.cpp **** 
 691:c:/Dropbox/AV_SmartWatch/toolchain_v3/src\driver_display.cpp **** void Arduino_OLED::shutdown() {
 692:c:/Dropbox/AV_SmartWatch/toolchain_v3/src\driver_display.cpp ****   oled_deinit();
 693:c:/Dropbox/AV_SmartWatch/toolchain_v3/src\driver_display.cpp **** }
 694:c:/Dropbox/AV_SmartWatch/toolchain_v3/src\driver_display.cpp **** 
 695:c:/Dropbox/AV_SmartWatch/toolchain_v3/src\driver_display.cpp **** void Arduino_OLED::setPower(uint8_t power) {
 696:c:/Dropbox/AV_SmartWatch/toolchain_v3/src\driver_display.cpp ****   oled_power(power);
 697:c:/Dropbox/AV_SmartWatch/toolchain_v3/src\driver_display.cpp **** }
 698:c:/Dropbox/AV_SmartWatch/toolchain_v3/src\driver_display.cpp **** 
 699:c:/Dropbox/AV_SmartWatch/toolchain_v3/src\driver_display.cpp **** void Arduino_OLED::setAddrWindow(uint8_t x0, uint8_t y0, uint8_t x1, uint8_t y1) {
 700:c:/Dropbox/AV_SmartWatch/toolchain_v3/src\driver_display.cpp ****   oled_window(x0, y0, x1, y1);
 701:c:/Dropbox/AV_SmartWatch/toolchain_v3/src\driver_display.cpp **** }
 702:c:/Dropbox/AV_SmartWatch/toolchain_v3/src\driver_display.cpp **** 
 703:c:/Dropbox/AV_SmartWatch/toolchain_v3/src\driver_display.cpp **** void Arduino_OLED::pushColor(uint16_t color) {
 704:c:/Dropbox/AV_SmartWatch/toolchain_v3/src\driver_display.cpp ****   oled_push(color, 1);
 705:c:/Dropbox/AV_SmartWatch/toolchain_v3/src\driver_display.cpp **** }
 706:c:/Dropbox/AV_SmartWatch/toolchain_v3/src\driver_display.cpp **** 
 707:c:/Dropbox/AV_SmartWatch/toolchain_v3/src\driver_display.cpp **** void Arduino_OLED::fillScreen(uint16_t color) {
 708:c:/Dropbox/AV_SmartWatch/toolchain_v3/src\driver_display.cpp ****   oled_window(0, 0, 0x7F, 0x7F); 
 709:c:/Dropbox/AV_SmartWatch/toolchain_v3/src\driver_display.cpp ****   oled_push(color, 128 * 128);
 710:c:/Dropbox/AV_SmartWatch/toolchain_v3/src\driver_display.cpp **** }
 711:c:/Dropbox/AV_SmartWatch/toolchain_v3/src\driver_display.cpp **** 
 712:c:/Dropbox/AV_SmartWatch/toolchain_v3/src\driver_display.cpp **** void Arduino_OLED::drawPixel(int16_t x, int16_t y, uint16_t color) {
 713:c:/Dropbox/AV_SmartWatch/toolchain_v3/src\driver_display.cpp ****   oled_window(x, y, x, y);
 714:c:/Dropbox/AV_SmartWatch/toolchain_v3/src\driver_display.cpp ****   oled_push(color, 1);
 715:c:/Dropbox/AV_SmartWatch/toolchain_v3/src\driver_display.cpp **** }
 716:c:/Dropbox/AV_SmartWatch/toolchain_v3/src\driver_display.cpp **** 
 717:c:/Dropbox/AV_SmartWatch/toolchain_v3/src\driver_display.cpp **** void Arduino_OLED::drawFastVLine(int16_t x, int16_t y, int16_t h, uint16_t color) {
 718:c:/Dropbox/AV_SmartWatch/toolchain_v3/src\driver_display.cpp ****   oled_window(x, y, x, y + h - 1);
 719:c:/Dropbox/AV_SmartWatch/toolchain_v3/src\driver_display.cpp ****   oled_push(color, h);
 720:c:/Dropbox/AV_SmartWatch/toolchain_v3/src\driver_display.cpp **** }
 721:c:/Dropbox/AV_SmartWatch/toolchain_v3/src\driver_display.cpp **** 
 722:c:/Dropbox/AV_SmartWatch/toolchain_v3/src\driver_display.cpp **** void Arduino_OLED::drawFastHLine(int16_t x, int16_t y, int16_t w, uint16_t color) {
 723:c:/Dropbox/AV_SmartWatch/toolchain_v3/src\driver_display.cpp ****   oled_window(x, y, x + w - 1, y);
 724:c:/Dropbox/AV_SmartWatch/toolchain_v3/src\driver_display.cpp ****   oled_push(color, w);
 725:c:/Dropbox/AV_SmartWatch/toolchain_v3/src\driver_display.cpp **** }
 726:c:/Dropbox/AV_SmartWatch/toolchain_v3/src\driver_display.cpp **** 
 727:c:/Dropbox/AV_SmartWatch/toolchain_v3/src\driver_display.cpp **** void Arduino_OLED::fillRect(int16_t x, int16_t y, int16_t w, int16_t h, uint16_t color) {
  27              		.loc 1 727 0
  28              		.cfi_startproc
  29              		@ args = 8, pretend = 0, frame = 0
  30              		@ frame_needed = 0, uses_anonymous_args = 0
  31              	.LVL0:
  32 0000 70B5     		push	{r4, r5, r6, lr}
  33              	.LCFI0:
  34              		.cfi_def_cfa_offset 16
  35              		.cfi_offset 4, -16
  36              		.cfi_offset 5, -12
  37              		.cfi_offset 6, -8
  38              		.cfi_offset 14, -4
 728:c:/Dropbox/AV_SmartWatch/toolchain_v3/src\driver_display.cpp ****   oled_window(x, y, x + w - 1, y + h - 1);
  39              		.loc 1 728 0
  40 0002 C8B2     		uxtb	r0, r1
  41              	.LVL1:
 727:c:/Dropbox/AV_SmartWatch/toolchain_v3/src\driver_display.cpp **** void Arduino_OLED::fillRect(int16_t x, int16_t y, int16_t w, int16_t h, uint16_t color) {
  42              		.loc 1 727 0
  43 0004 BDF91040 		ldrsh	r4, [sp, #16]
  44              		.loc 1 728 0
  45 0008 D1B2     		uxtb	r1, r2
  46              	.LVL2:
  47 000a 421E     		subs	r2, r0, #1
  48              	.LVL3:
 727:c:/Dropbox/AV_SmartWatch/toolchain_v3/src\driver_display.cpp **** void Arduino_OLED::fillRect(int16_t x, int16_t y, int16_t w, int16_t h, uint16_t color) {
  49              		.loc 1 727 0
  50 000c 1D46     		mov	r5, r3
  51              		.loc 1 728 0
  52 000e D218     		adds	r2, r2, r3
  53 0010 4B1E     		subs	r3, r1, #1
  54              	.LVL4:
  55 0012 1B19     		adds	r3, r3, r4
  56 0014 D2B2     		uxtb	r2, r2
  57 0016 DBB2     		uxtb	r3, r3
 727:c:/Dropbox/AV_SmartWatch/toolchain_v3/src\driver_display.cpp **** void Arduino_OLED::fillRect(int16_t x, int16_t y, int16_t w, int16_t h, uint16_t color) {
  58              		.loc 1 727 0
  59 0018 BDF81460 		ldrh	r6, [sp, #20]
  60              		.loc 1 728 0
  61 001c FFF7FEFF 		bl	oled_window
  62              	.LVL5:
 729:c:/Dropbox/AV_SmartWatch/toolchain_v3/src\driver_display.cpp ****   oled_push(color, w * h);
  63              		.loc 1 729 0
  64 0020 05FB04F1 		mul	r1, r5, r4
  65 0024 3046     		mov	r0, r6
  66 0026 89B2     		uxth	r1, r1
 730:c:/Dropbox/AV_SmartWatch/toolchain_v3/src\driver_display.cpp **** }
  67              		.loc 1 730 0
  68 0028 BDE87040 		pop	{r4, r5, r6, lr}
 729:c:/Dropbox/AV_SmartWatch/toolchain_v3/src\driver_display.cpp ****   oled_push(color, w * h);
  69              		.loc 1 729 0
  70 002c FFF7FEBF 		b	oled_push
  71              	.LVL6:
  72              		.cfi_endproc
  73              	.LFE100:
  75              		.section	.text._ZN12Arduino_OLED13drawFastHLineEssst,"ax",%progbits
  76              		.align	1
  77              		.global	_ZN12Arduino_OLED13drawFastHLineEssst
  78              		.thumb
  79              		.thumb_func
  81              	_ZN12Arduino_OLED13drawFastHLineEssst:
  82              	.LFB99:
 722:c:/Dropbox/AV_SmartWatch/toolchain_v3/src\driver_display.cpp **** void Arduino_OLED::drawFastHLine(int16_t x, int16_t y, int16_t w, uint16_t color) {
  83              		.loc 1 722 0
  84              		.cfi_startproc
  85              		@ args = 4, pretend = 0, frame = 0
  86              		@ frame_needed = 0, uses_anonymous_args = 0
  87              	.LVL7:
  88 0000 38B5     		push	{r3, r4, r5, lr}
  89              	.LCFI1:
  90              		.cfi_def_cfa_offset 16
  91              		.cfi_offset 3, -16
  92              		.cfi_offset 4, -12
  93              		.cfi_offset 5, -8
  94              		.cfi_offset 14, -4
 723:c:/Dropbox/AV_SmartWatch/toolchain_v3/src\driver_display.cpp ****   oled_window(x, y, x + w - 1, y);
  95              		.loc 1 723 0
  96 0002 C8B2     		uxtb	r0, r1
  97              	.LVL8:
  98 0004 D1B2     		uxtb	r1, r2
  99              	.LVL9:
 100 0006 421E     		subs	r2, r0, #1
 101              	.LVL10:
 722:c:/Dropbox/AV_SmartWatch/toolchain_v3/src\driver_display.cpp **** void Arduino_OLED::drawFastHLine(int16_t x, int16_t y, int16_t w, uint16_t color) {
 102              		.loc 1 722 0
 103 0008 1C46     		mov	r4, r3
 723:c:/Dropbox/AV_SmartWatch/toolchain_v3/src\driver_display.cpp ****   oled_window(x, y, x + w - 1, y);
 104              		.loc 1 723 0
 105 000a D318     		adds	r3, r2, r3
 106              	.LVL11:
 107 000c DAB2     		uxtb	r2, r3
 108 000e 0B46     		mov	r3, r1
 722:c:/Dropbox/AV_SmartWatch/toolchain_v3/src\driver_display.cpp **** void Arduino_OLED::drawFastHLine(int16_t x, int16_t y, int16_t w, uint16_t color) {
 109              		.loc 1 722 0
 110 0010 BDF81050 		ldrh	r5, [sp, #16]
 723:c:/Dropbox/AV_SmartWatch/toolchain_v3/src\driver_display.cpp ****   oled_window(x, y, x + w - 1, y);
 111              		.loc 1 723 0
 112 0014 FFF7FEFF 		bl	oled_window
 113              	.LVL12:
 724:c:/Dropbox/AV_SmartWatch/toolchain_v3/src\driver_display.cpp ****   oled_push(color, w);
 114              		.loc 1 724 0
 115 0018 2846     		mov	r0, r5
 116 001a A1B2     		uxth	r1, r4
 725:c:/Dropbox/AV_SmartWatch/toolchain_v3/src\driver_display.cpp **** }
 117              		.loc 1 725 0
 118 001c BDE83840 		pop	{r3, r4, r5, lr}
 724:c:/Dropbox/AV_SmartWatch/toolchain_v3/src\driver_display.cpp ****   oled_push(color, w);
 119              		.loc 1 724 0
 120 0020 FFF7FEBF 		b	oled_push
 121              	.LVL13:
 122              		.cfi_endproc
 123              	.LFE99:
 125              		.section	.text._ZN12Arduino_OLED13drawFastVLineEssst,"ax",%progbits
 126              		.align	1
 127              		.global	_ZN12Arduino_OLED13drawFastVLineEssst
 128              		.thumb
 129              		.thumb_func
 131              	_ZN12Arduino_OLED13drawFastVLineEssst:
 132              	.LFB98:
 717:c:/Dropbox/AV_SmartWatch/toolchain_v3/src\driver_display.cpp **** void Arduino_OLED::drawFastVLine(int16_t x, int16_t y, int16_t h, uint16_t color) {
 133              		.loc 1 717 0
 134              		.cfi_startproc
 135              		@ args = 4, pretend = 0, frame = 0
 136              		@ frame_needed = 0, uses_anonymous_args = 0
 137              	.LVL14:
 138 0000 38B5     		push	{r3, r4, r5, lr}
 139              	.LCFI2:
 140              		.cfi_def_cfa_offset 16
 141              		.cfi_offset 3, -16
 142              		.cfi_offset 4, -12
 143              		.cfi_offset 5, -8
 144              		.cfi_offset 14, -4
 718:c:/Dropbox/AV_SmartWatch/toolchain_v3/src\driver_display.cpp ****   oled_window(x, y, x, y + h - 1);
 145              		.loc 1 718 0
 146 0002 C8B2     		uxtb	r0, r1
 147              	.LVL15:
 148 0004 D1B2     		uxtb	r1, r2
 149              	.LVL16:
 717:c:/Dropbox/AV_SmartWatch/toolchain_v3/src\driver_display.cpp **** void Arduino_OLED::drawFastVLine(int16_t x, int16_t y, int16_t h, uint16_t color) {
 150              		.loc 1 717 0
 151 0006 1C46     		mov	r4, r3
 718:c:/Dropbox/AV_SmartWatch/toolchain_v3/src\driver_display.cpp ****   oled_window(x, y, x, y + h - 1);
 152              		.loc 1 718 0
 153 0008 4B1E     		subs	r3, r1, #1
 154              	.LVL17:
 155 000a 1B19     		adds	r3, r3, r4
 156 000c 0246     		mov	r2, r0
 157              	.LVL18:
 158 000e DBB2     		uxtb	r3, r3
 717:c:/Dropbox/AV_SmartWatch/toolchain_v3/src\driver_display.cpp **** void Arduino_OLED::drawFastVLine(int16_t x, int16_t y, int16_t h, uint16_t color) {
 159              		.loc 1 717 0
 160 0010 BDF81050 		ldrh	r5, [sp, #16]
 718:c:/Dropbox/AV_SmartWatch/toolchain_v3/src\driver_display.cpp ****   oled_window(x, y, x, y + h - 1);
 161              		.loc 1 718 0
 162 0014 FFF7FEFF 		bl	oled_window
 163              	.LVL19:
 719:c:/Dropbox/AV_SmartWatch/toolchain_v3/src\driver_display.cpp ****   oled_push(color, h);
 164              		.loc 1 719 0
 165 0018 2846     		mov	r0, r5
 166 001a A1B2     		uxth	r1, r4
 720:c:/Dropbox/AV_SmartWatch/toolchain_v3/src\driver_display.cpp **** }
 167              		.loc 1 720 0
 168 001c BDE83840 		pop	{r3, r4, r5, lr}
 719:c:/Dropbox/AV_SmartWatch/toolchain_v3/src\driver_display.cpp ****   oled_push(color, h);
 169              		.loc 1 719 0
 170 0020 FFF7FEBF 		b	oled_push
 171              	.LVL20:
 172              		.cfi_endproc
 173              	.LFE98:
 175              		.section	.text._ZN12Arduino_OLED9drawPixelEsst,"ax",%progbits
 176              		.align	1
 177              		.global	_ZN12Arduino_OLED9drawPixelEsst
 178              		.thumb
 179              		.thumb_func
 181              	_ZN12Arduino_OLED9drawPixelEsst:
 182              	.LFB97:
 712:c:/Dropbox/AV_SmartWatch/toolchain_v3/src\driver_display.cpp **** void Arduino_OLED::drawPixel(int16_t x, int16_t y, uint16_t color) {
 183              		.loc 1 712 0
 184              		.cfi_startproc
 185              		@ args = 0, pretend = 0, frame = 0
 186              		@ frame_needed = 0, uses_anonymous_args = 0
 187              	.LVL21:
 713:c:/Dropbox/AV_SmartWatch/toolchain_v3/src\driver_display.cpp ****   oled_window(x, y, x, y);
 188              		.loc 1 713 0
 189 0000 C8B2     		uxtb	r0, r1
 190              	.LVL22:
 191 0002 D1B2     		uxtb	r1, r2
 192              	.LVL23:
 712:c:/Dropbox/AV_SmartWatch/toolchain_v3/src\driver_display.cpp **** void Arduino_OLED::drawPixel(int16_t x, int16_t y, uint16_t color) {
 193              		.loc 1 712 0
 194 0004 10B5     		push	{r4, lr}
 195              	.LCFI3:
 196              		.cfi_def_cfa_offset 8
 197              		.cfi_offset 4, -8
 198              		.cfi_offset 14, -4
 713:c:/Dropbox/AV_SmartWatch/toolchain_v3/src\driver_display.cpp ****   oled_window(x, y, x, y);
 199              		.loc 1 713 0
 200 0006 0246     		mov	r2, r0
 201              	.LVL24:
 712:c:/Dropbox/AV_SmartWatch/toolchain_v3/src\driver_display.cpp **** void Arduino_OLED::drawPixel(int16_t x, int16_t y, uint16_t color) {
 202              		.loc 1 712 0
 203 0008 1C46     		mov	r4, r3
 713:c:/Dropbox/AV_SmartWatch/toolchain_v3/src\driver_display.cpp ****   oled_window(x, y, x, y);
 204              		.loc 1 713 0
 205 000a 0B46     		mov	r3, r1
 206              	.LVL25:
 207 000c FFF7FEFF 		bl	oled_window
 208              	.LVL26:
 714:c:/Dropbox/AV_SmartWatch/toolchain_v3/src\driver_display.cpp ****   oled_push(color, 1);
 209              		.loc 1 714 0
 210 0010 2046     		mov	r0, r4
 211 0012 0121     		movs	r1, #1
 715:c:/Dropbox/AV_SmartWatch/toolchain_v3/src\driver_display.cpp **** }
 212              		.loc 1 715 0
 213 0014 BDE81040 		pop	{r4, lr}
 714:c:/Dropbox/AV_SmartWatch/toolchain_v3/src\driver_display.cpp ****   oled_push(color, 1);
 214              		.loc 1 714 0
 215 0018 FFF7FEBF 		b	oled_push
 216              	.LVL27:
 217              		.cfi_endproc
 218              	.LFE97:
 220              		.section	.text._ZN12Arduino_OLED10fillScreenEt,"ax",%progbits
 221              		.align	1
 222              		.global	_ZN12Arduino_OLED10fillScreenEt
 223              		.thumb
 224              		.thumb_func
 226              	_ZN12Arduino_OLED10fillScreenEt:
 227              	.LFB96:
 707:c:/Dropbox/AV_SmartWatch/toolchain_v3/src\driver_display.cpp **** void Arduino_OLED::fillScreen(uint16_t color) {
 228              		.loc 1 707 0
 229              		.cfi_startproc
 230              		@ args = 0, pretend = 0, frame = 0
 231              		@ frame_needed = 0, uses_anonymous_args = 0
 232              	.LVL28:
 708:c:/Dropbox/AV_SmartWatch/toolchain_v3/src\driver_display.cpp ****   oled_window(0, 0, 0x7F, 0x7F); 
 233              		.loc 1 708 0
 234 0000 0020     		movs	r0, #0
 235              	.LVL29:
 236 0002 7F22     		movs	r2, #127
 707:c:/Dropbox/AV_SmartWatch/toolchain_v3/src\driver_display.cpp **** void Arduino_OLED::fillScreen(uint16_t color) {
 237              		.loc 1 707 0
 238 0004 10B5     		push	{r4, lr}
 239              	.LCFI4:
 240              		.cfi_def_cfa_offset 8
 241              		.cfi_offset 4, -8
 242              		.cfi_offset 14, -4
 708:c:/Dropbox/AV_SmartWatch/toolchain_v3/src\driver_display.cpp ****   oled_window(0, 0, 0x7F, 0x7F); 
 243              		.loc 1 708 0
 244 0006 1346     		mov	r3, r2
 707:c:/Dropbox/AV_SmartWatch/toolchain_v3/src\driver_display.cpp **** void Arduino_OLED::fillScreen(uint16_t color) {
 245              		.loc 1 707 0
 246 0008 0C46     		mov	r4, r1
 708:c:/Dropbox/AV_SmartWatch/toolchain_v3/src\driver_display.cpp ****   oled_window(0, 0, 0x7F, 0x7F); 
 247              		.loc 1 708 0
 248 000a 0146     		mov	r1, r0
 249              	.LVL30:
 250 000c FFF7FEFF 		bl	oled_window
 251              	.LVL31:
 709:c:/Dropbox/AV_SmartWatch/toolchain_v3/src\driver_display.cpp ****   oled_push(color, 128 * 128);
 252              		.loc 1 709 0
 253 0010 2046     		mov	r0, r4
 254 0012 4FF48041 		mov	r1, #16384
 710:c:/Dropbox/AV_SmartWatch/toolchain_v3/src\driver_display.cpp **** }
 255              		.loc 1 710 0
 256 0016 BDE81040 		pop	{r4, lr}
 709:c:/Dropbox/AV_SmartWatch/toolchain_v3/src\driver_display.cpp ****   oled_push(color, 128 * 128);
 257              		.loc 1 709 0
 258 001a FFF7FEBF 		b	oled_push
 259              	.LVL32:
 260              		.cfi_endproc
 261              	.LFE96:
 263              		.section	.text._ZN11Arduino_GFX10drawCircleEssst,"ax",%progbits
 264              		.align	1
 265              		.global	_ZN11Arduino_GFX10drawCircleEssst
 266              		.thumb
 267              		.thumb_func
 269              	_ZN11Arduino_GFX10drawCircleEssst:
 270              	.LFB59:
 269:c:/Dropbox/AV_SmartWatch/toolchain_v3/src\driver_display.cpp **** 			      uint16_t color) {
 271              		.loc 1 269 0
 272              		.cfi_startproc
 273              		@ args = 4, pretend = 0, frame = 24
 274              		@ frame_needed = 0, uses_anonymous_args = 0
 275              	.LVL33:
 276 0000 2DE9F04F 		push	{r4, r5, r6, r7, r8, r9, sl, fp, lr}
 277              	.LCFI5:
 278              		.cfi_def_cfa_offset 36
 279              		.cfi_offset 4, -36
 280              		.cfi_offset 5, -32
 281              		.cfi_offset 6, -28
 282              		.cfi_offset 7, -24
 283              		.cfi_offset 8, -20
 284              		.cfi_offset 9, -16
 285              		.cfi_offset 10, -12
 286              		.cfi_offset 11, -8
 287              		.cfi_offset 14, -4
 288              	.LBB40:
 270:c:/Dropbox/AV_SmartWatch/toolchain_v3/src\driver_display.cpp ****   int16_t f = 1 - r;
 289              		.loc 1 270 0
 290 0004 1FFA83F8 		uxth	r8, r3
 291              	.LBE40:
 269:c:/Dropbox/AV_SmartWatch/toolchain_v3/src\driver_display.cpp **** 			      uint16_t color) {
 292              		.loc 1 269 0
 293 0008 9A46     		mov	sl, r3
 294              	.LBB41:
 272:c:/Dropbox/AV_SmartWatch/toolchain_v3/src\driver_display.cpp ****   int16_t ddF_y = -2 * r;
 295              		.loc 1 272 0
 296 000a 6FF00106 		mvn	r6, #1
 270:c:/Dropbox/AV_SmartWatch/toolchain_v3/src\driver_display.cpp ****   int16_t f = 1 - r;
 297              		.loc 1 270 0
 298 000e C8F10103 		rsb	r3, r8, #1
 299              	.LVL34:
 300              	.LBE41:
 269:c:/Dropbox/AV_SmartWatch/toolchain_v3/src\driver_display.cpp **** 			      uint16_t color) {
 301              		.loc 1 269 0
 302 0012 9146     		mov	r9, r2
 303              	.LBB42:
 270:c:/Dropbox/AV_SmartWatch/toolchain_v3/src\driver_display.cpp ****   int16_t f = 1 - r;
 304              		.loc 1 270 0
 305 0014 9AB2     		uxth	r2, r3
 306              	.LVL35:
 272:c:/Dropbox/AV_SmartWatch/toolchain_v3/src\driver_display.cpp ****   int16_t ddF_y = -2 * r;
 307              		.loc 1 272 0
 308 0016 06FB08F3 		mul	r3, r6, r8
 309              	.LBE42:
 269:c:/Dropbox/AV_SmartWatch/toolchain_v3/src\driver_display.cpp **** 			      uint16_t color) {
 310              		.loc 1 269 0
 311 001a 87B0     		sub	sp, sp, #28
 312              	.LCFI6:
 313              		.cfi_def_cfa_offset 64
 269:c:/Dropbox/AV_SmartWatch/toolchain_v3/src\driver_display.cpp **** 			      uint16_t color) {
 314              		.loc 1 269 0
 315 001c BDF84050 		ldrh	r5, [sp, #64]
 316              	.LBB43:
 270:c:/Dropbox/AV_SmartWatch/toolchain_v3/src\driver_display.cpp ****   int16_t f = 1 - r;
 317              		.loc 1 270 0
 318 0020 0192     		str	r2, [sp, #4]
 319              	.LVL36:
 276:c:/Dropbox/AV_SmartWatch/toolchain_v3/src\driver_display.cpp ****   drawPixel(x0, y0+r, color);
 320              		.loc 1 276 0
 321 0022 1FFA89F6 		uxth	r6, r9
 272:c:/Dropbox/AV_SmartWatch/toolchain_v3/src\driver_display.cpp ****   int16_t ddF_y = -2 * r;
 322              		.loc 1 272 0
 323 0026 9AB2     		uxth	r2, r3
 276:c:/Dropbox/AV_SmartWatch/toolchain_v3/src\driver_display.cpp ****   drawPixel(x0, y0+r, color);
 324              		.loc 1 276 0
 325 0028 0368     		ldr	r3, [r0, #0]
 272:c:/Dropbox/AV_SmartWatch/toolchain_v3/src\driver_display.cpp ****   int16_t ddF_y = -2 * r;
 326              		.loc 1 272 0
 327 002a 0592     		str	r2, [sp, #20]
 328              	.LVL37:
 276:c:/Dropbox/AV_SmartWatch/toolchain_v3/src\driver_display.cpp ****   drawPixel(x0, y0+r, color);
 329              		.loc 1 276 0
 330 002c 08EB0602 		add	r2, r8, r6
 331              	.LBE43:
 269:c:/Dropbox/AV_SmartWatch/toolchain_v3/src\driver_display.cpp **** 			      uint16_t color) {
 332              		.loc 1 269 0
 333 0030 0446     		mov	r4, r0
 334              	.LBB44:
 276:c:/Dropbox/AV_SmartWatch/toolchain_v3/src\driver_display.cpp ****   drawPixel(x0, y0+r, color);
 335              		.loc 1 276 0
 336 0032 D3F800C0 		ldr	ip, [r3, #0]
 337 0036 12B2     		sxth	r2, r2
 338 0038 2B46     		mov	r3, r5
 339              	.LBE44:
 269:c:/Dropbox/AV_SmartWatch/toolchain_v3/src\driver_display.cpp **** 			      uint16_t color) {
 340              		.loc 1 269 0
 341 003a 0F46     		mov	r7, r1
 342              	.LBB45:
 276:c:/Dropbox/AV_SmartWatch/toolchain_v3/src\driver_display.cpp ****   drawPixel(x0, y0+r, color);
 343              		.loc 1 276 0
 344 003c E047     		blx	ip
 345              	.LVL38:
 277:c:/Dropbox/AV_SmartWatch/toolchain_v3/src\driver_display.cpp ****   drawPixel(x0, y0-r, color);
 346              		.loc 1 277 0
 347 003e 2068     		ldr	r0, [r4, #0]
 348 0040 C8EB0603 		rsb	r3, r8, r6
 349 0044 D0F800C0 		ldr	ip, [r0, #0]
 350 0048 3946     		mov	r1, r7
 351 004a 1AB2     		sxth	r2, r3
 352 004c 2046     		mov	r0, r4
 353 004e 2B46     		mov	r3, r5
 354 0050 E047     		blx	ip
 355              	.LVL39:
 278:c:/Dropbox/AV_SmartWatch/toolchain_v3/src\driver_display.cpp ****   drawPixel(x0+r, y0, color);
 356              		.loc 1 278 0
 357 0052 BFB2     		uxth	r7, r7
 358 0054 2268     		ldr	r2, [r4, #0]
 359 0056 08EB0701 		add	r1, r8, r7
 360 005a D2F800C0 		ldr	ip, [r2, #0]
 361 005e 2046     		mov	r0, r4
 362 0060 09B2     		sxth	r1, r1
 363 0062 4A46     		mov	r2, r9
 364 0064 2B46     		mov	r3, r5
 365 0066 E047     		blx	ip
 366              	.LVL40:
 279:c:/Dropbox/AV_SmartWatch/toolchain_v3/src\driver_display.cpp ****   drawPixel(x0-r, y0, color);
 367              		.loc 1 279 0
 368 0068 2068     		ldr	r0, [r4, #0]
 369 006a C8EB0703 		rsb	r3, r8, r7
 370 006e D0F800C0 		ldr	ip, [r0, #0]
 371 0072 19B2     		sxth	r1, r3
 372 0074 4A46     		mov	r2, r9
 373 0076 2046     		mov	r0, r4
 374 0078 2B46     		mov	r3, r5
 375 007a E047     		blx	ip
 376              	.LVL41:
 281:c:/Dropbox/AV_SmartWatch/toolchain_v3/src\driver_display.cpp ****   while (x<y) {
 377              		.loc 1 281 0
 378 007c 0022     		movs	r2, #0
 274:c:/Dropbox/AV_SmartWatch/toolchain_v3/src\driver_display.cpp ****   int16_t y = r;
 379              		.loc 1 274 0
 380 007e CDF808A0 		str	sl, [sp, #8]
 281:c:/Dropbox/AV_SmartWatch/toolchain_v3/src\driver_display.cpp ****   while (x<y) {
 381              		.loc 1 281 0
 382 0082 0492     		str	r2, [sp, #16]
 383              	.LVL42:
 384              	.L7:
 281:c:/Dropbox/AV_SmartWatch/toolchain_v3/src\driver_display.cpp ****   while (x<y) {
 385              		.loc 1 281 0 is_stmt 0 discriminator 1
 386 0084 0499     		ldr	r1, [sp, #16]
 387 0086 029B     		ldr	r3, [sp, #8]
 388 0088 08B2     		sxth	r0, r1
 389 008a 1AB2     		sxth	r2, r3
 390 008c 9042     		cmp	r0, r2
 391 008e 80F28980 		bge	.L11
 392              	.L9:
 282:c:/Dropbox/AV_SmartWatch/toolchain_v3/src\driver_display.cpp ****     if (f >= 0) {
 393              		.loc 1 282 0 is_stmt 1
 394 0092 0199     		ldr	r1, [sp, #4]
 395 0094 0B04     		lsls	r3, r1, #16
 396 0096 0CD4     		bmi	.L8
 283:c:/Dropbox/AV_SmartWatch/toolchain_v3/src\driver_display.cpp ****       y--;
 397              		.loc 1 283 0
 398 0098 0298     		ldr	r0, [sp, #8]
 284:c:/Dropbox/AV_SmartWatch/toolchain_v3/src\driver_display.cpp ****       ddF_y += 2;
 399              		.loc 1 284 0
 400 009a 0599     		ldr	r1, [sp, #20]
 283:c:/Dropbox/AV_SmartWatch/toolchain_v3/src\driver_display.cpp ****       y--;
 401              		.loc 1 283 0
 402 009c 431E     		subs	r3, r0, #1
 284:c:/Dropbox/AV_SmartWatch/toolchain_v3/src\driver_display.cpp ****       ddF_y += 2;
 403              		.loc 1 284 0
 404 009e 881C     		adds	r0, r1, #2
 285:c:/Dropbox/AV_SmartWatch/toolchain_v3/src\driver_display.cpp ****       f += ddF_y;
 405              		.loc 1 285 0
 406 00a0 0199     		ldr	r1, [sp, #4]
 283:c:/Dropbox/AV_SmartWatch/toolchain_v3/src\driver_display.cpp ****       y--;
 407              		.loc 1 283 0
 408 00a2 9AB2     		uxth	r2, r3
 284:c:/Dropbox/AV_SmartWatch/toolchain_v3/src\driver_display.cpp ****       ddF_y += 2;
 409              		.loc 1 284 0
 410 00a4 83B2     		uxth	r3, r0
 285:c:/Dropbox/AV_SmartWatch/toolchain_v3/src\driver_display.cpp ****       f += ddF_y;
 411              		.loc 1 285 0
 412 00a6 5818     		adds	r0, r3, r1
 283:c:/Dropbox/AV_SmartWatch/toolchain_v3/src\driver_display.cpp ****       y--;
 413              		.loc 1 283 0
 414 00a8 0292     		str	r2, [sp, #8]
 284:c:/Dropbox/AV_SmartWatch/toolchain_v3/src\driver_display.cpp ****       ddF_y += 2;
 415              		.loc 1 284 0
 416 00aa 9AB2     		uxth	r2, r3
 285:c:/Dropbox/AV_SmartWatch/toolchain_v3/src\driver_display.cpp ****       f += ddF_y;
 417              		.loc 1 285 0
 418 00ac 83B2     		uxth	r3, r0
 284:c:/Dropbox/AV_SmartWatch/toolchain_v3/src\driver_display.cpp ****       ddF_y += 2;
 419              		.loc 1 284 0
 420 00ae 0592     		str	r2, [sp, #20]
 285:c:/Dropbox/AV_SmartWatch/toolchain_v3/src\driver_display.cpp ****       f += ddF_y;
 421              		.loc 1 285 0
 422 00b0 0193     		str	r3, [sp, #4]
 423              	.L8:
 424              	.LVL43:
 268:c:/Dropbox/AV_SmartWatch/toolchain_v3/src\driver_display.cpp **** void Arduino_GFX::drawCircle(int16_t x0, int16_t y0, int16_t r, 
 425              		.loc 1 268 0
 426 00b2 049A     		ldr	r2, [sp, #16]
 427 00b4 0199     		ldr	r1, [sp, #4]
 428 00b6 1FFA82F8 		uxth	r8, r2
 429              	.LVL44:
 430 00ba 01EB4800 		add	r0, r1, r8, lsl #1
 289:c:/Dropbox/AV_SmartWatch/toolchain_v3/src\driver_display.cpp ****     f += ddF_x;
 431              		.loc 1 289 0
 432 00be C31C     		adds	r3, r0, #3
 291:c:/Dropbox/AV_SmartWatch/toolchain_v3/src\driver_display.cpp ****     drawPixel(x0 + x, y0 + y, color);
 433              		.loc 1 291 0
 434 00c0 0298     		ldr	r0, [sp, #8]
 289:c:/Dropbox/AV_SmartWatch/toolchain_v3/src\driver_display.cpp ****     f += ddF_x;
 435              		.loc 1 289 0
 436 00c2 9AB2     		uxth	r2, r3
 268:c:/Dropbox/AV_SmartWatch/toolchain_v3/src\driver_display.cpp **** void Arduino_GFX::drawCircle(int16_t x0, int16_t y0, int16_t r, 
 437              		.loc 1 268 0
 438 00c4 07F1010B 		add	fp, r7, #1
 291:c:/Dropbox/AV_SmartWatch/toolchain_v3/src\driver_display.cpp ****     drawPixel(x0 + x, y0 + y, color);
 439              		.loc 1 291 0
 440 00c8 83B2     		uxth	r3, r0
 268:c:/Dropbox/AV_SmartWatch/toolchain_v3/src\driver_display.cpp **** void Arduino_GFX::drawCircle(int16_t x0, int16_t y0, int16_t r, 
 441              		.loc 1 268 0
 442 00ca 08EB0B01 		add	r1, r8, fp
 289:c:/Dropbox/AV_SmartWatch/toolchain_v3/src\driver_display.cpp ****     f += ddF_x;
 443              		.loc 1 289 0
 444 00ce 0192     		str	r2, [sp, #4]
 291:c:/Dropbox/AV_SmartWatch/toolchain_v3/src\driver_display.cpp ****     drawPixel(x0 + x, y0 + y, color);
 445              		.loc 1 291 0
 446 00d0 03EB0609 		add	r9, r3, r6
 447 00d4 2268     		ldr	r2, [r4, #0]
 448 00d6 0FFA81FB 		sxth	fp, r1
 449 00da 0FFA89F9 		sxth	r9, r9
 450 00de D2F800A0 		ldr	sl, [r2, #0]
 451 00e2 5946     		mov	r1, fp
 452 00e4 4A46     		mov	r2, r9
 453 00e6 0393     		str	r3, [sp, #12]
 454 00e8 2046     		mov	r0, r4
 455 00ea 2B46     		mov	r3, r5
 456 00ec D047     		blx	sl
 457              	.LVL45:
 268:c:/Dropbox/AV_SmartWatch/toolchain_v3/src\driver_display.cpp **** void Arduino_GFX::drawCircle(int16_t x0, int16_t y0, int16_t r, 
 458              		.loc 1 268 0
 459 00ee 07F1FF31 		add	r1, r7, #-1
 460 00f2 C8EB0100 		rsb	r0, r8, r1
 292:c:/Dropbox/AV_SmartWatch/toolchain_v3/src\driver_display.cpp ****     drawPixel(x0 - x, y0 + y, color);
 461              		.loc 1 292 0
 462 00f6 2368     		ldr	r3, [r4, #0]
 463 00f8 0FFA80FA 		sxth	sl, r0
 464 00fc D3F800C0 		ldr	ip, [r3, #0]
 465 0100 5146     		mov	r1, sl
 466 0102 4A46     		mov	r2, r9
 467 0104 2046     		mov	r0, r4
 468 0106 2B46     		mov	r3, r5
 469 0108 E047     		blx	ip
 470              	.LVL46:
 293:c:/Dropbox/AV_SmartWatch/toolchain_v3/src\driver_display.cpp ****     drawPixel(x0 + x, y0 - y, color);
 471              		.loc 1 293 0
 472 010a 039A     		ldr	r2, [sp, #12]
 473 010c 2168     		ldr	r1, [r4, #0]
 474 010e C2EB0609 		rsb	r9, r2, r6
 475 0112 0FFA89F9 		sxth	r9, r9
 476 0116 D1F800C0 		ldr	ip, [r1, #0]
 477 011a 4A46     		mov	r2, r9
 478 011c 5946     		mov	r1, fp
 479 011e 2046     		mov	r0, r4
 480 0120 2B46     		mov	r3, r5
 481 0122 E047     		blx	ip
 482              	.LVL47:
 294:c:/Dropbox/AV_SmartWatch/toolchain_v3/src\driver_display.cpp ****     drawPixel(x0 - x, y0 - y, color);
 483              		.loc 1 294 0
 484 0124 2068     		ldr	r0, [r4, #0]
 485 0126 5146     		mov	r1, sl
 486 0128 D0F800B0 		ldr	fp, [r0, #0]
 487 012c 4A46     		mov	r2, r9
 488 012e 2046     		mov	r0, r4
 489 0130 2B46     		mov	r3, r5
 490 0132 D847     		blx	fp
 491              	.LVL48:
 295:c:/Dropbox/AV_SmartWatch/toolchain_v3/src\driver_display.cpp ****     drawPixel(x0 + y, y0 + x, color);
 492              		.loc 1 295 0
 493 0134 039B     		ldr	r3, [sp, #12]
 268:c:/Dropbox/AV_SmartWatch/toolchain_v3/src\driver_display.cpp **** void Arduino_GFX::drawCircle(int16_t x0, int16_t y0, int16_t r, 
 494              		.loc 1 268 0
 495 0136 06F10102 		add	r2, r6, #1
 496 013a 08EB0201 		add	r1, r8, r2
 295:c:/Dropbox/AV_SmartWatch/toolchain_v3/src\driver_display.cpp ****     drawPixel(x0 + y, y0 + x, color);
 497              		.loc 1 295 0
 498 013e 2068     		ldr	r0, [r4, #0]
 499 0140 03EB070A 		add	sl, r3, r7
 500 0144 0FFA81FB 		sxth	fp, r1
 501 0148 0FFA8AFA 		sxth	sl, sl
 502 014c D0F80090 		ldr	r9, [r0, #0]
 503 0150 5146     		mov	r1, sl
 504 0152 2046     		mov	r0, r4
 505 0154 5A46     		mov	r2, fp
 506 0156 2B46     		mov	r3, r5
 507 0158 C847     		blx	r9
 508              	.LVL49:
 296:c:/Dropbox/AV_SmartWatch/toolchain_v3/src\driver_display.cpp ****     drawPixel(x0 - y, y0 + x, color);
 509              		.loc 1 296 0
 510 015a 039B     		ldr	r3, [sp, #12]
 511 015c 2168     		ldr	r1, [r4, #0]
 512 015e FA1A     		subs	r2, r7, r3
 513 0160 0FFA82F9 		sxth	r9, r2
 514 0164 D1F800C0 		ldr	ip, [r1, #0]
 515 0168 2046     		mov	r0, r4
 516 016a 4946     		mov	r1, r9
 517 016c 5A46     		mov	r2, fp
 518 016e 2B46     		mov	r3, r5
 519 0170 E047     		blx	ip
 520              	.LVL50:
 268:c:/Dropbox/AV_SmartWatch/toolchain_v3/src\driver_display.cpp **** void Arduino_GFX::drawCircle(int16_t x0, int16_t y0, int16_t r, 
 521              		.loc 1 268 0
 522 0172 701E     		subs	r0, r6, #1
 297:c:/Dropbox/AV_SmartWatch/toolchain_v3/src\driver_display.cpp ****     drawPixel(x0 + y, y0 - x, color);
 523              		.loc 1 297 0
 524 0174 2368     		ldr	r3, [r4, #0]
 268:c:/Dropbox/AV_SmartWatch/toolchain_v3/src\driver_display.cpp **** void Arduino_GFX::drawCircle(int16_t x0, int16_t y0, int16_t r, 
 525              		.loc 1 268 0
 526 0176 C8EB0008 		rsb	r8, r8, r0
 527              	.LVL51:
 297:c:/Dropbox/AV_SmartWatch/toolchain_v3/src\driver_display.cpp ****     drawPixel(x0 + y, y0 - x, color);
 528              		.loc 1 297 0
 529 017a 0FFA88F8 		sxth	r8, r8
 530 017e D3F800C0 		ldr	ip, [r3, #0]
 531 0182 2046     		mov	r0, r4
 532 0184 5146     		mov	r1, sl
 533 0186 4246     		mov	r2, r8
 534 0188 2B46     		mov	r3, r5
 535 018a E047     		blx	ip
 536              	.LVL52:
 298:c:/Dropbox/AV_SmartWatch/toolchain_v3/src\driver_display.cpp ****     drawPixel(x0 - y, y0 - x, color);
 537              		.loc 1 298 0
 538 018c 2268     		ldr	r2, [r4, #0]
 539 018e 2046     		mov	r0, r4
 540 0190 D2F800C0 		ldr	ip, [r2, #0]
 541 0194 4946     		mov	r1, r9
 542 0196 4246     		mov	r2, r8
 543 0198 2B46     		mov	r3, r5
 544 019a E047     		blx	ip
 545              	.LVL53:
 546 019c 0499     		ldr	r1, [sp, #16]
 547 019e 481C     		adds	r0, r1, #1
 548 01a0 0490     		str	r0, [sp, #16]
 549 01a2 6FE7     		b	.L7
 550              	.LVL54:
 551              	.L11:
 552              	.LBE45:
 301:c:/Dropbox/AV_SmartWatch/toolchain_v3/src\driver_display.cpp **** }
 553              		.loc 1 301 0
 554 01a4 07B0     		add	sp, sp, #28
 555 01a6 BDE8F08F 		pop	{r4, r5, r6, r7, r8, r9, sl, fp, pc}
 556              		.cfi_endproc
 557              	.LFE59:
 559              		.section	.text._ZN11Arduino_GFX16drawCircleHelperEsssht,"ax",%progbits
 560              		.align	1
 561              		.global	_ZN11Arduino_GFX16drawCircleHelperEsssht
 562              		.thumb
 563              		.thumb_func
 565              	_ZN11Arduino_GFX16drawCircleHelperEsssht:
 566              	.LFB60:
 304:c:/Dropbox/AV_SmartWatch/toolchain_v3/src\driver_display.cpp ****                int16_t r, uint8_t cornername, uint16_t color) {
 567              		.loc 1 304 0
 568              		.cfi_startproc
 569              		@ args = 8, pretend = 0, frame = 24
 570              		@ frame_needed = 0, uses_anonymous_args = 0
 571              	.LVL55:
 572 0000 2DE9F04F 		push	{r4, r5, r6, r7, r8, r9, sl, fp, lr}
 573              	.LCFI7:
 574              		.cfi_def_cfa_offset 36
 575              		.cfi_offset 4, -36
 576              		.cfi_offset 5, -32
 577              		.cfi_offset 6, -28
 578              		.cfi_offset 7, -24
 579              		.cfi_offset 8, -20
 580              		.cfi_offset 9, -16
 581              		.cfi_offset 10, -12
 582              		.cfi_offset 11, -8
 583              		.cfi_offset 14, -4
 584 0004 87B0     		sub	sp, sp, #28
 585              	.LCFI8:
 586              		.cfi_def_cfa_offset 64
 304:c:/Dropbox/AV_SmartWatch/toolchain_v3/src\driver_display.cpp ****                int16_t r, uint8_t cornername, uint16_t color) {
 587              		.loc 1 304 0
 588 0006 0446     		mov	r4, r0
 589 0008 0291     		str	r1, [sp, #8]
 590              	.LBB46:
 305:c:/Dropbox/AV_SmartWatch/toolchain_v3/src\driver_display.cpp ****   int16_t f     = 1 - r;
 591              		.loc 1 305 0
 592 000a 98B2     		uxth	r0, r3
 593              	.LVL56:
 307:c:/Dropbox/AV_SmartWatch/toolchain_v3/src\driver_display.cpp ****   int16_t ddF_y = -2 * r;
 594              		.loc 1 307 0
 595 000c 6FF00101 		mvn	r1, #1
 596              	.LVL57:
 305:c:/Dropbox/AV_SmartWatch/toolchain_v3/src\driver_display.cpp ****   int16_t f     = 1 - r;
 597              		.loc 1 305 0
 598 0010 C0F10108 		rsb	r8, r0, #1
 307:c:/Dropbox/AV_SmartWatch/toolchain_v3/src\driver_display.cpp ****   int16_t ddF_y = -2 * r;
 599              		.loc 1 307 0
 600 0014 4843     		muls	r0, r1, r0
 601              	.LBE46:
 304:c:/Dropbox/AV_SmartWatch/toolchain_v3/src\driver_display.cpp ****                int16_t r, uint8_t cornername, uint16_t color) {
 602              		.loc 1 304 0
 603 0016 0392     		str	r2, [sp, #12]
 604              	.LBB47:
 307:c:/Dropbox/AV_SmartWatch/toolchain_v3/src\driver_display.cpp ****   int16_t ddF_y = -2 * r;
 605              		.loc 1 307 0
 606 0018 87B2     		uxth	r7, r0
 607              	.LBE47:
 304:c:/Dropbox/AV_SmartWatch/toolchain_v3/src\driver_display.cpp ****                int16_t r, uint8_t cornername, uint16_t color) {
 608              		.loc 1 304 0
 609 001a 9DF84020 		ldrb	r2, [sp, #64]	@ zero_extendqisi2
 610              	.LVL58:
 611              	.LBB48:
 307:c:/Dropbox/AV_SmartWatch/toolchain_v3/src\driver_display.cpp ****   int16_t ddF_y = -2 * r;
 612              		.loc 1 307 0
 613 001e 0597     		str	r7, [sp, #20]
 614              	.LBE48:
 304:c:/Dropbox/AV_SmartWatch/toolchain_v3/src\driver_display.cpp ****                int16_t r, uint8_t cornername, uint16_t color) {
 615              		.loc 1 304 0
 616 0020 BDF84460 		ldrh	r6, [sp, #68]
 617              	.LBB49:
 309:c:/Dropbox/AV_SmartWatch/toolchain_v3/src\driver_display.cpp ****   int16_t y     = r;
 618              		.loc 1 309 0
 619 0024 1F46     		mov	r7, r3
 311:c:/Dropbox/AV_SmartWatch/toolchain_v3/src\driver_display.cpp ****   while (x<y) {
 620              		.loc 1 311 0
 621 0026 0023     		movs	r3, #0
 622              	.LVL59:
 623              	.LBE49:
 304:c:/Dropbox/AV_SmartWatch/toolchain_v3/src\driver_display.cpp ****                int16_t r, uint8_t cornername, uint16_t color) {
 624              		.loc 1 304 0
 625 0028 0492     		str	r2, [sp, #16]
 626              	.LBB50:
 305:c:/Dropbox/AV_SmartWatch/toolchain_v3/src\driver_display.cpp ****   int16_t f     = 1 - r;
 627              		.loc 1 305 0
 628 002a 1FFA88F8 		uxth	r8, r8
 629              	.LVL60:
 311:c:/Dropbox/AV_SmartWatch/toolchain_v3/src\driver_display.cpp ****   while (x<y) {
 630              		.loc 1 311 0
 631 002e 0193     		str	r3, [sp, #4]
 632              	.LVL61:
 633              	.L13:
 311:c:/Dropbox/AV_SmartWatch/toolchain_v3/src\driver_display.cpp ****   while (x<y) {
 634              		.loc 1 311 0 is_stmt 0 discriminator 1
 635 0030 019A     		ldr	r2, [sp, #4]
 636 0032 39B2     		sxth	r1, r7
 637 0034 10B2     		sxth	r0, r2
 638 0036 8842     		cmp	r0, r1
 639 0038 80F2B780 		bge	.L32
 640              	.L19:
 312:c:/Dropbox/AV_SmartWatch/toolchain_v3/src\driver_display.cpp ****     if (f >= 0) {
 641              		.loc 1 312 0 is_stmt 1
 642 003c 18F4004F 		tst	r8, #32768
 643 0040 0AD1     		bne	.L14
 314:c:/Dropbox/AV_SmartWatch/toolchain_v3/src\driver_display.cpp ****       ddF_y += 2;
 644              		.loc 1 314 0
 645 0042 059B     		ldr	r3, [sp, #20]
 313:c:/Dropbox/AV_SmartWatch/toolchain_v3/src\driver_display.cpp ****       y--;
 646              		.loc 1 313 0
 647 0044 7D1E     		subs	r5, r7, #1
 314:c:/Dropbox/AV_SmartWatch/toolchain_v3/src\driver_display.cpp ****       ddF_y += 2;
 648              		.loc 1 314 0
 649 0046 9A1C     		adds	r2, r3, #2
 650 0048 90B2     		uxth	r0, r2
 651 004a 81B2     		uxth	r1, r0
 315:c:/Dropbox/AV_SmartWatch/toolchain_v3/src\driver_display.cpp ****       f     += ddF_y;
 652              		.loc 1 315 0
 653 004c 00EB080C 		add	ip, r0, r8
 313:c:/Dropbox/AV_SmartWatch/toolchain_v3/src\driver_display.cpp ****       y--;
 654              		.loc 1 313 0
 655 0050 AFB2     		uxth	r7, r5
 656              	.LVL62:
 314:c:/Dropbox/AV_SmartWatch/toolchain_v3/src\driver_display.cpp ****       ddF_y += 2;
 657              		.loc 1 314 0
 658 0052 0591     		str	r1, [sp, #20]
 315:c:/Dropbox/AV_SmartWatch/toolchain_v3/src\driver_display.cpp ****       f     += ddF_y;
 659              		.loc 1 315 0
 660 0054 1FFA8CF8 		uxth	r8, ip
 661              	.LVL63:
 662              	.L14:
 303:c:/Dropbox/AV_SmartWatch/toolchain_v3/src\driver_display.cpp **** void Arduino_GFX::drawCircleHelper( int16_t x0, int16_t y0,
 663              		.loc 1 303 0
 664 0058 019D     		ldr	r5, [sp, #4]
 320:c:/Dropbox/AV_SmartWatch/toolchain_v3/src\driver_display.cpp ****     if (cornername & 0x4) {
 665              		.loc 1 320 0
 666 005a 049A     		ldr	r2, [sp, #16]
 303:c:/Dropbox/AV_SmartWatch/toolchain_v3/src\driver_display.cpp **** void Arduino_GFX::drawCircleHelper( int16_t x0, int16_t y0,
 667              		.loc 1 303 0
 668 005c ADB2     		uxth	r5, r5
 669              	.LVL64:
 670 005e 08EB4508 		add	r8, r8, r5, lsl #1
 671              	.LVL65:
 320:c:/Dropbox/AV_SmartWatch/toolchain_v3/src\driver_display.cpp ****     if (cornername & 0x4) {
 672              		.loc 1 320 0
 673 0062 02F00400 		and	r0, r2, #4
 319:c:/Dropbox/AV_SmartWatch/toolchain_v3/src\driver_display.cpp ****     f     += ddF_x;
 674              		.loc 1 319 0
 675 0066 08F10303 		add	r3, r8, #3
 320:c:/Dropbox/AV_SmartWatch/toolchain_v3/src\driver_display.cpp ****     if (cornername & 0x4) {
 676              		.loc 1 320 0
 677 006a C1B2     		uxtb	r1, r0
 319:c:/Dropbox/AV_SmartWatch/toolchain_v3/src\driver_display.cpp ****     f     += ddF_x;
 678              		.loc 1 319 0
 679 006c 1FFA83F8 		uxth	r8, r3
 680              	.LVL66:
 320:c:/Dropbox/AV_SmartWatch/toolchain_v3/src\driver_display.cpp ****     if (cornername & 0x4) {
 681              		.loc 1 320 0
 682 0070 11B3     		cbz	r1, .L15
 321:c:/Dropbox/AV_SmartWatch/toolchain_v3/src\driver_display.cpp ****       drawPixel(x0 + x, y0 + y, color);
 683              		.loc 1 321 0
 684 0072 029B     		ldr	r3, [sp, #8]
 685              	.LVL67:
 686 0074 039A     		ldr	r2, [sp, #12]
 687 0076 1FFA83FA 		uxth	sl, r3
 688 007a 2068     		ldr	r0, [r4, #0]
 689 007c 1FFA82F9 		uxth	r9, r2
 690 0080 1FFA87FB 		uxth	fp, r7
 303:c:/Dropbox/AV_SmartWatch/toolchain_v3/src\driver_display.cpp **** void Arduino_GFX::drawCircleHelper( int16_t x0, int16_t y0,
 691              		.loc 1 303 0
 692 0084 0AF10101 		add	r1, sl, #1
 693 0088 6B18     		adds	r3, r5, r1
 321:c:/Dropbox/AV_SmartWatch/toolchain_v3/src\driver_display.cpp ****       drawPixel(x0 + x, y0 + y, color);
 694              		.loc 1 321 0
 695 008a 0BEB0902 		add	r2, fp, r9
 696 008e D0F800C0 		ldr	ip, [r0, #0]
 697 0092 19B2     		sxth	r1, r3
 698 0094 2046     		mov	r0, r4
 699 0096 12B2     		sxth	r2, r2
 700 0098 3346     		mov	r3, r6
 701 009a E047     		blx	ip
 702              	.LVL68:
 303:c:/Dropbox/AV_SmartWatch/toolchain_v3/src\driver_display.cpp **** void Arduino_GFX::drawCircleHelper( int16_t x0, int16_t y0,
 703              		.loc 1 303 0
 704 009c 09F10109 		add	r9, r9, #1
 322:c:/Dropbox/AV_SmartWatch/toolchain_v3/src\driver_display.cpp ****       drawPixel(x0 + y, y0 + x, color);
 705              		.loc 1 322 0
 706 00a0 2068     		ldr	r0, [r4, #0]
 303:c:/Dropbox/AV_SmartWatch/toolchain_v3/src\driver_display.cpp **** void Arduino_GFX::drawCircleHelper( int16_t x0, int16_t y0,
 707              		.loc 1 303 0
 708 00a2 05EB0903 		add	r3, r5, r9
 322:c:/Dropbox/AV_SmartWatch/toolchain_v3/src\driver_display.cpp ****       drawPixel(x0 + y, y0 + x, color);
 709              		.loc 1 322 0
 710 00a6 0BEB0A01 		add	r1, fp, sl
 711 00aa D0F800C0 		ldr	ip, [r0, #0]
 712 00ae 1AB2     		sxth	r2, r3
 713 00b0 2046     		mov	r0, r4
 714 00b2 09B2     		sxth	r1, r1
 715 00b4 3346     		mov	r3, r6
 716 00b6 E047     		blx	ip
 717              	.LVL69:
 718              	.L15:
 324:c:/Dropbox/AV_SmartWatch/toolchain_v3/src\driver_display.cpp ****     if (cornername & 0x2) {
 719              		.loc 1 324 0
 720 00b8 049A     		ldr	r2, [sp, #16]
 721 00ba 02F00200 		and	r0, r2, #2
 722 00be C1B2     		uxtb	r1, r0
 723 00c0 11B3     		cbz	r1, .L16
 325:c:/Dropbox/AV_SmartWatch/toolchain_v3/src\driver_display.cpp ****       drawPixel(x0 + x, y0 - y, color);
 724              		.loc 1 325 0
 725 00c2 029B     		ldr	r3, [sp, #8]
 726 00c4 039A     		ldr	r2, [sp, #12]
 727 00c6 1FFA83FA 		uxth	sl, r3
 728 00ca 2068     		ldr	r0, [r4, #0]
 729 00cc 1FFA82F9 		uxth	r9, r2
 730 00d0 1FFA87FB 		uxth	fp, r7
 303:c:/Dropbox/AV_SmartWatch/toolchain_v3/src\driver_display.cpp **** void Arduino_GFX::drawCircleHelper( int16_t x0, int16_t y0,
 731              		.loc 1 303 0
 732 00d4 0AF10101 		add	r1, sl, #1
 733 00d8 6B18     		adds	r3, r5, r1
 325:c:/Dropbox/AV_SmartWatch/toolchain_v3/src\driver_display.cpp ****       drawPixel(x0 + x, y0 - y, color);
 734              		.loc 1 325 0
 735 00da CBEB0902 		rsb	r2, fp, r9
 736 00de D0F800C0 		ldr	ip, [r0, #0]
 737 00e2 19B2     		sxth	r1, r3
 738 00e4 2046     		mov	r0, r4
 739 00e6 12B2     		sxth	r2, r2
 740 00e8 3346     		mov	r3, r6
 741 00ea E047     		blx	ip
 742              	.LVL70:
 303:c:/Dropbox/AV_SmartWatch/toolchain_v3/src\driver_display.cpp **** void Arduino_GFX::drawCircleHelper( int16_t x0, int16_t y0,
 743              		.loc 1 303 0
 744 00ec 09F1FF39 		add	r9, r9, #-1
 326:c:/Dropbox/AV_SmartWatch/toolchain_v3/src\driver_display.cpp ****       drawPixel(x0 + y, y0 - x, color);
 745              		.loc 1 326 0
 746 00f0 2068     		ldr	r0, [r4, #0]
 303:c:/Dropbox/AV_SmartWatch/toolchain_v3/src\driver_display.cpp **** void Arduino_GFX::drawCircleHelper( int16_t x0, int16_t y0,
 747              		.loc 1 303 0
 748 00f2 C5EB0903 		rsb	r3, r5, r9
 326:c:/Dropbox/AV_SmartWatch/toolchain_v3/src\driver_display.cpp ****       drawPixel(x0 + y, y0 - x, color);
 749              		.loc 1 326 0
 750 00f6 0BEB0A01 		add	r1, fp, sl
 751 00fa D0F800C0 		ldr	ip, [r0, #0]
 752 00fe 1AB2     		sxth	r2, r3
 753 0100 2046     		mov	r0, r4
 754 0102 09B2     		sxth	r1, r1
 755 0104 3346     		mov	r3, r6
 756 0106 E047     		blx	ip
 757              	.LVL71:
 758              	.L16:
 328:c:/Dropbox/AV_SmartWatch/toolchain_v3/src\driver_display.cpp ****     if (cornername & 0x8) {
 759              		.loc 1 328 0
 760 0108 049A     		ldr	r2, [sp, #16]
 761 010a 02F00800 		and	r0, r2, #8
 762 010e C1B2     		uxtb	r1, r0
 763 0110 11B3     		cbz	r1, .L17
 329:c:/Dropbox/AV_SmartWatch/toolchain_v3/src\driver_display.cpp ****       drawPixel(x0 - y, y0 + x, color);
 764              		.loc 1 329 0
 765 0112 039A     		ldr	r2, [sp, #12]
 766 0114 029B     		ldr	r3, [sp, #8]
 767 0116 1FFA82F9 		uxth	r9, r2
 768 011a 1FFA83FB 		uxth	fp, r3
 769 011e 2068     		ldr	r0, [r4, #0]
 770 0120 1FFA87FA 		uxth	sl, r7
 303:c:/Dropbox/AV_SmartWatch/toolchain_v3/src\driver_display.cpp **** void Arduino_GFX::drawCircleHelper( int16_t x0, int16_t y0,
 771              		.loc 1 303 0
 772 0124 09F10103 		add	r3, r9, #1
 329:c:/Dropbox/AV_SmartWatch/toolchain_v3/src\driver_display.cpp ****       drawPixel(x0 - y, y0 + x, color);
 773              		.loc 1 329 0
 774 0128 CAEB0B01 		rsb	r1, sl, fp
 303:c:/Dropbox/AV_SmartWatch/toolchain_v3/src\driver_display.cpp **** void Arduino_GFX::drawCircleHelper( int16_t x0, int16_t y0,
 775              		.loc 1 303 0
 776 012c EA18     		adds	r2, r5, r3
 329:c:/Dropbox/AV_SmartWatch/toolchain_v3/src\driver_display.cpp ****       drawPixel(x0 - y, y0 + x, color);
 777              		.loc 1 329 0
 778 012e D0F800C0 		ldr	ip, [r0, #0]
 779 0132 09B2     		sxth	r1, r1
 780 0134 2046     		mov	r0, r4
 781 0136 12B2     		sxth	r2, r2
 782 0138 3346     		mov	r3, r6
 783 013a E047     		blx	ip
 784              	.LVL72:
 303:c:/Dropbox/AV_SmartWatch/toolchain_v3/src\driver_display.cpp **** void Arduino_GFX::drawCircleHelper( int16_t x0, int16_t y0,
 785              		.loc 1 303 0
 786 013c 0BF1FF3B 		add	fp, fp, #-1
 330:c:/Dropbox/AV_SmartWatch/toolchain_v3/src\driver_display.cpp ****       drawPixel(x0 - x, y0 + y, color);
 787              		.loc 1 330 0
 788 0140 2068     		ldr	r0, [r4, #0]
 789 0142 0AEB0903 		add	r3, sl, r9
 303:c:/Dropbox/AV_SmartWatch/toolchain_v3/src\driver_display.cpp **** void Arduino_GFX::drawCircleHelper( int16_t x0, int16_t y0,
 790              		.loc 1 303 0
 791 0146 C5EB0B01 		rsb	r1, r5, fp
 330:c:/Dropbox/AV_SmartWatch/toolchain_v3/src\driver_display.cpp ****       drawPixel(x0 - x, y0 + y, color);
 792              		.loc 1 330 0
 793 014a D0F800C0 		ldr	ip, [r0, #0]
 794 014e 1AB2     		sxth	r2, r3
 795 0150 2046     		mov	r0, r4
 796 0152 09B2     		sxth	r1, r1
 797 0154 3346     		mov	r3, r6
 798 0156 E047     		blx	ip
 799              	.LVL73:
 800              	.L17:
 332:c:/Dropbox/AV_SmartWatch/toolchain_v3/src\driver_display.cpp ****     if (cornername & 0x1) {
 801              		.loc 1 332 0
 802 0158 049A     		ldr	r2, [sp, #16]
 803 015a D207     		lsls	r2, r2, #31
 804 015c 21D5     		bpl	.L18
 333:c:/Dropbox/AV_SmartWatch/toolchain_v3/src\driver_display.cpp ****       drawPixel(x0 - y, y0 - x, color);
 805              		.loc 1 333 0
 806 015e 0399     		ldr	r1, [sp, #12]
 807 0160 0298     		ldr	r0, [sp, #8]
 808 0162 1FFA81FA 		uxth	sl, r1
 809 0166 1FFA80FB 		uxth	fp, r0
 810 016a 2368     		ldr	r3, [r4, #0]
 811 016c 1FFA87F9 		uxth	r9, r7
 303:c:/Dropbox/AV_SmartWatch/toolchain_v3/src\driver_display.cpp **** void Arduino_GFX::drawCircleHelper( int16_t x0, int16_t y0,
 812              		.loc 1 303 0
 813 0170 0AF1FF32 		add	r2, sl, #-1
 333:c:/Dropbox/AV_SmartWatch/toolchain_v3/src\driver_display.cpp ****       drawPixel(x0 - y, y0 - x, color);
 814              		.loc 1 333 0
 815 0174 C9EB0B01 		rsb	r1, r9, fp
 303:c:/Dropbox/AV_SmartWatch/toolchain_v3/src\driver_display.cpp **** void Arduino_GFX::drawCircleHelper( int16_t x0, int16_t y0,
 816              		.loc 1 303 0
 817 0178 521B     		subs	r2, r2, r5
 333:c:/Dropbox/AV_SmartWatch/toolchain_v3/src\driver_display.cpp ****       drawPixel(x0 - y, y0 - x, color);
 818              		.loc 1 333 0
 819 017a D3F800C0 		ldr	ip, [r3, #0]
 820 017e 2046     		mov	r0, r4
 821 0180 09B2     		sxth	r1, r1
 822 0182 12B2     		sxth	r2, r2
 823 0184 3346     		mov	r3, r6
 824 0186 E047     		blx	ip
 825              	.LVL74:
 303:c:/Dropbox/AV_SmartWatch/toolchain_v3/src\driver_display.cpp **** void Arduino_GFX::drawCircleHelper( int16_t x0, int16_t y0,
 826              		.loc 1 303 0
 827 0188 0BF1FF3B 		add	fp, fp, #-1
 334:c:/Dropbox/AV_SmartWatch/toolchain_v3/src\driver_display.cpp ****       drawPixel(x0 - x, y0 - y, color);
 828              		.loc 1 334 0
 829 018c 2068     		ldr	r0, [r4, #0]
 303:c:/Dropbox/AV_SmartWatch/toolchain_v3/src\driver_display.cpp **** void Arduino_GFX::drawCircleHelper( int16_t x0, int16_t y0,
 830              		.loc 1 303 0
 831 018e C5EB0B03 		rsb	r3, r5, fp
 334:c:/Dropbox/AV_SmartWatch/toolchain_v3/src\driver_display.cpp ****       drawPixel(x0 - x, y0 - y, color);
 832              		.loc 1 334 0
 833 0192 C9EB0A02 		rsb	r2, r9, sl
 834 0196 0568     		ldr	r5, [r0, #0]
 835              	.LVL75:
 836 0198 19B2     		sxth	r1, r3
 837 019a 2046     		mov	r0, r4
 838 019c 12B2     		sxth	r2, r2
 839 019e 3346     		mov	r3, r6
 840 01a0 A847     		blx	r5
 841              	.LVL76:
 842              	.L18:
 843 01a2 0199     		ldr	r1, [sp, #4]
 844 01a4 481C     		adds	r0, r1, #1
 845 01a6 0190     		str	r0, [sp, #4]
 846 01a8 42E7     		b	.L13
 847              	.LVL77:
 848              	.L32:
 849              	.LBE50:
 337:c:/Dropbox/AV_SmartWatch/toolchain_v3/src\driver_display.cpp **** }
 850              		.loc 1 337 0
 851 01aa 07B0     		add	sp, sp, #28
 852 01ac BDE8F08F 		pop	{r4, r5, r6, r7, r8, r9, sl, fp, pc}
 853              		.cfi_endproc
 854              	.LFE60:
 856              		.section	.text._ZN11Arduino_GFX16fillCircleHelperEssshst,"ax",%progbits
 857              		.align	1
 858              		.global	_ZN11Arduino_GFX16fillCircleHelperEssshst
 859              		.thumb
 860              		.thumb_func
 862              	_ZN11Arduino_GFX16fillCircleHelperEssshst:
 863              	.LFB62:
 347:c:/Dropbox/AV_SmartWatch/toolchain_v3/src\driver_display.cpp **** 				    uint8_t cornername, int16_t delta, uint16_t color) {
 864              		.loc 1 347 0
 865              		.cfi_startproc
 866              		@ args = 12, pretend = 0, frame = 32
 867              		@ frame_needed = 0, uses_anonymous_args = 0
 868              	.LVL78:
 869 0000 2DE9F04F 		push	{r4, r5, r6, r7, r8, r9, sl, fp, lr}
 870              	.LCFI9:
 871              		.cfi_def_cfa_offset 36
 872              		.cfi_offset 4, -36
 873              		.cfi_offset 5, -32
 874              		.cfi_offset 6, -28
 875              		.cfi_offset 7, -24
 876              		.cfi_offset 8, -20
 877              		.cfi_offset 9, -16
 878              		.cfi_offset 10, -12
 879              		.cfi_offset 11, -8
 880              		.cfi_offset 14, -4
 881 0004 8BB0     		sub	sp, sp, #44
 882              	.LCFI10:
 883              		.cfi_def_cfa_offset 80
 884              	.LBB51:
 351:c:/Dropbox/AV_SmartWatch/toolchain_v3/src\driver_display.cpp ****   int16_t ddF_y = -2 * r;
 885              		.loc 1 351 0
 886 0006 6FF00105 		mvn	r5, #1
 887              	.LBE51:
 347:c:/Dropbox/AV_SmartWatch/toolchain_v3/src\driver_display.cpp **** 				    uint8_t cornername, int16_t delta, uint16_t color) {
 888              		.loc 1 347 0
 889 000a 0792     		str	r2, [sp, #28]
 890              	.LBB52:
 349:c:/Dropbox/AV_SmartWatch/toolchain_v3/src\driver_display.cpp ****   int16_t f     = 1 - r;
 891              		.loc 1 349 0
 892 000c 9AB2     		uxth	r2, r3
 893              	.LVL79:
 894 000e C2F10106 		rsb	r6, r2, #1
 351:c:/Dropbox/AV_SmartWatch/toolchain_v3/src\driver_display.cpp ****   int16_t ddF_y = -2 * r;
 895              		.loc 1 351 0
 896 0012 6A43     		muls	r2, r5, r2
 897              	.LBE52:
 347:c:/Dropbox/AV_SmartWatch/toolchain_v3/src\driver_display.cpp **** 				    uint8_t cornername, int16_t delta, uint16_t color) {
 898              		.loc 1 347 0
 899 0014 9DF85070 		ldrb	r7, [sp, #80]	@ zero_extendqisi2
 900 0018 0446     		mov	r4, r0
 901 001a 0691     		str	r1, [sp, #24]
 902 001c BDF95400 		ldrsh	r0, [sp, #84]
 903              	.LVL80:
 904 0020 BDF85810 		ldrh	r1, [sp, #88]
 905              	.LVL81:
 906 0024 0897     		str	r7, [sp, #32]
 907              	.LBB53:
 351:c:/Dropbox/AV_SmartWatch/toolchain_v3/src\driver_display.cpp ****   int16_t ddF_y = -2 * r;
 908              		.loc 1 351 0
 909 0026 97B2     		uxth	r7, r2
 910              	.LBE53:
 347:c:/Dropbox/AV_SmartWatch/toolchain_v3/src\driver_display.cpp **** 				    uint8_t cornername, int16_t delta, uint16_t color) {
 911              		.loc 1 347 0
 912 0028 0391     		str	r1, [sp, #12]
 913 002a 0990     		str	r0, [sp, #36]
 914              	.LBB54:
 349:c:/Dropbox/AV_SmartWatch/toolchain_v3/src\driver_display.cpp ****   int16_t f     = 1 - r;
 915              		.loc 1 349 0
 916 002c B6B2     		uxth	r6, r6
 917              	.LVL82:
 351:c:/Dropbox/AV_SmartWatch/toolchain_v3/src\driver_display.cpp ****   int16_t ddF_y = -2 * r;
 918              		.loc 1 351 0
 919 002e 0597     		str	r7, [sp, #20]
 920              	.LVL83:
 353:c:/Dropbox/AV_SmartWatch/toolchain_v3/src\driver_display.cpp ****   int16_t y     = r;
 921              		.loc 1 353 0
 922 0030 1D46     		mov	r5, r3
 355:c:/Dropbox/AV_SmartWatch/toolchain_v3/src\driver_display.cpp ****   while (x<y) {
 923              		.loc 1 355 0
 924 0032 0021     		movs	r1, #0
 925              	.LVL84:
 926              	.L45:
 927 0034 0291     		str	r1, [sp, #8]
 928              	.LVL85:
 355:c:/Dropbox/AV_SmartWatch/toolchain_v3/src\driver_display.cpp ****   while (x<y) {
 929              		.loc 1 355 0 is_stmt 0 discriminator 1
 930 0036 029F     		ldr	r7, [sp, #8]
 931 0038 2BB2     		sxth	r3, r5
 932 003a 38B2     		sxth	r0, r7
 933 003c 9842     		cmp	r0, r3
 934 003e 80F28B80 		bge	.L46
 935              	.L38:
 356:c:/Dropbox/AV_SmartWatch/toolchain_v3/src\driver_display.cpp ****     if (f >= 0) {
 936              		.loc 1 356 0 is_stmt 1
 937 0042 3004     		lsls	r0, r6, #16
 938 0044 08D4     		bmi	.L35
 358:c:/Dropbox/AV_SmartWatch/toolchain_v3/src\driver_display.cpp ****       ddF_y += 2;
 939              		.loc 1 358 0
 940 0046 059A     		ldr	r2, [sp, #20]
 357:c:/Dropbox/AV_SmartWatch/toolchain_v3/src\driver_display.cpp ****       y--;
 941              		.loc 1 357 0
 942 0048 691E     		subs	r1, r5, #1
 358:c:/Dropbox/AV_SmartWatch/toolchain_v3/src\driver_display.cpp ****       ddF_y += 2;
 943              		.loc 1 358 0
 944 004a 971C     		adds	r7, r2, #2
 945 004c B8B2     		uxth	r0, r7
 946 004e 83B2     		uxth	r3, r0
 359:c:/Dropbox/AV_SmartWatch/toolchain_v3/src\driver_display.cpp ****       f     += ddF_y;
 947              		.loc 1 359 0
 948 0050 8619     		adds	r6, r0, r6
 949              	.LVL86:
 357:c:/Dropbox/AV_SmartWatch/toolchain_v3/src\driver_display.cpp ****       y--;
 950              		.loc 1 357 0
 951 0052 8DB2     		uxth	r5, r1
 952              	.LVL87:
 358:c:/Dropbox/AV_SmartWatch/toolchain_v3/src\driver_display.cpp ****       ddF_y += 2;
 953              		.loc 1 358 0
 954 0054 0593     		str	r3, [sp, #20]
 359:c:/Dropbox/AV_SmartWatch/toolchain_v3/src\driver_display.cpp ****       f     += ddF_y;
 955              		.loc 1 359 0
 956 0056 B6B2     		uxth	r6, r6
 957              	.LVL88:
 958              	.L35:
 346:c:/Dropbox/AV_SmartWatch/toolchain_v3/src\driver_display.cpp **** void Arduino_GFX::fillCircleHelper(int16_t x0, int16_t y0, int16_t r,
 959              		.loc 1 346 0
 960 0058 0299     		ldr	r1, [sp, #8]
 961 005a 8FB2     		uxth	r7, r1
 962 005c 4FEA4709 		lsl	r9, r7, #1
 963 0060 1FFA89F9 		uxth	r9, r9
 964 0064 4A46     		mov	r2, r9
 365:c:/Dropbox/AV_SmartWatch/toolchain_v3/src\driver_display.cpp ****     if (cornername & 0x1) {
 965              		.loc 1 365 0
 966 0066 0899     		ldr	r1, [sp, #32]
 346:c:/Dropbox/AV_SmartWatch/toolchain_v3/src\driver_display.cpp **** void Arduino_GFX::fillCircleHelper(int16_t x0, int16_t y0, int16_t r,
 967              		.loc 1 346 0
 968 0068 D01C     		adds	r0, r2, #3
 363:c:/Dropbox/AV_SmartWatch/toolchain_v3/src\driver_display.cpp ****     f     += ddF_x;
 969              		.loc 1 363 0
 970 006a 3318     		adds	r3, r6, r0
 365:c:/Dropbox/AV_SmartWatch/toolchain_v3/src\driver_display.cpp ****     if (cornername & 0x1) {
 971              		.loc 1 365 0
 972 006c C907     		lsls	r1, r1, #31
 346:c:/Dropbox/AV_SmartWatch/toolchain_v3/src\driver_display.cpp **** void Arduino_GFX::fillCircleHelper(int16_t x0, int16_t y0, int16_t r,
 973              		.loc 1 346 0
 974 006e CDF81090 		str	r9, [sp, #16]
 975              	.LVL89:
 363:c:/Dropbox/AV_SmartWatch/toolchain_v3/src\driver_display.cpp ****     f     += ddF_x;
 976              		.loc 1 363 0
 977 0072 9EB2     		uxth	r6, r3
 978              	.LVL90:
 365:c:/Dropbox/AV_SmartWatch/toolchain_v3/src\driver_display.cpp ****     if (cornername & 0x1) {
 979              		.loc 1 365 0
 980 0074 34D5     		bpl	.L36
 366:c:/Dropbox/AV_SmartWatch/toolchain_v3/src\driver_display.cpp ****       drawFastVLine(x0+x, y0-y, 2*y+1+delta, color);
 981              		.loc 1 366 0
 982 0076 069A     		ldr	r2, [sp, #24]
 983 0078 0998     		ldr	r0, [sp, #36]
 984 007a 1FFA82FB 		uxth	fp, r2
 985 007e 1FFA80F9 		uxth	r9, r0
 986 0082 1FFA85F8 		uxth	r8, r5
 987 0086 09F10100 		add	r0, r9, #1
 346:c:/Dropbox/AV_SmartWatch/toolchain_v3/src\driver_display.cpp **** void Arduino_GFX::fillCircleHelper(int16_t x0, int16_t y0, int16_t r,
 988              		.loc 1 346 0
 989 008a 0BF10103 		add	r3, fp, #1
 990              	.LVL91:
 366:c:/Dropbox/AV_SmartWatch/toolchain_v3/src\driver_display.cpp ****       drawFastVLine(x0+x, y0-y, 2*y+1+delta, color);
 991              		.loc 1 366 0
 992 008e DDF81CE0 		ldr	lr, [sp, #28]
 346:c:/Dropbox/AV_SmartWatch/toolchain_v3/src\driver_display.cpp **** void Arduino_GFX::fillCircleHelper(int16_t x0, int16_t y0, int16_t r,
 993              		.loc 1 346 0
 994 0092 F918     		adds	r1, r7, r3
 366:c:/Dropbox/AV_SmartWatch/toolchain_v3/src\driver_display.cpp ****       drawFastVLine(x0+x, y0-y, 2*y+1+delta, color);
 995              		.loc 1 366 0
 996 0094 00EB4803 		add	r3, r0, r8, lsl #1
 997 0098 0398     		ldr	r0, [sp, #12]
 998 009a 1FFA8EFA 		uxth	sl, lr
 999 009e 0090     		str	r0, [sp, #0]
 1000 00a0 2068     		ldr	r0, [r4, #0]
 1001 00a2 C8EB0A02 		rsb	r2, r8, sl
 1002 00a6 D0F804C0 		ldr	ip, [r0, #4]
 1003 00aa 09B2     		sxth	r1, r1
 1004 00ac 2046     		mov	r0, r4
 1005 00ae 12B2     		sxth	r2, r2
 1006 00b0 1BB2     		sxth	r3, r3
 1007 00b2 E047     		blx	ip
 1008              	.LVL92:
 367:c:/Dropbox/AV_SmartWatch/toolchain_v3/src\driver_display.cpp ****       drawFastVLine(x0+y, y0-x, 2*x+1+delta, color);
 1009              		.loc 1 367 0
 1010 00b4 0398     		ldr	r0, [sp, #12]
 346:c:/Dropbox/AV_SmartWatch/toolchain_v3/src\driver_display.cpp **** void Arduino_GFX::fillCircleHelper(int16_t x0, int16_t y0, int16_t r,
 1011              		.loc 1 346 0
 1012 00b6 DDF810E0 		ldr	lr, [sp, #16]
 367:c:/Dropbox/AV_SmartWatch/toolchain_v3/src\driver_display.cpp ****       drawFastVLine(x0+y, y0-x, 2*x+1+delta, color);
 1013              		.loc 1 367 0
 1014 00ba 0090     		str	r0, [sp, #0]
 346:c:/Dropbox/AV_SmartWatch/toolchain_v3/src\driver_display.cpp **** void Arduino_GFX::fillCircleHelper(int16_t x0, int16_t y0, int16_t r,
 1015              		.loc 1 346 0
 1016 00bc 0AF1FF3A 		add	sl, sl, #-1
 367:c:/Dropbox/AV_SmartWatch/toolchain_v3/src\driver_display.cpp ****       drawFastVLine(x0+y, y0-x, 2*x+1+delta, color);
 1017              		.loc 1 367 0
 1018 00c0 2068     		ldr	r0, [r4, #0]
 346:c:/Dropbox/AV_SmartWatch/toolchain_v3/src\driver_display.cpp **** void Arduino_GFX::fillCircleHelper(int16_t x0, int16_t y0, int16_t r,
 1019              		.loc 1 346 0
 1020 00c2 09F10309 		add	r9, r9, #3
 367:c:/Dropbox/AV_SmartWatch/toolchain_v3/src\driver_display.cpp ****       drawFastVLine(x0+y, y0-x, 2*x+1+delta, color);
 1021              		.loc 1 367 0
 1022 00c6 08EB0B01 		add	r1, r8, fp
 346:c:/Dropbox/AV_SmartWatch/toolchain_v3/src\driver_display.cpp **** void Arduino_GFX::fillCircleHelper(int16_t x0, int16_t y0, int16_t r,
 1023              		.loc 1 346 0
 1024 00ca C7EB0A02 		rsb	r2, r7, sl
 1025 00ce 0EEB0903 		add	r3, lr, r9
 367:c:/Dropbox/AV_SmartWatch/toolchain_v3/src\driver_display.cpp ****       drawFastVLine(x0+y, y0-x, 2*x+1+delta, color);
 1026              		.loc 1 367 0
 1027 00d2 D0F804C0 		ldr	ip, [r0, #4]
 1028 00d6 09B2     		sxth	r1, r1
 1029 00d8 2046     		mov	r0, r4
 1030 00da 12B2     		sxth	r2, r2
 1031 00dc 1BB2     		sxth	r3, r3
 1032 00de E047     		blx	ip
 1033              	.LVL93:
 1034              	.L36:
 369:c:/Dropbox/AV_SmartWatch/toolchain_v3/src\driver_display.cpp ****     if (cornername & 0x2) {
 1035              		.loc 1 369 0
 1036 00e0 0899     		ldr	r1, [sp, #32]
 1037 00e2 01F00202 		and	r2, r1, #2
 1038 00e6 D3B2     		uxtb	r3, r2
 1039 00e8 002B     		cmp	r3, #0
 1040 00ea 32D0     		beq	.L37
 370:c:/Dropbox/AV_SmartWatch/toolchain_v3/src\driver_display.cpp ****       drawFastVLine(x0-x, y0-y, 2*y+1+delta, color);
 1041              		.loc 1 370 0
 1042 00ec 0698     		ldr	r0, [sp, #24]
 1043 00ee 0999     		ldr	r1, [sp, #36]
 1044 00f0 1FFA80FB 		uxth	fp, r0
 1045 00f4 DDF81C80 		ldr	r8, [sp, #28]
 1046 00f8 0398     		ldr	r0, [sp, #12]
 1047 00fa 1FFA81F9 		uxth	r9, r1
 1048 00fe 1FFA88FA 		uxth	sl, r8
 1049 0102 0090     		str	r0, [sp, #0]
 1050 0104 1FFA85F8 		uxth	r8, r5
 1051 0108 2068     		ldr	r0, [r4, #0]
 346:c:/Dropbox/AV_SmartWatch/toolchain_v3/src\driver_display.cpp **** void Arduino_GFX::fillCircleHelper(int16_t x0, int16_t y0, int16_t r,
 1052              		.loc 1 346 0
 1053 010a 0BF1FF32 		add	r2, fp, #-1
 370:c:/Dropbox/AV_SmartWatch/toolchain_v3/src\driver_display.cpp ****       drawFastVLine(x0-x, y0-y, 2*y+1+delta, color);
 1054              		.loc 1 370 0
 1055 010e 09F10103 		add	r3, r9, #1
 346:c:/Dropbox/AV_SmartWatch/toolchain_v3/src\driver_display.cpp **** void Arduino_GFX::fillCircleHelper(int16_t x0, int16_t y0, int16_t r,
 1056              		.loc 1 346 0
 1057 0112 D11B     		subs	r1, r2, r7
 370:c:/Dropbox/AV_SmartWatch/toolchain_v3/src\driver_display.cpp ****       drawFastVLine(x0-x, y0-y, 2*y+1+delta, color);
 1058              		.loc 1 370 0
 1059 0114 03EB4803 		add	r3, r3, r8, lsl #1
 1060 0118 C8EB0A02 		rsb	r2, r8, sl
 1061 011c D0F804C0 		ldr	ip, [r0, #4]
 1062 0120 09B2     		sxth	r1, r1
 1063 0122 2046     		mov	r0, r4
 1064 0124 12B2     		sxth	r2, r2
 1065 0126 1BB2     		sxth	r3, r3
 346:c:/Dropbox/AV_SmartWatch/toolchain_v3/src\driver_display.cpp **** void Arduino_GFX::fillCircleHelper(int16_t x0, int16_t y0, int16_t r,
 1066              		.loc 1 346 0
 1067 0128 0AF1FF3A 		add	sl, sl, #-1
 370:c:/Dropbox/AV_SmartWatch/toolchain_v3/src\driver_display.cpp ****       drawFastVLine(x0-x, y0-y, 2*y+1+delta, color);
 1068              		.loc 1 370 0
 1069 012c E047     		blx	ip
 1070              	.LVL94:
 346:c:/Dropbox/AV_SmartWatch/toolchain_v3/src\driver_display.cpp **** void Arduino_GFX::fillCircleHelper(int16_t x0, int16_t y0, int16_t r,
 1071              		.loc 1 346 0
 1072 012e C7EB0A02 		rsb	r2, r7, sl
 1073 0132 049F     		ldr	r7, [sp, #16]
 1074 0134 09F10309 		add	r9, r9, #3
 1075 0138 07EB0903 		add	r3, r7, r9
 371:c:/Dropbox/AV_SmartWatch/toolchain_v3/src\driver_display.cpp ****       drawFastVLine(x0-y, y0-x, 2*x+1+delta, color);
 1076              		.loc 1 371 0
 1077 013c 039F     		ldr	r7, [sp, #12]
 1078 013e 2068     		ldr	r0, [r4, #0]
 1079 0140 C8EB0B01 		rsb	r1, r8, fp
 1080 0144 0097     		str	r7, [sp, #0]
 1081 0146 4768     		ldr	r7, [r0, #4]
 1082 0148 09B2     		sxth	r1, r1
 1083 014a 2046     		mov	r0, r4
 1084 014c 12B2     		sxth	r2, r2
 1085 014e 1BB2     		sxth	r3, r3
 1086 0150 B847     		blx	r7
 1087              	.LVL95:
 1088              	.L37:
 1089 0152 0298     		ldr	r0, [sp, #8]
 1090 0154 411C     		adds	r1, r0, #1
 1091 0156 6DE7     		b	.L45
 1092              	.LVL96:
 1093              	.L46:
 1094              	.LBE54:
 374:c:/Dropbox/AV_SmartWatch/toolchain_v3/src\driver_display.cpp **** }
 1095              		.loc 1 374 0
 1096 0158 0BB0     		add	sp, sp, #44
 1097 015a BDE8F08F 		pop	{r4, r5, r6, r7, r8, r9, sl, fp, pc}
 1098              		.cfi_endproc
 1099              	.LFE62:
 1101              		.section	.text._ZN11Arduino_GFX10fillCircleEssst,"ax",%progbits
 1102              		.align	1
 1103              		.global	_ZN11Arduino_GFX10fillCircleEssst
 1104              		.thumb
 1105              		.thumb_func
 1107              	_ZN11Arduino_GFX10fillCircleEssst:
 1108              	.LFB61:
 340:c:/Dropbox/AV_SmartWatch/toolchain_v3/src\driver_display.cpp **** 			      uint16_t color) {
 1109              		.loc 1 340 0
 1110              		.cfi_startproc
 1111              		@ args = 4, pretend = 0, frame = 0
 1112              		@ frame_needed = 0, uses_anonymous_args = 0
 1113              	.LVL97:
 1114 0000 2DE9FF41 		push	{r0, r1, r2, r3, r4, r5, r6, r7, r8, lr}
 1115              	.LCFI11:
 1116              		.cfi_def_cfa_offset 40
 1117              		.cfi_offset 0, -40
 1118              		.cfi_offset 1, -36
 1119              		.cfi_offset 2, -32
 1120              		.cfi_offset 3, -28
 1121              		.cfi_offset 4, -24
 1122              		.cfi_offset 5, -20
 1123              		.cfi_offset 6, -16
 1124              		.cfi_offset 7, -12
 1125              		.cfi_offset 8, -8
 1126              		.cfi_offset 14, -4
 340:c:/Dropbox/AV_SmartWatch/toolchain_v3/src\driver_display.cpp **** 			      uint16_t color) {
 1127              		.loc 1 340 0
 1128 0004 BDF82870 		ldrh	r7, [sp, #40]
 1129 0008 1C46     		mov	r4, r3
 341:c:/Dropbox/AV_SmartWatch/toolchain_v3/src\driver_display.cpp ****   drawFastVLine(x0, y0-r, 2*r+1, color);
 1130              		.loc 1 341 0
 1131 000a 9BB2     		uxth	r3, r3
 1132 000c 0097     		str	r7, [sp, #0]
 340:c:/Dropbox/AV_SmartWatch/toolchain_v3/src\driver_display.cpp **** 			      uint16_t color) {
 1133              		.loc 1 340 0
 1134 000e 1546     		mov	r5, r2
 341:c:/Dropbox/AV_SmartWatch/toolchain_v3/src\driver_display.cpp ****   drawFastVLine(x0, y0-r, 2*r+1, color);
 1135              		.loc 1 341 0
 1136 0010 D21A     		subs	r2, r2, r3
 1137              	.LVL98:
 1138 0012 5B00     		lsls	r3, r3, #1
 1139              	.LVL99:
 1140 0014 03F1010E 		add	lr, r3, #1
 1141 0018 0368     		ldr	r3, [r0, #0]
 1142 001a 12B2     		sxth	r2, r2
 1143 001c D3F804C0 		ldr	ip, [r3, #4]
 1144 0020 0FFA8EF3 		sxth	r3, lr
 340:c:/Dropbox/AV_SmartWatch/toolchain_v3/src\driver_display.cpp **** 			      uint16_t color) {
 1145              		.loc 1 340 0
 1146 0024 0646     		mov	r6, r0
 1147 0026 8846     		mov	r8, r1
 341:c:/Dropbox/AV_SmartWatch/toolchain_v3/src\driver_display.cpp ****   drawFastVLine(x0, y0-r, 2*r+1, color);
 1148              		.loc 1 341 0
 1149 0028 E047     		blx	ip
 1150              	.LVL100:
 342:c:/Dropbox/AV_SmartWatch/toolchain_v3/src\driver_display.cpp ****   fillCircleHelper(x0, y0, r, 3, 0, color);
 1151              		.loc 1 342 0
 1152 002a 0323     		movs	r3, #3
 1153 002c 4FF0000E 		mov	lr, #0
 1154 0030 8DE80840 		stmia	sp, {r3, lr}
 1155 0034 0297     		str	r7, [sp, #8]
 1156 0036 3046     		mov	r0, r6
 1157 0038 4146     		mov	r1, r8
 1158 003a 2A46     		mov	r2, r5
 1159 003c 2346     		mov	r3, r4
 1160 003e FFF7FEFF 		bl	_ZN11Arduino_GFX16fillCircleHelperEssshst
 1161              	.LVL101:
 343:c:/Dropbox/AV_SmartWatch/toolchain_v3/src\driver_display.cpp **** }
 1162              		.loc 1 343 0
 1163 0042 BDE8FF81 		pop	{r0, r1, r2, r3, r4, r5, r6, r7, r8, pc}
 1164              		.cfi_endproc
 1165              	.LFE61:
 1167              		.section	.text._ZN11Arduino_GFX8drawLineEsssst,"ax",%progbits
 1168              		.align	1
 1169              		.global	_ZN11Arduino_GFX8drawLineEsssst
 1170              		.thumb
 1171              		.thumb_func
 1173              	_ZN11Arduino_GFX8drawLineEsssst:
 1174              	.LFB63:
 381:c:/Dropbox/AV_SmartWatch/toolchain_v3/src\driver_display.cpp **** 			    uint16_t color) {
 1175              		.loc 1 381 0
 1176              		.cfi_startproc
 1177              		@ args = 8, pretend = 0, frame = 8
 1178              		@ frame_needed = 0, uses_anonymous_args = 0
 1179              	.LVL102:
 1180 0000 2DE9F74F 		push	{r0, r1, r2, r4, r5, r6, r7, r8, r9, sl, fp, lr}
 1181              	.LCFI12:
 1182              		.cfi_def_cfa_offset 48
 1183              		.cfi_offset 0, -48
 1184              		.cfi_offset 1, -44
 1185              		.cfi_offset 2, -40
 1186              		.cfi_offset 4, -36
 1187              		.cfi_offset 5, -32
 1188              		.cfi_offset 6, -28
 1189              		.cfi_offset 7, -24
 1190              		.cfi_offset 8, -20
 1191              		.cfi_offset 9, -16
 1192              		.cfi_offset 10, -12
 1193              		.cfi_offset 11, -8
 1194              		.cfi_offset 14, -4
 381:c:/Dropbox/AV_SmartWatch/toolchain_v3/src\driver_display.cpp **** 			    uint16_t color) {
 1195              		.loc 1 381 0
 1196 0004 1E46     		mov	r6, r3
 1197 0006 BDF93030 		ldrsh	r3, [sp, #48]
 1198              	.LVL103:
 1199 000a 1446     		mov	r4, r2
 1200              	.LBB55:
 382:c:/Dropbox/AV_SmartWatch/toolchain_v3/src\driver_display.cpp ****   int16_t steep = abs(y1 - y0) > abs(x1 - x0);
 1201              		.loc 1 382 0
 1202 000c C2EB0309 		rsb	r9, r2, r3
 1203 0010 721A     		subs	r2, r6, r1
 1204              	.LVL104:
 1205 0012 B9F1000F 		cmp	r9, #0
 1206 0016 B8BF     		it	lt
 1207 0018 C9F10009 		rsblt	r9, r9, #0
 1208 001c 002A     		cmp	r2, #0
 1209 001e B8BF     		it	lt
 1210 0020 5242     		rsblt	r2, r2, #0
 1211 0022 9145     		cmp	r9, r2
 1212 0024 D4BF     		ite	le
 1213 0026 4FF00009 		movle	r9, #0
 1214 002a 4FF00109 		movgt	r9, #1
 1215              	.LVL105:
 1216              	.LBE55:
 381:c:/Dropbox/AV_SmartWatch/toolchain_v3/src\driver_display.cpp **** 			    uint16_t color) {
 1217              		.loc 1 381 0
 1218 002e 8046     		mov	r8, r0
 1219 0030 0D46     		mov	r5, r1
 1220 0032 BDF834B0 		ldrh	fp, [sp, #52]
 1221              	.LBB56:
 383:c:/Dropbox/AV_SmartWatch/toolchain_v3/src\driver_display.cpp ****   if (steep) {
 1222              		.loc 1 383 0
 1223 0036 B9F1000F 		cmp	r9, #0
 1224 003a 06D0     		beq	.L49
 384:c:/Dropbox/AV_SmartWatch/toolchain_v3/src\driver_display.cpp ****     swap(x0, y0);
 1225              		.loc 1 384 0
 1226 003c 84EA0105 		eor	r5, r4, r1
 1227              	.LVL106:
 385:c:/Dropbox/AV_SmartWatch/toolchain_v3/src\driver_display.cpp ****     swap(x1, y1);
 1228              		.loc 1 385 0
 1229 0040 5E40     		eors	r6, r6, r3
 384:c:/Dropbox/AV_SmartWatch/toolchain_v3/src\driver_display.cpp ****     swap(x0, y0);
 1230              		.loc 1 384 0
 1231 0042 6C40     		eors	r4, r4, r5
 1232              	.LVL107:
 385:c:/Dropbox/AV_SmartWatch/toolchain_v3/src\driver_display.cpp ****     swap(x1, y1);
 1233              		.loc 1 385 0
 1234 0044 7340     		eors	r3, r3, r6
 384:c:/Dropbox/AV_SmartWatch/toolchain_v3/src\driver_display.cpp ****     swap(x0, y0);
 1235              		.loc 1 384 0
 1236 0046 6540     		eors	r5, r5, r4
 1237              	.LVL108:
 385:c:/Dropbox/AV_SmartWatch/toolchain_v3/src\driver_display.cpp ****     swap(x1, y1);
 1238              		.loc 1 385 0
 1239 0048 5E40     		eors	r6, r6, r3
 1240              	.LVL109:
 1241              	.L49:
 388:c:/Dropbox/AV_SmartWatch/toolchain_v3/src\driver_display.cpp ****   if (x0 > x1) {
 1242              		.loc 1 388 0
 1243 004a B542     		cmp	r5, r6
 1244 004c 0DDD     		ble	.L50
 389:c:/Dropbox/AV_SmartWatch/toolchain_v3/src\driver_display.cpp ****     swap(x0, x1);
 1245              		.loc 1 389 0
 1246 004e 86EA0500 		eor	r0, r6, r5
 1247              	.LVL110:
 390:c:/Dropbox/AV_SmartWatch/toolchain_v3/src\driver_display.cpp ****     swap(y0, y1);
 1248              		.loc 1 390 0
 1249 0052 5C40     		eors	r4, r4, r3
 1250              	.LVL111:
 1251 0054 6340     		eors	r3, r3, r4
 1252              	.LVL112:
 389:c:/Dropbox/AV_SmartWatch/toolchain_v3/src\driver_display.cpp ****     swap(x0, x1);
 1253              		.loc 1 389 0
 1254 0056 80EA0601 		eor	r1, r0, r6
 1255 005a 0EB2     		sxth	r6, r1
 1256              	.LVL113:
 390:c:/Dropbox/AV_SmartWatch/toolchain_v3/src\driver_display.cpp ****     swap(y0, y1);
 1257              		.loc 1 390 0
 1258 005c 1BB2     		sxth	r3, r3
 389:c:/Dropbox/AV_SmartWatch/toolchain_v3/src\driver_display.cpp ****     swap(x0, x1);
 1259              		.loc 1 389 0
 1260 005e 86EA0007 		eor	r7, r6, r0
 390:c:/Dropbox/AV_SmartWatch/toolchain_v3/src\driver_display.cpp ****     swap(y0, y1);
 1261              		.loc 1 390 0
 1262 0062 83EA0402 		eor	r2, r3, r4
 389:c:/Dropbox/AV_SmartWatch/toolchain_v3/src\driver_display.cpp ****     swap(x0, x1);
 1263              		.loc 1 389 0
 1264 0066 3DB2     		sxth	r5, r7
 1265              	.LVL114:
 390:c:/Dropbox/AV_SmartWatch/toolchain_v3/src\driver_display.cpp ****     swap(y0, y1);
 1266              		.loc 1 390 0
 1267 0068 14B2     		sxth	r4, r2
 1268              	.LVL115:
 1269              	.L50:
 395:c:/Dropbox/AV_SmartWatch/toolchain_v3/src\driver_display.cpp ****   dy = abs(y1 - y0);
 1270              		.loc 1 395 0
 1271 006a 181B     		subs	r0, r3, r4
 394:c:/Dropbox/AV_SmartWatch/toolchain_v3/src\driver_display.cpp ****   dx = x1 - x0;
 1272              		.loc 1 394 0
 1273 006c C5EB060A 		rsb	sl, r5, r6
 395:c:/Dropbox/AV_SmartWatch/toolchain_v3/src\driver_display.cpp ****   dy = abs(y1 - y0);
 1274              		.loc 1 395 0
 1275 0070 80EAE071 		eor	r1, r0, r0, asr #31
 1276 0074 A1EBE071 		sub	r1, r1, r0, asr #31
 394:c:/Dropbox/AV_SmartWatch/toolchain_v3/src\driver_display.cpp ****   dx = x1 - x0;
 1277              		.loc 1 394 0
 1278 0078 1FFA8AFA 		uxth	sl, sl
 1279              	.LVL116:
 397:c:/Dropbox/AV_SmartWatch/toolchain_v3/src\driver_display.cpp ****   int16_t err = dx / 2;
 1280              		.loc 1 397 0
 1281 007c 0FFA8AF7 		sxth	r7, sl
 395:c:/Dropbox/AV_SmartWatch/toolchain_v3/src\driver_display.cpp ****   dy = abs(y1 - y0);
 1282              		.loc 1 395 0
 1283 0080 0091     		str	r1, [sp, #0]
 1284              	.LVL117:
 397:c:/Dropbox/AV_SmartWatch/toolchain_v3/src\driver_display.cpp ****   int16_t err = dx / 2;
 1285              		.loc 1 397 0
 1286 0082 0222     		movs	r2, #2
 401:c:/Dropbox/AV_SmartWatch/toolchain_v3/src\driver_display.cpp ****     ystep = 1;
 1287              		.loc 1 401 0
 1288 0084 4FF6FF71 		movw	r1, #65535
 397:c:/Dropbox/AV_SmartWatch/toolchain_v3/src\driver_display.cpp ****   int16_t err = dx / 2;
 1289              		.loc 1 397 0
 1290 0088 97FBF2F0 		sdiv	r0, r7, r2
 401:c:/Dropbox/AV_SmartWatch/toolchain_v3/src\driver_display.cpp ****     ystep = 1;
 1291              		.loc 1 401 0
 1292 008c 9C42     		cmp	r4, r3
 1293 008e B8BF     		it	lt
 1294 0090 0121     		movlt	r1, #1
 397:c:/Dropbox/AV_SmartWatch/toolchain_v3/src\driver_display.cpp ****   int16_t err = dx / 2;
 1295              		.loc 1 397 0
 1296 0092 87B2     		uxth	r7, r0
 1297              	.LVL118:
 401:c:/Dropbox/AV_SmartWatch/toolchain_v3/src\driver_display.cpp ****     ystep = 1;
 1298              		.loc 1 401 0
 1299 0094 0191     		str	r1, [sp, #4]
 1300              	.LVL119:
 1301              	.L52:
 406:c:/Dropbox/AV_SmartWatch/toolchain_v3/src\driver_display.cpp ****   for (; x0<=x1; x0++) {
 1302              		.loc 1 406 0 discriminator 1
 1303 0096 B542     		cmp	r5, r6
 1304 0098 1DDC     		bgt	.L62
 1305              	.L56:
 1306 009a D8F80030 		ldr	r3, [r8, #0]
 408:c:/Dropbox/AV_SmartWatch/toolchain_v3/src\driver_display.cpp ****       drawPixel(y0, x0, color);
 1307              		.loc 1 408 0
 1308 009e 4046     		mov	r0, r8
 1309 00a0 D3F800C0 		ldr	ip, [r3, #0]
 407:c:/Dropbox/AV_SmartWatch/toolchain_v3/src\driver_display.cpp ****     if (steep) {
 1310              		.loc 1 407 0
 1311 00a4 B9F1000F 		cmp	r9, #0
 1312 00a8 02D0     		beq	.L53
 1313              	.LVL120:
 408:c:/Dropbox/AV_SmartWatch/toolchain_v3/src\driver_display.cpp ****       drawPixel(y0, x0, color);
 1314              		.loc 1 408 0
 1315 00aa 2146     		mov	r1, r4
 1316 00ac 2A46     		mov	r2, r5
 1317 00ae 01E0     		b	.L61
 1318              	.L53:
 410:c:/Dropbox/AV_SmartWatch/toolchain_v3/src\driver_display.cpp ****       drawPixel(x0, y0, color);
 1319              		.loc 1 410 0
 1320 00b0 2946     		mov	r1, r5
 1321 00b2 2246     		mov	r2, r4
 1322              	.L61:
 1323 00b4 5B46     		mov	r3, fp
 1324 00b6 E047     		blx	ip
 1325              	.LVL121:
 412:c:/Dropbox/AV_SmartWatch/toolchain_v3/src\driver_display.cpp ****     err -= dy;
 1326              		.loc 1 412 0
 1327 00b8 009A     		ldr	r2, [sp, #0]
 1328 00ba BF1A     		subs	r7, r7, r2
 1329              	.LVL122:
 1330 00bc B8B2     		uxth	r0, r7
 1331 00be 87B2     		uxth	r7, r0
 1332              	.LVL123:
 413:c:/Dropbox/AV_SmartWatch/toolchain_v3/src\driver_display.cpp ****     if (err < 0) {
 1333              		.loc 1 413 0
 1334 00c0 3A04     		lsls	r2, r7, #16
 1335 00c2 05D5     		bpl	.L55
 414:c:/Dropbox/AV_SmartWatch/toolchain_v3/src\driver_display.cpp ****       y0 += ystep;
 1336              		.loc 1 414 0
 1337 00c4 0199     		ldr	r1, [sp, #4]
 415:c:/Dropbox/AV_SmartWatch/toolchain_v3/src\driver_display.cpp ****       err += dx;
 1338              		.loc 1 415 0
 1339 00c6 00EB0A03 		add	r3, r0, sl
 414:c:/Dropbox/AV_SmartWatch/toolchain_v3/src\driver_display.cpp ****       y0 += ystep;
 1340              		.loc 1 414 0
 1341 00ca 6418     		adds	r4, r4, r1
 1342              	.LVL124:
 1343 00cc 24B2     		sxth	r4, r4
 1344              	.LVL125:
 415:c:/Dropbox/AV_SmartWatch/toolchain_v3/src\driver_display.cpp ****       err += dx;
 1345              		.loc 1 415 0
 1346 00ce 9FB2     		uxth	r7, r3
 1347              	.LVL126:
 1348              	.L55:
 406:c:/Dropbox/AV_SmartWatch/toolchain_v3/src\driver_display.cpp ****   for (; x0<=x1; x0++) {
 1349              		.loc 1 406 0
 1350 00d0 0135     		adds	r5, r5, #1
 1351              	.LVL127:
 1352 00d2 2DB2     		sxth	r5, r5
 1353              	.LVL128:
 1354 00d4 DFE7     		b	.L52
 1355              	.L62:
 1356              	.LBE56:
 418:c:/Dropbox/AV_SmartWatch/toolchain_v3/src\driver_display.cpp **** }
 1357              		.loc 1 418 0
 1358 00d6 BDE8FE8F 		pop	{r1, r2, r3, r4, r5, r6, r7, r8, r9, sl, fp, pc}
 1359              		.cfi_endproc
 1360              	.LFE63:
 1362              		.section	.text._ZN11Arduino_GFX8drawRectEsssst,"ax",%progbits
 1363              		.align	1
 1364              		.global	_ZN11Arduino_GFX8drawRectEsssst
 1365              		.thumb
 1366              		.thumb_func
 1368              	_ZN11Arduino_GFX8drawRectEsssst:
 1369              	.LFB64:
 424:c:/Dropbox/AV_SmartWatch/toolchain_v3/src\driver_display.cpp **** 			    uint16_t color) {
 1370              		.loc 1 424 0
 1371              		.cfi_startproc
 1372              		@ args = 8, pretend = 0, frame = 0
 1373              		@ frame_needed = 0, uses_anonymous_args = 0
 1374              	.LVL129:
 1375 0000 2DE9F347 		push	{r0, r1, r4, r5, r6, r7, r8, r9, sl, lr}
 1376              	.LCFI13:
 1377              		.cfi_def_cfa_offset 40
 1378              		.cfi_offset 0, -40
 1379              		.cfi_offset 1, -36
 1380              		.cfi_offset 4, -32
 1381              		.cfi_offset 5, -28
 1382              		.cfi_offset 6, -24
 1383              		.cfi_offset 7, -20
 1384              		.cfi_offset 8, -16
 1385              		.cfi_offset 9, -12
 1386              		.cfi_offset 10, -8
 1387              		.cfi_offset 14, -4
 424:c:/Dropbox/AV_SmartWatch/toolchain_v3/src\driver_display.cpp **** 			    uint16_t color) {
 1388              		.loc 1 424 0
 1389 0004 BDF82C50 		ldrh	r5, [sp, #44]
 425:c:/Dropbox/AV_SmartWatch/toolchain_v3/src\driver_display.cpp ****   drawFastHLine(x, y, w, color);
 1390              		.loc 1 425 0
 1391 0008 0768     		ldr	r7, [r0, #0]
 1392 000a 0095     		str	r5, [sp, #0]
 424:c:/Dropbox/AV_SmartWatch/toolchain_v3/src\driver_display.cpp **** 			    uint16_t color) {
 1393              		.loc 1 424 0
 1394 000c 0446     		mov	r4, r0
 1395 000e 9046     		mov	r8, r2
 1396 0010 BDF92860 		ldrsh	r6, [sp, #40]
 425:c:/Dropbox/AV_SmartWatch/toolchain_v3/src\driver_display.cpp ****   drawFastHLine(x, y, w, color);
 1397              		.loc 1 425 0
 1398 0014 BF68     		ldr	r7, [r7, #8]
 424:c:/Dropbox/AV_SmartWatch/toolchain_v3/src\driver_display.cpp **** 			    uint16_t color) {
 1399              		.loc 1 424 0
 1400 0016 9A46     		mov	sl, r3
 1401 0018 8946     		mov	r9, r1
 425:c:/Dropbox/AV_SmartWatch/toolchain_v3/src\driver_display.cpp ****   drawFastHLine(x, y, w, color);
 1402              		.loc 1 425 0
 1403 001a B847     		blx	r7
 1404              	.LVL130:
 426:c:/Dropbox/AV_SmartWatch/toolchain_v3/src\driver_display.cpp ****   drawFastHLine(x, y+h-1, w, color);
 1405              		.loc 1 426 0
 1406 001c 2368     		ldr	r3, [r4, #0]
 1407 001e 08F1FF32 		add	r2, r8, #-1
 1408 0022 0095     		str	r5, [sp, #0]
 1409 0024 9219     		adds	r2, r2, r6
 1410 0026 9F68     		ldr	r7, [r3, #8]
 1411 0028 2046     		mov	r0, r4
 1412 002a 4946     		mov	r1, r9
 1413 002c 5346     		mov	r3, sl
 1414 002e 12B2     		sxth	r2, r2
 1415 0030 B847     		blx	r7
 1416              	.LVL131:
 427:c:/Dropbox/AV_SmartWatch/toolchain_v3/src\driver_display.cpp ****   drawFastVLine(x, y, h, color);
 1417              		.loc 1 427 0
 1418 0032 2068     		ldr	r0, [r4, #0]
 1419 0034 0095     		str	r5, [sp, #0]
 1420 0036 4768     		ldr	r7, [r0, #4]
 1421 0038 4946     		mov	r1, r9
 1422 003a 2046     		mov	r0, r4
 1423 003c 4246     		mov	r2, r8
 1424 003e 3346     		mov	r3, r6
 1425 0040 B847     		blx	r7
 1426              	.LVL132:
 428:c:/Dropbox/AV_SmartWatch/toolchain_v3/src\driver_display.cpp ****   drawFastVLine(x+w-1, y, h, color);
 1427              		.loc 1 428 0
 1428 0042 09F1FF39 		add	r9, r9, #-1
 1429 0046 2368     		ldr	r3, [r4, #0]
 1430 0048 09EB0A01 		add	r1, r9, sl
 1431 004c 0095     		str	r5, [sp, #0]
 1432 004e 5D68     		ldr	r5, [r3, #4]
 1433 0050 2046     		mov	r0, r4
 1434 0052 09B2     		sxth	r1, r1
 1435 0054 4246     		mov	r2, r8
 1436 0056 3346     		mov	r3, r6
 1437 0058 A847     		blx	r5
 1438              	.LVL133:
 429:c:/Dropbox/AV_SmartWatch/toolchain_v3/src\driver_display.cpp **** }
 1439              		.loc 1 429 0
 1440 005a BDE8FC87 		pop	{r2, r3, r4, r5, r6, r7, r8, r9, sl, pc}
 1441              		.cfi_endproc
 1442              	.LFE64:
 1444              		.section	.text._ZN11Arduino_GFX13drawFastVLineEssst,"ax",%progbits
 1445              		.align	1
 1446              		.global	_ZN11Arduino_GFX13drawFastVLineEssst
 1447              		.thumb
 1448              		.thumb_func
 1450              	_ZN11Arduino_GFX13drawFastVLineEssst:
 1451              	.LFB65:
 432:c:/Dropbox/AV_SmartWatch/toolchain_v3/src\driver_display.cpp **** 				 int16_t h, uint16_t color) {
 1452              		.loc 1 432 0
 1453              		.cfi_startproc
 1454              		@ args = 4, pretend = 0, frame = 0
 1455              		@ frame_needed = 0, uses_anonymous_args = 0
 1456              	.LVL134:
 1457 0000 13B5     		push	{r0, r1, r4, lr}
 1458              	.LCFI14:
 1459              		.cfi_def_cfa_offset 16
 1460              		.cfi_offset 0, -16
 1461              		.cfi_offset 1, -12
 1462              		.cfi_offset 4, -8
 1463              		.cfi_offset 14, -4
 434:c:/Dropbox/AV_SmartWatch/toolchain_v3/src\driver_display.cpp ****   drawLine(x, y, x, y+h-1, color);
 1464              		.loc 1 434 0
 1465 0002 541E     		subs	r4, r2, #1
 1466 0004 E318     		adds	r3, r4, r3
 1467              	.LVL135:
 1468 0006 1CB2     		sxth	r4, r3
 1469 0008 BDF81030 		ldrh	r3, [sp, #16]
 1470 000c 0094     		str	r4, [sp, #0]
 1471 000e 0193     		str	r3, [sp, #4]
 1472 0010 0B46     		mov	r3, r1
 1473 0012 FFF7FEFF 		bl	_ZN11Arduino_GFX8drawLineEsssst
 1474              	.LVL136:
 435:c:/Dropbox/AV_SmartWatch/toolchain_v3/src\driver_display.cpp **** }
 1475              		.loc 1 435 0
 1476 0016 1CBD     		pop	{r2, r3, r4, pc}
 1477              		.cfi_endproc
 1478              	.LFE65:
 1480              		.section	.text._ZN11Arduino_GFX13drawFastHLineEssst,"ax",%progbits
 1481              		.align	1
 1482              		.global	_ZN11Arduino_GFX13drawFastHLineEssst
 1483              		.thumb
 1484              		.thumb_func
 1486              	_ZN11Arduino_GFX13drawFastHLineEssst:
 1487              	.LFB66:
 439:c:/Dropbox/AV_SmartWatch/toolchain_v3/src\driver_display.cpp **** 				 int16_t w, uint16_t color) {
 1488              		.loc 1 439 0
 1489              		.cfi_startproc
 1490              		@ args = 4, pretend = 0, frame = 0
 1491              		@ frame_needed = 0, uses_anonymous_args = 0
 1492              	.LVL137:
 1493 0000 13B5     		push	{r0, r1, r4, lr}
 1494              	.LCFI15:
 1495              		.cfi_def_cfa_offset 16
 1496              		.cfi_offset 0, -16
 1497              		.cfi_offset 1, -12
 1498              		.cfi_offset 4, -8
 1499              		.cfi_offset 14, -4
 441:c:/Dropbox/AV_SmartWatch/toolchain_v3/src\driver_display.cpp ****   drawLine(x, y, x+w-1, y, color);
 1500              		.loc 1 441 0
 1501 0002 4C1E     		subs	r4, r1, #1
 1502 0004 E318     		adds	r3, r4, r3
 1503              	.LVL138:
 1504 0006 BDF81040 		ldrh	r4, [sp, #16]
 1505 000a 0092     		str	r2, [sp, #0]
 1506 000c 0194     		str	r4, [sp, #4]
 1507 000e 1BB2     		sxth	r3, r3
 1508 0010 FFF7FEFF 		bl	_ZN11Arduino_GFX8drawLineEsssst
 1509              	.LVL139:
 442:c:/Dropbox/AV_SmartWatch/toolchain_v3/src\driver_display.cpp **** }
 1510              		.loc 1 442 0
 1511 0014 1CBD     		pop	{r2, r3, r4, pc}
 1512              		.cfi_endproc
 1513              	.LFE66:
 1515              		.section	.text._ZN11Arduino_GFX8fillRectEsssst,"ax",%progbits
 1516              		.align	1
 1517              		.global	_ZN11Arduino_GFX8fillRectEsssst
 1518              		.thumb
 1519              		.thumb_func
 1521              	_ZN11Arduino_GFX8fillRectEsssst:
 1522              	.LFB67:
 445:c:/Dropbox/AV_SmartWatch/toolchain_v3/src\driver_display.cpp **** 			    uint16_t color) {
 1523              		.loc 1 445 0
 1524              		.cfi_startproc
 1525              		@ args = 8, pretend = 0, frame = 0
 1526              		@ frame_needed = 0, uses_anonymous_args = 0
 1527              	.LVL140:
 1528 0000 2DE9F347 		push	{r0, r1, r4, r5, r6, r7, r8, r9, sl, lr}
 1529              	.LCFI16:
 1530              		.cfi_def_cfa_offset 40
 1531              		.cfi_offset 0, -40
 1532              		.cfi_offset 1, -36
 1533              		.cfi_offset 4, -32
 1534              		.cfi_offset 5, -28
 1535              		.cfi_offset 6, -24
 1536              		.cfi_offset 7, -20
 1537              		.cfi_offset 8, -16
 1538              		.cfi_offset 9, -12
 1539              		.cfi_offset 10, -8
 1540              		.cfi_offset 14, -4
 445:c:/Dropbox/AV_SmartWatch/toolchain_v3/src\driver_display.cpp **** 			    uint16_t color) {
 1541              		.loc 1 445 0
 1542 0004 BDF928A0 		ldrsh	sl, [sp, #40]
 1543 0008 BDF82C70 		ldrh	r7, [sp, #44]
 1544 000c 0646     		mov	r6, r0
 1545 000e 0D46     		mov	r5, r1
 1546              	.LVL141:
 1547 0010 9146     		mov	r9, r2
 1548 0012 9846     		mov	r8, r3
 1549              	.LBB57:
 447:c:/Dropbox/AV_SmartWatch/toolchain_v3/src\driver_display.cpp ****   for (int16_t i=x; i<x+w; i++) {
 1550              		.loc 1 447 0
 1551 0014 0024     		movs	r4, #0
 1552              	.LVL142:
 1553              	.L67:
 444:c:/Dropbox/AV_SmartWatch/toolchain_v3/src\driver_display.cpp **** void Arduino_GFX::fillRect(int16_t x, int16_t y, int16_t w, int16_t h, 
 1554              		.loc 1 444 0 discriminator 1
 1555 0016 6019     		adds	r0, r4, r5
 447:c:/Dropbox/AV_SmartWatch/toolchain_v3/src\driver_display.cpp ****   for (int16_t i=x; i<x+w; i++) {
 1556              		.loc 1 447 0 discriminator 1
 1557 0018 05EB0803 		add	r3, r5, r8
 1558 001c 9842     		cmp	r0, r3
 444:c:/Dropbox/AV_SmartWatch/toolchain_v3/src\driver_display.cpp **** void Arduino_GFX::fillRect(int16_t x, int16_t y, int16_t w, int16_t h, 
 1559              		.loc 1 444 0 discriminator 1
 1560 001e 81B2     		uxth	r1, r0
 1561              	.LVL143:
 447:c:/Dropbox/AV_SmartWatch/toolchain_v3/src\driver_display.cpp ****   for (int16_t i=x; i<x+w; i++) {
 1562              		.loc 1 447 0 discriminator 1
 1563 0020 0ADA     		bge	.L69
 1564              	.L68:
 448:c:/Dropbox/AV_SmartWatch/toolchain_v3/src\driver_display.cpp ****     drawFastVLine(i, y, h, color); 
 1565              		.loc 1 448 0 discriminator 2
 1566 0022 3268     		ldr	r2, [r6, #0]
 1567 0024 0097     		str	r7, [sp, #0]
 1568 0026 D2F804C0 		ldr	ip, [r2, #4]
 1569 002a 3046     		mov	r0, r6
 1570              	.LVL144:
 1571 002c 09B2     		sxth	r1, r1
 1572              	.LVL145:
 1573 002e 4A46     		mov	r2, r9
 1574 0030 5346     		mov	r3, sl
 1575 0032 E047     		blx	ip
 1576              	.LVL146:
 1577 0034 0134     		adds	r4, r4, #1
 1578              	.LVL147:
 1579 0036 EEE7     		b	.L67
 1580              	.LVL148:
 1581              	.L69:
 1582              	.LBE57:
 450:c:/Dropbox/AV_SmartWatch/toolchain_v3/src\driver_display.cpp **** }
 1583              		.loc 1 450 0
 1584 0038 BDE8FC87 		pop	{r2, r3, r4, r5, r6, r7, r8, r9, sl, pc}
 1585              		.cfi_endproc
 1586              	.LFE67:
 1588              		.section	.text._ZN11Arduino_GFX10fillScreenEt,"ax",%progbits
 1589              		.align	1
 1590              		.global	_ZN11Arduino_GFX10fillScreenEt
 1591              		.thumb
 1592              		.thumb_func
 1594              	_ZN11Arduino_GFX10fillScreenEt:
 1595              	.LFB68:
 453:c:/Dropbox/AV_SmartWatch/toolchain_v3/src\driver_display.cpp **** void Arduino_GFX::fillScreen(uint16_t color) {
 1596              		.loc 1 453 0
 1597              		.cfi_startproc
 1598              		@ args = 0, pretend = 0, frame = 0
 1599              		@ frame_needed = 0, uses_anonymous_args = 0
 1600              	.LVL149:
 1601 0000 13B5     		push	{r0, r1, r4, lr}
 1602              	.LCFI17:
 1603              		.cfi_def_cfa_offset 16
 1604              		.cfi_offset 0, -16
 1605              		.cfi_offset 1, -12
 1606              		.cfi_offset 4, -8
 1607              		.cfi_offset 14, -4
 454:c:/Dropbox/AV_SmartWatch/toolchain_v3/src\driver_display.cpp ****   fillRect(0, 0, _width, _height, color);
 1608              		.loc 1 454 0
 1609 0002 B0F90A20 		ldrsh	r2, [r0, #10]
 1610 0006 0468     		ldr	r4, [r0, #0]
 1611 0008 0092     		str	r2, [sp, #0]
 1612 000a 0191     		str	r1, [sp, #4]
 1613 000c 0021     		movs	r1, #0
 1614              	.LVL150:
 1615 000e B0F90830 		ldrsh	r3, [r0, #8]
 1616 0012 E468     		ldr	r4, [r4, #12]
 1617 0014 0A46     		mov	r2, r1
 1618 0016 A047     		blx	r4
 1619              	.LVL151:
 455:c:/Dropbox/AV_SmartWatch/toolchain_v3/src\driver_display.cpp **** }
 1620              		.loc 1 455 0
 1621 0018 1CBD     		pop	{r2, r3, r4, pc}
 1622              		.cfi_endproc
 1623              	.LFE68:
 1625              		.section	.text._ZN11Arduino_GFX13drawRoundRectEssssst,"ax",%progbits
 1626              		.align	1
 1627              		.global	_ZN11Arduino_GFX13drawRoundRectEssssst
 1628              		.thumb
 1629              		.thumb_func
 1631              	_ZN11Arduino_GFX13drawRoundRectEssssst:
 1632              	.LFB69:
 459:c:/Dropbox/AV_SmartWatch/toolchain_v3/src\driver_display.cpp ****   int16_t h, int16_t r, uint16_t color) {
 1633              		.loc 1 459 0
 1634              		.cfi_startproc
 1635              		@ args = 12, pretend = 0, frame = 24
 1636              		@ frame_needed = 0, uses_anonymous_args = 0
 1637              	.LVL152:
 1638 0000 2DE9F04F 		push	{r4, r5, r6, r7, r8, r9, sl, fp, lr}
 1639              	.LCFI18:
 1640              		.cfi_def_cfa_offset 36
 1641              		.cfi_offset 4, -36
 1642              		.cfi_offset 5, -32
 1643              		.cfi_offset 6, -28
 1644              		.cfi_offset 7, -24
 1645              		.cfi_offset 8, -20
 1646              		.cfi_offset 9, -16
 1647              		.cfi_offset 10, -12
 1648              		.cfi_offset 11, -8
 1649              		.cfi_offset 14, -4
 1650 0004 89B0     		sub	sp, sp, #36
 1651              	.LCFI19:
 1652              		.cfi_def_cfa_offset 72
 459:c:/Dropbox/AV_SmartWatch/toolchain_v3/src\driver_display.cpp ****   int16_t h, int16_t r, uint16_t color) {
 1653              		.loc 1 459 0
 1654 0006 BDF94C60 		ldrsh	r6, [sp, #76]
 1655 000a 0791     		str	r1, [sp, #28]
 461:c:/Dropbox/AV_SmartWatch/toolchain_v3/src\driver_display.cpp ****   drawFastHLine(x+r  , y    , w-2*r, color); // Top
 1656              		.loc 1 461 0
 1657 000c 1FFA86FE 		uxth	lr, r6
 1658 0010 89B2     		uxth	r1, r1
 1659 0012 0EEB0107 		add	r7, lr, r1
 1660 0016 0491     		str	r1, [sp, #16]
 1661 0018 9BB2     		uxth	r3, r3
 1662 001a 6FF00101 		mvn	r1, #1
 1663              	.LVL153:
 1664 001e 0593     		str	r3, [sp, #20]
 1665 0020 01FB0EF3 		mul	r3, r1, lr
 1666              	.LVL154:
 1667 0024 0599     		ldr	r1, [sp, #20]
 459:c:/Dropbox/AV_SmartWatch/toolchain_v3/src\driver_display.cpp ****   int16_t h, int16_t r, uint16_t color) {
 1668              		.loc 1 459 0
 1669 0026 BDF85050 		ldrh	r5, [sp, #80]
 461:c:/Dropbox/AV_SmartWatch/toolchain_v3/src\driver_display.cpp ****   drawFastHLine(x+r  , y    , w-2*r, color); // Top
 1670              		.loc 1 461 0
 1671 002a 9BB2     		uxth	r3, r3
 459:c:/Dropbox/AV_SmartWatch/toolchain_v3/src\driver_display.cpp ****   int16_t h, int16_t r, uint16_t color) {
 1672              		.loc 1 459 0
 1673 002c 9046     		mov	r8, r2
 1674 002e BDF948B0 		ldrsh	fp, [sp, #72]
 461:c:/Dropbox/AV_SmartWatch/toolchain_v3/src\driver_display.cpp ****   drawFastHLine(x+r  , y    , w-2*r, color); // Top
 1675              		.loc 1 461 0
 1676 0032 0693     		str	r3, [sp, #24]
 1677 0034 03EB010A 		add	sl, r3, r1
 1678 0038 0368     		ldr	r3, [r0, #0]
 1679 003a 3FB2     		sxth	r7, r7
 1680 003c 0FFA8AFA 		sxth	sl, sl
 1681 0040 0095     		str	r5, [sp, #0]
 462:c:/Dropbox/AV_SmartWatch/toolchain_v3/src\driver_display.cpp ****   drawFastHLine(x+r  , y+h-1, w-2*r, color); // Bottom
 1682              		.loc 1 462 0
 1683 0042 1FFA88F8 		uxth	r8, r8
 459:c:/Dropbox/AV_SmartWatch/toolchain_v3/src\driver_display.cpp ****   int16_t h, int16_t r, uint16_t color) {
 1684              		.loc 1 459 0
 1685 0046 0446     		mov	r4, r0
 461:c:/Dropbox/AV_SmartWatch/toolchain_v3/src\driver_display.cpp ****   drawFastHLine(x+r  , y    , w-2*r, color); // Top
 1686              		.loc 1 461 0
 1687 0048 CDF80CE0 		str	lr, [sp, #12]
 1688 004c D3F808C0 		ldr	ip, [r3, #8]
 1689 0050 3946     		mov	r1, r7
 1690 0052 5346     		mov	r3, sl
 462:c:/Dropbox/AV_SmartWatch/toolchain_v3/src\driver_display.cpp ****   drawFastHLine(x+r  , y+h-1, w-2*r, color); // Bottom
 1691              		.loc 1 462 0
 1692 0054 08F1FF39 		add	r9, r8, #-1
 1693 0058 1FFA8BFB 		uxth	fp, fp
 461:c:/Dropbox/AV_SmartWatch/toolchain_v3/src\driver_display.cpp ****   drawFastHLine(x+r  , y    , w-2*r, color); // Top
 1694              		.loc 1 461 0
 1695 005c E047     		blx	ip
 1696              	.LVL155:
 462:c:/Dropbox/AV_SmartWatch/toolchain_v3/src\driver_display.cpp ****   drawFastHLine(x+r  , y+h-1, w-2*r, color); // Bottom
 1697              		.loc 1 462 0
 1698 005e 2268     		ldr	r2, [r4, #0]
 1699 0060 0BEB0900 		add	r0, fp, r9
 1700 0064 1FFA80F9 		uxth	r9, r0
 1701 0068 0095     		str	r5, [sp, #0]
 1702 006a D2F808C0 		ldr	ip, [r2, #8]
 1703 006e 2046     		mov	r0, r4
 1704 0070 3946     		mov	r1, r7
 1705 0072 0FFA89F2 		sxth	r2, r9
 1706 0076 5346     		mov	r3, sl
 1707 0078 E047     		blx	ip
 1708              	.LVL156:
 463:c:/Dropbox/AV_SmartWatch/toolchain_v3/src\driver_display.cpp ****   drawFastVLine(  x    , y+r  , h-2*r, color); // Left
 1709              		.loc 1 463 0
 1710 007a DDF818E0 		ldr	lr, [sp, #24]
 1711 007e 0399     		ldr	r1, [sp, #12]
 1712 0080 F344     		add	fp, lr, fp
 1713 0082 2368     		ldr	r3, [r4, #0]
 1714 0084 01EB080A 		add	sl, r1, r8
 1715 0088 0FFA8AF8 		sxth	r8, sl
 1716 008c 0FFA8BFB 		sxth	fp, fp
 1717 0090 0095     		str	r5, [sp, #0]
 1718 0092 D3F804C0 		ldr	ip, [r3, #4]
 1719 0096 2046     		mov	r0, r4
 1720 0098 0799     		ldr	r1, [sp, #28]
 1721 009a 4246     		mov	r2, r8
 1722 009c 5B46     		mov	r3, fp
 1723 009e E047     		blx	ip
 1724              	.LVL157:
 464:c:/Dropbox/AV_SmartWatch/toolchain_v3/src\driver_display.cpp ****   drawFastVLine(  x+w-1, y+r  , h-2*r, color); // Right
 1725              		.loc 1 464 0
 1726 00a0 0498     		ldr	r0, [sp, #16]
 1727 00a2 0599     		ldr	r1, [sp, #20]
 1728 00a4 00F1FF32 		add	r2, r0, #-1
 1729 00a8 2368     		ldr	r3, [r4, #0]
 1730 00aa 01EB020A 		add	sl, r1, r2
 1731 00ae 1FFA8AFA 		uxth	sl, sl
 1732 00b2 0095     		str	r5, [sp, #0]
 1733 00b4 D3F804C0 		ldr	ip, [r3, #4]
 1734 00b8 2046     		mov	r0, r4
 1735 00ba 0FFA8AF1 		sxth	r1, sl
 1736 00be 4246     		mov	r2, r8
 1737 00c0 5B46     		mov	r3, fp
 1738 00c2 E047     		blx	ip
 1739              	.LVL158:
 466:c:/Dropbox/AV_SmartWatch/toolchain_v3/src\driver_display.cpp ****   drawCircleHelper(x+r    , y+r    , r, 1, color);
 1740              		.loc 1 466 0
 1741 00c4 0123     		movs	r3, #1
 1742 00c6 8DE82800 		stmia	sp, {r3, r5}
 1743 00ca 2046     		mov	r0, r4
 1744 00cc 3946     		mov	r1, r7
 1745 00ce 4246     		mov	r2, r8
 1746 00d0 3346     		mov	r3, r6
 1747 00d2 FFF7FEFF 		bl	_ZN11Arduino_GFX16drawCircleHelperEsssht
 1748              	.LVL159:
 467:c:/Dropbox/AV_SmartWatch/toolchain_v3/src\driver_display.cpp ****   drawCircleHelper(x+w-r-1, y+r    , r, 2, color);
 1749              		.loc 1 467 0
 1750 00d6 DDF80CE0 		ldr	lr, [sp, #12]
 1751 00da 0223     		movs	r3, #2
 1752 00dc CEEB0A00 		rsb	r0, lr, sl
 1753 00e0 0FFA80FA 		sxth	sl, r0
 1754 00e4 8DE82800 		stmia	sp, {r3, r5}
 1755 00e8 2046     		mov	r0, r4
 1756 00ea 5146     		mov	r1, sl
 1757 00ec 4246     		mov	r2, r8
 1758 00ee 3346     		mov	r3, r6
 1759 00f0 FFF7FEFF 		bl	_ZN11Arduino_GFX16drawCircleHelperEsssht
 1760              	.LVL160:
 468:c:/Dropbox/AV_SmartWatch/toolchain_v3/src\driver_display.cpp ****   drawCircleHelper(x+w-r-1, y+h-r-1, r, 4, color);
 1761              		.loc 1 468 0
 1762 00f4 039A     		ldr	r2, [sp, #12]
 1763 00f6 0423     		movs	r3, #4
 1764 00f8 C2EB0909 		rsb	r9, r2, r9
 1765 00fc 0FFA89F9 		sxth	r9, r9
 1766 0100 8DE82800 		stmia	sp, {r3, r5}
 1767 0104 2046     		mov	r0, r4
 1768 0106 5146     		mov	r1, sl
 1769 0108 4A46     		mov	r2, r9
 1770 010a 3346     		mov	r3, r6
 1771 010c FFF7FEFF 		bl	_ZN11Arduino_GFX16drawCircleHelperEsssht
 1772              	.LVL161:
 469:c:/Dropbox/AV_SmartWatch/toolchain_v3/src\driver_display.cpp ****   drawCircleHelper(x+r    , y+h-r-1, r, 8, color);
 1773              		.loc 1 469 0
 1774 0110 0821     		movs	r1, #8
 1775 0112 1291     		str	r1, [sp, #72]
 1776 0114 2046     		mov	r0, r4
 1777 0116 3946     		mov	r1, r7
 1778 0118 4A46     		mov	r2, r9
 1779 011a 3346     		mov	r3, r6
 1780 011c 1395     		str	r5, [sp, #76]
 470:c:/Dropbox/AV_SmartWatch/toolchain_v3/src\driver_display.cpp **** }
 1781              		.loc 1 470 0
 1782 011e 09B0     		add	sp, sp, #36
 1783 0120 BDE8F04F 		pop	{r4, r5, r6, r7, r8, r9, sl, fp, lr}
 469:c:/Dropbox/AV_SmartWatch/toolchain_v3/src\driver_display.cpp ****   drawCircleHelper(x+r    , y+h-r-1, r, 8, color);
 1784              		.loc 1 469 0
 1785 0124 FFF7FEBF 		b	_ZN11Arduino_GFX16drawCircleHelperEsssht
 1786              	.LVL162:
 1787              		.cfi_endproc
 1788              	.LFE69:
 1790              		.section	.text._ZN11Arduino_GFX13fillRoundRectEssssst,"ax",%progbits
 1791              		.align	1
 1792              		.global	_ZN11Arduino_GFX13fillRoundRectEssssst
 1793              		.thumb
 1794              		.thumb_func
 1796              	_ZN11Arduino_GFX13fillRoundRectEssssst:
 1797              	.LFB70:
 474:c:/Dropbox/AV_SmartWatch/toolchain_v3/src\driver_display.cpp **** 				 int16_t h, int16_t r, uint16_t color) {
 1798              		.loc 1 474 0
 1799              		.cfi_startproc
 1800              		@ args = 12, pretend = 0, frame = 8
 1801              		@ frame_needed = 0, uses_anonymous_args = 0
 1802              	.LVL163:
 1803 0000 2DE9F04F 		push	{r4, r5, r6, r7, r8, r9, sl, fp, lr}
 1804              	.LCFI20:
 1805              		.cfi_def_cfa_offset 36
 1806              		.cfi_offset 4, -36
 1807              		.cfi_offset 5, -32
 1808              		.cfi_offset 6, -28
 1809              		.cfi_offset 7, -24
 1810              		.cfi_offset 8, -20
 1811              		.cfi_offset 9, -16
 1812              		.cfi_offset 10, -12
 1813              		.cfi_offset 11, -8
 1814              		.cfi_offset 14, -4
 1815 0004 87B0     		sub	sp, sp, #28
 1816              	.LCFI21:
 1817              		.cfi_def_cfa_offset 64
 474:c:/Dropbox/AV_SmartWatch/toolchain_v3/src\driver_display.cpp **** 				 int16_t h, int16_t r, uint16_t color) {
 1818              		.loc 1 474 0
 1819 0006 BDF94460 		ldrsh	r6, [sp, #68]
 476:c:/Dropbox/AV_SmartWatch/toolchain_v3/src\driver_display.cpp ****   fillRect(x+r, y, w-2*r, h, color);
 1820              		.loc 1 476 0
 1821 000a 1FFA83F9 		uxth	r9, r3
 1822 000e B4B2     		uxth	r4, r6
 1823 0010 6FF00103 		mvn	r3, #1
 1824              	.LVL164:
 1825 0014 6343     		muls	r3, r4, r3
 474:c:/Dropbox/AV_SmartWatch/toolchain_v3/src\driver_display.cpp **** 				 int16_t h, int16_t r, uint16_t color) {
 1826              		.loc 1 474 0
 1827 0016 BDF84850 		ldrh	r5, [sp, #72]
 1828 001a BDF940B0 		ldrsh	fp, [sp, #64]
 476:c:/Dropbox/AV_SmartWatch/toolchain_v3/src\driver_display.cpp ****   fillRect(x+r, y, w-2*r, h, color);
 1829              		.loc 1 476 0
 1830 001e 1FFA81FA 		uxth	sl, r1
 1831 0022 04EB0A08 		add	r8, r4, sl
 1832 0026 0168     		ldr	r1, [r0, #0]
 1833              	.LVL165:
 1834 0028 9BB2     		uxth	r3, r3
 1835 002a CDF800B0 		str	fp, [sp, #0]
 1836 002e 0493     		str	r3, [sp, #16]
 1837 0030 0FFA88F8 		sxth	r8, r8
 1838 0034 0195     		str	r5, [sp, #4]
 1839 0036 4B44     		add	r3, r3, r9
 1840 0038 D1F80CC0 		ldr	ip, [r1, #12]
 474:c:/Dropbox/AV_SmartWatch/toolchain_v3/src\driver_display.cpp **** 				 int16_t h, int16_t r, uint16_t color) {
 1841              		.loc 1 474 0
 1842 003c 0592     		str	r2, [sp, #20]
 476:c:/Dropbox/AV_SmartWatch/toolchain_v3/src\driver_display.cpp ****   fillRect(x+r, y, w-2*r, h, color);
 1843              		.loc 1 476 0
 1844 003e 4146     		mov	r1, r8
 1845 0040 1BB2     		sxth	r3, r3
 474:c:/Dropbox/AV_SmartWatch/toolchain_v3/src\driver_display.cpp **** 				 int16_t h, int16_t r, uint16_t color) {
 1846              		.loc 1 474 0
 1847 0042 0746     		mov	r7, r0
 479:c:/Dropbox/AV_SmartWatch/toolchain_v3/src\driver_display.cpp ****   fillCircleHelper(x+w-r-1, y+r, r, 1, h-2*r-1, color);
 1848              		.loc 1 479 0
 1849 0044 0AF1FF3A 		add	sl, sl, #-1
 1850              	.LVL166:
 476:c:/Dropbox/AV_SmartWatch/toolchain_v3/src\driver_display.cpp ****   fillRect(x+r, y, w-2*r, h, color);
 1851              		.loc 1 476 0
 1852 0048 E047     		blx	ip
 1853              	.LVL167:
 479:c:/Dropbox/AV_SmartWatch/toolchain_v3/src\driver_display.cpp ****   fillCircleHelper(x+w-r-1, y+r, r, 1, h-2*r-1, color);
 1854              		.loc 1 479 0
 1855 004a 059A     		ldr	r2, [sp, #20]
 1856 004c DDF810E0 		ldr	lr, [sp, #16]
 1857 0050 D144     		add	r9, r9, sl
 1858              	.LVL168:
 1859 0052 0BF1FF3B 		add	fp, fp, #-1
 1860 0056 A018     		adds	r0, r4, r2
 1861 0058 F344     		add	fp, lr, fp
 1862 005a C4EB0901 		rsb	r1, r4, r9
 1863 005e 0124     		movs	r4, #1
 1864 0060 0FFA80FA 		sxth	sl, r0
 1865              	.LVL169:
 1866 0064 0094     		str	r4, [sp, #0]
 1867 0066 0FFA8BF4 		sxth	r4, fp
 1868 006a 3846     		mov	r0, r7
 1869 006c 5246     		mov	r2, sl
 1870 006e 3346     		mov	r3, r6
 1871 0070 0194     		str	r4, [sp, #4]
 1872 0072 0295     		str	r5, [sp, #8]
 1873 0074 09B2     		sxth	r1, r1
 1874 0076 FFF7FEFF 		bl	_ZN11Arduino_GFX16fillCircleHelperEssshst
 1875              	.LVL170:
 480:c:/Dropbox/AV_SmartWatch/toolchain_v3/src\driver_display.cpp ****   fillCircleHelper(x+r    , y+r, r, 2, h-2*r-1, color);
 1876              		.loc 1 480 0
 1877 007a 0223     		movs	r3, #2
 1878 007c 1093     		str	r3, [sp, #64]
 1879 007e 3846     		mov	r0, r7
 1880 0080 4146     		mov	r1, r8
 1881 0082 5246     		mov	r2, sl
 1882 0084 3346     		mov	r3, r6
 1883 0086 1194     		str	r4, [sp, #68]
 1884 0088 1295     		str	r5, [sp, #72]
 481:c:/Dropbox/AV_SmartWatch/toolchain_v3/src\driver_display.cpp **** }
 1885              		.loc 1 481 0
 1886 008a 07B0     		add	sp, sp, #28
 1887 008c BDE8F04F 		pop	{r4, r5, r6, r7, r8, r9, sl, fp, lr}
 480:c:/Dropbox/AV_SmartWatch/toolchain_v3/src\driver_display.cpp ****   fillCircleHelper(x+r    , y+r, r, 2, h-2*r-1, color);
 1888              		.loc 1 480 0
 1889 0090 FFF7FEBF 		b	_ZN11Arduino_GFX16fillCircleHelperEssshst
 1890              	.LVL171:
 1891              		.cfi_endproc
 1892              	.LFE70:
 1894              		.section	.text._ZN11Arduino_GFX12drawTriangleEsssssst,"ax",%progbits
 1895              		.align	1
 1896              		.global	_ZN11Arduino_GFX12drawTriangleEsssssst
 1897              		.thumb
 1898              		.thumb_func
 1900              	_ZN11Arduino_GFX12drawTriangleEsssssst:
 1901              	.LFB71:
 486:c:/Dropbox/AV_SmartWatch/toolchain_v3/src\driver_display.cpp **** 				int16_t x2, int16_t y2, uint16_t color) {
 1902              		.loc 1 486 0
 1903              		.cfi_startproc
 1904              		@ args = 16, pretend = 0, frame = 0
 1905              		@ frame_needed = 0, uses_anonymous_args = 0
 1906              	.LVL172:
 1907 0000 2DE9F74F 		push	{r0, r1, r2, r4, r5, r6, r7, r8, r9, sl, fp, lr}
 1908              	.LCFI22:
 1909              		.cfi_def_cfa_offset 48
 1910              		.cfi_offset 0, -48
 1911              		.cfi_offset 1, -44
 1912              		.cfi_offset 2, -40
 1913              		.cfi_offset 4, -36
 1914              		.cfi_offset 5, -32
 1915              		.cfi_offset 6, -28
 1916              		.cfi_offset 7, -24
 1917              		.cfi_offset 8, -20
 1918              		.cfi_offset 9, -16
 1919              		.cfi_offset 10, -12
 1920              		.cfi_offset 11, -8
 1921              		.cfi_offset 14, -4
 486:c:/Dropbox/AV_SmartWatch/toolchain_v3/src\driver_display.cpp **** 				int16_t x2, int16_t y2, uint16_t color) {
 1922              		.loc 1 486 0
 1923 0004 BDF83C40 		ldrh	r4, [sp, #60]
 1924 0008 BDF93080 		ldrsh	r8, [sp, #48]
 1925 000c BDF93460 		ldrsh	r6, [sp, #52]
 1926 0010 BDF93850 		ldrsh	r5, [sp, #56]
 1927 0014 0746     		mov	r7, r0
 1928 0016 9B46     		mov	fp, r3
 487:c:/Dropbox/AV_SmartWatch/toolchain_v3/src\driver_display.cpp ****   drawLine(x0, y0, x1, y1, color);
 1929              		.loc 1 487 0
 1930 0018 CDF80080 		str	r8, [sp, #0]
 1931 001c 0194     		str	r4, [sp, #4]
 486:c:/Dropbox/AV_SmartWatch/toolchain_v3/src\driver_display.cpp **** 				int16_t x2, int16_t y2, uint16_t color) {
 1932              		.loc 1 486 0
 1933 001e 8A46     		mov	sl, r1
 1934 0020 9146     		mov	r9, r2
 487:c:/Dropbox/AV_SmartWatch/toolchain_v3/src\driver_display.cpp ****   drawLine(x0, y0, x1, y1, color);
 1935              		.loc 1 487 0
 1936 0022 FFF7FEFF 		bl	_ZN11Arduino_GFX8drawLineEsssst
 1937              	.LVL173:
 488:c:/Dropbox/AV_SmartWatch/toolchain_v3/src\driver_display.cpp ****   drawLine(x1, y1, x2, y2, color);
 1938              		.loc 1 488 0
 1939 0026 3846     		mov	r0, r7
 1940 0028 5946     		mov	r1, fp
 1941 002a 4246     		mov	r2, r8
 1942 002c 3346     		mov	r3, r6
 1943 002e 0095     		str	r5, [sp, #0]
 1944 0030 0194     		str	r4, [sp, #4]
 1945 0032 FFF7FEFF 		bl	_ZN11Arduino_GFX8drawLineEsssst
 1946              	.LVL174:
 489:c:/Dropbox/AV_SmartWatch/toolchain_v3/src\driver_display.cpp ****   drawLine(x2, y2, x0, y0, color);
 1947              		.loc 1 489 0
 1948 0036 3846     		mov	r0, r7
 1949 0038 3146     		mov	r1, r6
 1950 003a 2A46     		mov	r2, r5
 1951 003c 5346     		mov	r3, sl
 1952 003e CDF83090 		str	r9, [sp, #48]
 1953 0042 0D94     		str	r4, [sp, #52]
 490:c:/Dropbox/AV_SmartWatch/toolchain_v3/src\driver_display.cpp **** }
 1954              		.loc 1 490 0
 1955 0044 03B0     		add	sp, sp, #12
 1956 0046 BDE8F04F 		pop	{r4, r5, r6, r7, r8, r9, sl, fp, lr}
 489:c:/Dropbox/AV_SmartWatch/toolchain_v3/src\driver_display.cpp ****   drawLine(x2, y2, x0, y0, color);
 1957              		.loc 1 489 0
 1958 004a FFF7FEBF 		b	_ZN11Arduino_GFX8drawLineEsssst
 1959              	.LVL175:
 1960              		.cfi_endproc
 1961              	.LFE71:
 1963              		.section	.text._ZN11Arduino_GFX12fillTriangleEsssssst,"ax",%progbits
 1964              		.align	1
 1965              		.global	_ZN11Arduino_GFX12fillTriangleEsssssst
 1966              		.thumb
 1967              		.thumb_func
 1969              	_ZN11Arduino_GFX12fillTriangleEsssssst:
 1970              	.LFB72:
 495:c:/Dropbox/AV_SmartWatch/toolchain_v3/src\driver_display.cpp **** 				  int16_t x2, int16_t y2, uint16_t color) {
 1971              		.loc 1 495 0
 1972              		.cfi_startproc
 1973              		@ args = 16, pretend = 0, frame = 40
 1974              		@ frame_needed = 0, uses_anonymous_args = 0
 1975              	.LVL176:
 1976 0000 2DE9F04F 		push	{r4, r5, r6, r7, r8, r9, sl, fp, lr}
 1977              	.LCFI23:
 1978              		.cfi_def_cfa_offset 36
 1979              		.cfi_offset 4, -36
 1980              		.cfi_offset 5, -32
 1981              		.cfi_offset 6, -28
 1982              		.cfi_offset 7, -24
 1983              		.cfi_offset 8, -20
 1984              		.cfi_offset 9, -16
 1985              		.cfi_offset 10, -12
 1986              		.cfi_offset 11, -8
 1987              		.cfi_offset 14, -4
 1988 0004 8DB0     		sub	sp, sp, #52
 1989              	.LCFI24:
 1990              		.cfi_def_cfa_offset 88
 495:c:/Dropbox/AV_SmartWatch/toolchain_v3/src\driver_display.cpp **** 				  int16_t x2, int16_t y2, uint16_t color) {
 1991              		.loc 1 495 0
 1992 0006 BDF95840 		ldrsh	r4, [sp, #88]
 1993 000a 1546     		mov	r5, r2
 1994 000c 8046     		mov	r8, r0
 1995 000e BDF86400 		ldrh	r0, [sp, #100]
 1996              	.LVL177:
 1997              	.LBB58:
 500:c:/Dropbox/AV_SmartWatch/toolchain_v3/src\driver_display.cpp ****   if (y0 > y1) {
 1998              		.loc 1 500 0
 1999 0012 A542     		cmp	r5, r4
 2000              	.LBE58:
 495:c:/Dropbox/AV_SmartWatch/toolchain_v3/src\driver_display.cpp **** 				  int16_t x2, int16_t y2, uint16_t color) {
 2001              		.loc 1 495 0
 2002 0014 BDF95C20 		ldrsh	r2, [sp, #92]
 2003              	.LVL178:
 2004 0018 BDF96070 		ldrsh	r7, [sp, #96]
 2005 001c 0590     		str	r0, [sp, #20]
 2006              	.LBB59:
 500:c:/Dropbox/AV_SmartWatch/toolchain_v3/src\driver_display.cpp ****   if (y0 > y1) {
 2007              		.loc 1 500 0
 2008 001e 05DD     		ble	.L75
 501:c:/Dropbox/AV_SmartWatch/toolchain_v3/src\driver_display.cpp ****     swap(y0, y1); swap(x0, x1);
 2009              		.loc 1 501 0
 2010 0020 6540     		eors	r5, r5, r4
 2011              	.LVL179:
 2012 0022 5940     		eors	r1, r1, r3
 2013              	.LVL180:
 2014 0024 6C40     		eors	r4, r4, r5
 2015              	.LVL181:
 2016 0026 4B40     		eors	r3, r3, r1
 2017              	.LVL182:
 2018 0028 6540     		eors	r5, r5, r4
 2019              	.LVL183:
 2020 002a 5940     		eors	r1, r1, r3
 2021              	.LVL184:
 2022              	.L75:
 503:c:/Dropbox/AV_SmartWatch/toolchain_v3/src\driver_display.cpp ****   if (y1 > y2) {
 2023              		.loc 1 503 0
 2024 002c BC42     		cmp	r4, r7
 2025 002e 0BDD     		ble	.L76
 504:c:/Dropbox/AV_SmartWatch/toolchain_v3/src\driver_display.cpp ****     swap(y2, y1); swap(x2, x1);
 2026              		.loc 1 504 0
 2027 0030 6740     		eors	r7, r7, r4
 2028              	.LVL185:
 2029 0032 5A40     		eors	r2, r2, r3
 2030 0034 7C40     		eors	r4, r4, r7
 2031              	.LVL186:
 2032 0036 5340     		eors	r3, r3, r2
 2033              	.LVL187:
 2034 0038 24B2     		sxth	r4, r4
 2035              	.LVL188:
 2036 003a 84EA0700 		eor	r0, r4, r7
 2037 003e 1BB2     		sxth	r3, r3
 2038 0040 07B2     		sxth	r7, r0
 2039              	.LVL189:
 2040 0042 83EA0200 		eor	r0, r3, r2
 2041              	.LVL190:
 2042 0046 02B2     		sxth	r2, r0
 2043              	.LVL191:
 2044              	.L76:
 506:c:/Dropbox/AV_SmartWatch/toolchain_v3/src\driver_display.cpp ****   if (y0 > y1) {
 2045              		.loc 1 506 0
 2046 0048 A542     		cmp	r5, r4
 2047 004a 0BDD     		ble	.L77
 507:c:/Dropbox/AV_SmartWatch/toolchain_v3/src\driver_display.cpp ****     swap(y0, y1); swap(x0, x1);
 2048              		.loc 1 507 0
 2049 004c 6540     		eors	r5, r5, r4
 2050              	.LVL192:
 2051 004e 5940     		eors	r1, r1, r3
 2052              	.LVL193:
 2053 0050 6C40     		eors	r4, r4, r5
 2054              	.LVL194:
 2055 0052 4B40     		eors	r3, r3, r1
 2056              	.LVL195:
 2057 0054 24B2     		sxth	r4, r4
 2058              	.LVL196:
 2059 0056 84EA0500 		eor	r0, r4, r5
 2060 005a 1BB2     		sxth	r3, r3
 2061 005c 05B2     		sxth	r5, r0
 2062              	.LVL197:
 2063 005e 83EA0100 		eor	r0, r3, r1
 2064              	.LVL198:
 2065 0062 01B2     		sxth	r1, r0
 2066              	.LVL199:
 2067              	.L77:
 510:c:/Dropbox/AV_SmartWatch/toolchain_v3/src\driver_display.cpp ****   if(y0 == y2) { // Handle awkward all-on-same-line case as its own thing
 2068              		.loc 1 510 0
 2069 0064 BD42     		cmp	r5, r7
 2070 0066 1ED1     		bne	.L78
 2071              	.LVL200:
 512:c:/Dropbox/AV_SmartWatch/toolchain_v3/src\driver_display.cpp ****     if(x1 < a)      a = x1;
 2072              		.loc 1 512 0
 2073 0068 8B42     		cmp	r3, r1
 2074 006a 02DB     		blt	.L89
 513:c:/Dropbox/AV_SmartWatch/toolchain_v3/src\driver_display.cpp ****     else if(x1 > b) b = x1;
 2075              		.loc 1 513 0
 2076 006c 04DC     		bgt	.L90
 2077 006e 0C46     		mov	r4, r1
 2078              	.LVL201:
 2079 0070 03E0     		b	.L79
 2080              	.LVL202:
 2081              	.L89:
 512:c:/Dropbox/AV_SmartWatch/toolchain_v3/src\driver_display.cpp ****     if(x1 < a)      a = x1;
 2082              		.loc 1 512 0
 2083 0072 0C46     		mov	r4, r1
 2084              	.LVL203:
 2085 0074 1946     		mov	r1, r3
 2086              	.LVL204:
 2087 0076 00E0     		b	.L79
 2088              	.LVL205:
 2089              	.L90:
 513:c:/Dropbox/AV_SmartWatch/toolchain_v3/src\driver_display.cpp ****     else if(x1 > b) b = x1;
 2090              		.loc 1 513 0
 2091 0078 1C46     		mov	r4, r3
 2092              	.LVL206:
 2093              	.L79:
 514:c:/Dropbox/AV_SmartWatch/toolchain_v3/src\driver_display.cpp ****     if(x2 < a)      a = x2;
 2094              		.loc 1 514 0
 2095 007a 0BB2     		sxth	r3, r1
 2096              	.LVL207:
 2097 007c 9A42     		cmp	r2, r3
 2098 007e 04DB     		blt	.L91
 515:c:/Dropbox/AV_SmartWatch/toolchain_v3/src\driver_display.cpp ****     else if(x2 > b) b = x2;
 2099              		.loc 1 515 0
 2100 0080 20B2     		sxth	r0, r4
 2101 0082 8242     		cmp	r2, r0
 2102 0084 C8BF     		it	gt
 2103 0086 1446     		movgt	r4, r2
 2104              	.LVL208:
 2105 0088 00E0     		b	.L80
 2106              	.LVL209:
 2107              	.L91:
 514:c:/Dropbox/AV_SmartWatch/toolchain_v3/src\driver_display.cpp ****     if(x2 < a)      a = x2;
 2108              		.loc 1 514 0
 2109 008a 1146     		mov	r1, r2
 2110              	.LVL210:
 2111              	.L80:
 516:c:/Dropbox/AV_SmartWatch/toolchain_v3/src\driver_display.cpp ****     drawFastHLine(a, y0, b-a+1, color);
 2112              		.loc 1 516 0
 2113 008c 0598     		ldr	r0, [sp, #20]
 2114 008e D8F80020 		ldr	r2, [r8, #0]
 2115              	.LVL211:
 2116 0092 0134     		adds	r4, r4, #1
 2117              	.LVL212:
 2118 0094 631A     		subs	r3, r4, r1
 2119 0096 0090     		str	r0, [sp, #0]
 2120 0098 9468     		ldr	r4, [r2, #8]
 2121              	.LVL213:
 2122 009a 4046     		mov	r0, r8
 2123 009c 09B2     		sxth	r1, r1
 2124              	.LVL214:
 2125 009e 2A46     		mov	r2, r5
 2126 00a0 1BB2     		sxth	r3, r3
 2127 00a2 A047     		blx	r4
 2128              	.LVL215:
 517:c:/Dropbox/AV_SmartWatch/toolchain_v3/src\driver_display.cpp ****     return;
 2129              		.loc 1 517 0
 2130 00a4 A7E0     		b	.L74
 2131              	.LVL216:
 2132              	.L78:
 521:c:/Dropbox/AV_SmartWatch/toolchain_v3/src\driver_display.cpp ****     dx01 = x1 - x0,
 2133              		.loc 1 521 0
 2134 00a6 9EB2     		uxth	r6, r3
 2135 00a8 1FFA81F9 		uxth	r9, r1
 2136 00ac C9EB0601 		rsb	r1, r9, r6
 2137              	.LVL217:
 2138 00b0 0396     		str	r6, [sp, #12]
 522:c:/Dropbox/AV_SmartWatch/toolchain_v3/src\driver_display.cpp ****     dy01 = y1 - y0,
 2139              		.loc 1 522 0
 2140 00b2 A8B2     		uxth	r0, r5
 2141 00b4 A6B2     		uxth	r6, r4
 521:c:/Dropbox/AV_SmartWatch/toolchain_v3/src\driver_display.cpp ****     dx01 = x1 - x0,
 2142              		.loc 1 521 0
 2143 00b6 8BB2     		uxth	r3, r1
 2144              	.LVL218:
 523:c:/Dropbox/AV_SmartWatch/toolchain_v3/src\driver_display.cpp ****     dx02 = x2 - x0,
 2145              		.loc 1 523 0
 2146 00b8 92B2     		uxth	r2, r2
 2147              	.LVL219:
 522:c:/Dropbox/AV_SmartWatch/toolchain_v3/src\driver_display.cpp ****     dy01 = y1 - y0,
 2148              		.loc 1 522 0
 2149 00ba 311A     		subs	r1, r6, r0
 521:c:/Dropbox/AV_SmartWatch/toolchain_v3/src\driver_display.cpp ****     dx01 = x1 - x0,
 2150              		.loc 1 521 0
 2151 00bc 0993     		str	r3, [sp, #36]
 2152              	.LVL220:
 522:c:/Dropbox/AV_SmartWatch/toolchain_v3/src\driver_display.cpp ****     dy01 = y1 - y0,
 2153              		.loc 1 522 0
 2154 00be 8BB2     		uxth	r3, r1
 523:c:/Dropbox/AV_SmartWatch/toolchain_v3/src\driver_display.cpp ****     dx02 = x2 - x0,
 2155              		.loc 1 523 0
 2156 00c0 C9EB0201 		rsb	r1, r9, r2
 522:c:/Dropbox/AV_SmartWatch/toolchain_v3/src\driver_display.cpp ****     dy01 = y1 - y0,
 2157              		.loc 1 522 0
 2158 00c4 0A93     		str	r3, [sp, #40]
 2159              	.LVL221:
 523:c:/Dropbox/AV_SmartWatch/toolchain_v3/src\driver_display.cpp ****     dx02 = x2 - x0,
 2160              		.loc 1 523 0
 2161 00c6 8BB2     		uxth	r3, r1
 524:c:/Dropbox/AV_SmartWatch/toolchain_v3/src\driver_display.cpp ****     dy02 = y2 - y0,
 2162              		.loc 1 524 0
 2163 00c8 B9B2     		uxth	r1, r7
 2164 00ca 081A     		subs	r0, r1, r0
 523:c:/Dropbox/AV_SmartWatch/toolchain_v3/src\driver_display.cpp ****     dx02 = x2 - x0,
 2165              		.loc 1 523 0
 2166 00cc 0493     		str	r3, [sp, #16]
 2167              	.LVL222:
 524:c:/Dropbox/AV_SmartWatch/toolchain_v3/src\driver_display.cpp ****     dy02 = y2 - y0,
 2168              		.loc 1 524 0
 2169 00ce 83B2     		uxth	r3, r0
 525:c:/Dropbox/AV_SmartWatch/toolchain_v3/src\driver_display.cpp ****     dx12 = x2 - x1,
 2170              		.loc 1 525 0
 2171 00d0 0398     		ldr	r0, [sp, #12]
 526:c:/Dropbox/AV_SmartWatch/toolchain_v3/src\driver_display.cpp ****     dy12 = y2 - y1,
 2172              		.loc 1 526 0
 2173 00d2 891B     		subs	r1, r1, r6
 525:c:/Dropbox/AV_SmartWatch/toolchain_v3/src\driver_display.cpp ****     dx12 = x2 - x1,
 2174              		.loc 1 525 0
 2175 00d4 121A     		subs	r2, r2, r0
 524:c:/Dropbox/AV_SmartWatch/toolchain_v3/src\driver_display.cpp ****     dy02 = y2 - y0,
 2176              		.loc 1 524 0
 2177 00d6 0793     		str	r3, [sp, #28]
 2178              	.LVL223:
 526:c:/Dropbox/AV_SmartWatch/toolchain_v3/src\driver_display.cpp ****     dy12 = y2 - y1,
 2179              		.loc 1 526 0
 2180 00d8 88B2     		uxth	r0, r1
 525:c:/Dropbox/AV_SmartWatch/toolchain_v3/src\driver_display.cpp ****     dx12 = x2 - x1,
 2181              		.loc 1 525 0
 2182 00da 93B2     		uxth	r3, r2
 536:c:/Dropbox/AV_SmartWatch/toolchain_v3/src\driver_display.cpp ****   if(y1 == y2) last = y1;   // Include y1 scanline
 2183              		.loc 1 536 0
 2184 00dc BC42     		cmp	r4, r7
 525:c:/Dropbox/AV_SmartWatch/toolchain_v3/src\driver_display.cpp ****     dx12 = x2 - x1,
 2185              		.loc 1 525 0
 2186 00de 0893     		str	r3, [sp, #32]
 2187              	.LVL224:
 526:c:/Dropbox/AV_SmartWatch/toolchain_v3/src\driver_display.cpp ****     dy12 = y2 - y1,
 2188              		.loc 1 526 0
 2189 00e0 0B90     		str	r0, [sp, #44]
 2190              	.LVL225:
 536:c:/Dropbox/AV_SmartWatch/toolchain_v3/src\driver_display.cpp ****   if(y1 == y2) last = y1;   // Include y1 scanline
 2191              		.loc 1 536 0
 2192 00e2 03D0     		beq	.L93
 537:c:/Dropbox/AV_SmartWatch/toolchain_v3/src\driver_display.cpp ****   else         last = y1-1; // Skip it
 2193              		.loc 1 537 0
 2194 00e4 013E     		subs	r6, r6, #1
 2195 00e6 B2B2     		uxth	r2, r6
 2196 00e8 0692     		str	r2, [sp, #24]
 2197              	.LVL226:
 2198 00ea 00E0     		b	.L82
 2199              	.LVL227:
 2200              	.L93:
 536:c:/Dropbox/AV_SmartWatch/toolchain_v3/src\driver_display.cpp ****   if(y1 == y2) last = y1;   // Include y1 scanline
 2201              		.loc 1 536 0
 2202 00ec 0694     		str	r4, [sp, #24]
 2203              	.L82:
 2204              	.LVL228:
 528:c:/Dropbox/AV_SmartWatch/toolchain_v3/src\driver_display.cpp ****     sb   = 0;
 2205              		.loc 1 528 0
 2206 00ee 4FF0000A 		mov	sl, #0
 539:c:/Dropbox/AV_SmartWatch/toolchain_v3/src\driver_display.cpp ****   for(y=y0; y<=last; y++) {
 2207              		.loc 1 539 0
 2208 00f2 2E46     		mov	r6, r5
 527:c:/Dropbox/AV_SmartWatch/toolchain_v3/src\driver_display.cpp ****     sa   = 0,
 2209              		.loc 1 527 0
 2210 00f4 D346     		mov	fp, sl
 2211              	.LVL229:
 2212              	.L83:
 539:c:/Dropbox/AV_SmartWatch/toolchain_v3/src\driver_display.cpp ****   for(y=y0; y<=last; y++) {
 2213              		.loc 1 539 0 discriminator 1
 2214 00f6 0699     		ldr	r1, [sp, #24]
 2215 00f8 33B2     		sxth	r3, r6
 2216 00fa 08B2     		sxth	r0, r1
 2217 00fc 8342     		cmp	r3, r0
 2218 00fe 38DC     		bgt	.L94
 2219              	.L85:
 540:c:/Dropbox/AV_SmartWatch/toolchain_v3/src\driver_display.cpp ****     a   = x0 + sa / dy01;
 2220              		.loc 1 540 0
 2221 0100 0A99     		ldr	r1, [sp, #40]
 2222 0102 0FFA8BF2 		sxth	r2, fp
 2223 0106 0BB2     		sxth	r3, r1
 541:c:/Dropbox/AV_SmartWatch/toolchain_v3/src\driver_display.cpp ****     b   = x0 + sb / dy02;
 2224              		.loc 1 541 0
 2225 0108 DDF81CE0 		ldr	lr, [sp, #28]
 540:c:/Dropbox/AV_SmartWatch/toolchain_v3/src\driver_display.cpp ****     a   = x0 + sa / dy01;
 2226              		.loc 1 540 0
 2227 010c 92FBF3F0 		sdiv	r0, r2, r3
 541:c:/Dropbox/AV_SmartWatch/toolchain_v3/src\driver_display.cpp ****     b   = x0 + sb / dy02;
 2228              		.loc 1 541 0
 2229 0110 0FFA8EF1 		sxth	r1, lr
 540:c:/Dropbox/AV_SmartWatch/toolchain_v3/src\driver_display.cpp ****     a   = x0 + sa / dy01;
 2230              		.loc 1 540 0
 2231 0114 09EB0002 		add	r2, r9, r0
 541:c:/Dropbox/AV_SmartWatch/toolchain_v3/src\driver_display.cpp ****     b   = x0 + sb / dy02;
 2232              		.loc 1 541 0
 2233 0118 0FFA8AF0 		sxth	r0, sl
 2234 011c 90FBF1F0 		sdiv	r0, r0, r1
 2235 0120 09EB0001 		add	r1, r9, r0
 540:c:/Dropbox/AV_SmartWatch/toolchain_v3/src\driver_display.cpp ****     a   = x0 + sa / dy01;
 2236              		.loc 1 540 0
 2237 0124 92B2     		uxth	r2, r2
 541:c:/Dropbox/AV_SmartWatch/toolchain_v3/src\driver_display.cpp ****     b   = x0 + sb / dy02;
 2238              		.loc 1 541 0
 2239 0126 88B2     		uxth	r0, r1
 493:c:/Dropbox/AV_SmartWatch/toolchain_v3/src\driver_display.cpp **** void Arduino_GFX::fillTriangle ( int16_t x0, int16_t y0,
 2240              		.loc 1 493 0
 2241 0128 DDF824C0 		ldr	ip, [sp, #36]
 2242 012c DDF810E0 		ldr	lr, [sp, #16]
 541:c:/Dropbox/AV_SmartWatch/toolchain_v3/src\driver_display.cpp ****     b   = x0 + sb / dy02;
 2243              		.loc 1 541 0
 2244 0130 81B2     		uxth	r1, r0
 540:c:/Dropbox/AV_SmartWatch/toolchain_v3/src\driver_display.cpp ****     a   = x0 + sa / dy01;
 2245              		.loc 1 540 0
 2246 0132 93B2     		uxth	r3, r2
 2247              	.LVL230:
 493:c:/Dropbox/AV_SmartWatch/toolchain_v3/src\driver_display.cpp **** void Arduino_GFX::fillTriangle ( int16_t x0, int16_t y0,
 2248              		.loc 1 493 0
 2249 0134 E344     		add	fp, ip, fp
 2250              	.LVL231:
 2251 0136 F244     		add	sl, lr, sl
 2252              	.LVL232:
 544:c:/Dropbox/AV_SmartWatch/toolchain_v3/src\driver_display.cpp ****     if(a > b) swap(a,b);
 2253              		.loc 1 544 0
 2254 0138 0FFA83FC 		sxth	ip, r3
 2255 013c 0FFA81FE 		sxth	lr, r1
 2256 0140 F445     		cmp	ip, lr
 2257 0142 C8BF     		it	gt
 2258 0144 80EA0203 		eorgt	r3, r0, r2
 2259 0148 4B40     		eors	r3, r3, r1
 545:c:/Dropbox/AV_SmartWatch/toolchain_v3/src\driver_display.cpp ****     drawFastHLine(a, y, b-a+1, color);
 2260              		.loc 1 545 0
 2261 014a 0598     		ldr	r0, [sp, #20]
 2262              	.LVL233:
 2263 014c D8F80020 		ldr	r2, [r8, #0]
 2264              	.LVL234:
 2265 0150 0133     		adds	r3, r3, #1
 2266 0152 0090     		str	r0, [sp, #0]
 2267 0154 5B1A     		subs	r3, r3, r1
 2268 0156 D2F808C0 		ldr	ip, [r2, #8]
 2269 015a 4046     		mov	r0, r8
 2270 015c 32B2     		sxth	r2, r6
 2271 015e 09B2     		sxth	r1, r1
 2272              	.LVL235:
 2273 0160 1BB2     		sxth	r3, r3
 539:c:/Dropbox/AV_SmartWatch/toolchain_v3/src\driver_display.cpp ****   for(y=y0; y<=last; y++) {
 2274              		.loc 1 539 0
 2275 0162 0136     		adds	r6, r6, #1
 2276              	.LVL236:
 493:c:/Dropbox/AV_SmartWatch/toolchain_v3/src\driver_display.cpp **** void Arduino_GFX::fillTriangle ( int16_t x0, int16_t y0,
 2277              		.loc 1 493 0
 2278 0164 1FFA8BFB 		uxth	fp, fp
 2279              	.LVL237:
 2280 0168 1FFA8AFA 		uxth	sl, sl
 2281              	.LVL238:
 545:c:/Dropbox/AV_SmartWatch/toolchain_v3/src\driver_display.cpp ****     drawFastHLine(a, y, b-a+1, color);
 2282              		.loc 1 545 0
 2283 016c E047     		blx	ip
 2284              	.LVL239:
 539:c:/Dropbox/AV_SmartWatch/toolchain_v3/src\driver_display.cpp ****   for(y=y0; y<=last; y++) {
 2285              		.loc 1 539 0
 2286 016e B6B2     		uxth	r6, r6
 2287              	.LVL240:
 2288 0170 C1E7     		b	.L83
 2289              	.L94:
 550:c:/Dropbox/AV_SmartWatch/toolchain_v3/src\driver_display.cpp ****   sa = dx12 * (y - y1);
 2290              		.loc 1 550 0
 2291 0172 1C1B     		subs	r4, r3, r4
 2292              	.LVL241:
 551:c:/Dropbox/AV_SmartWatch/toolchain_v3/src\driver_display.cpp ****   sb = dx02 * (y - y0);
 2293              		.loc 1 551 0
 2294 0174 5D1B     		subs	r5, r3, r5
 2295              	.LVL242:
 550:c:/Dropbox/AV_SmartWatch/toolchain_v3/src\driver_display.cpp ****   sa = dx12 * (y - y1);
 2296              		.loc 1 550 0
 2297 0176 089A     		ldr	r2, [sp, #32]
 551:c:/Dropbox/AV_SmartWatch/toolchain_v3/src\driver_display.cpp ****   sb = dx02 * (y - y0);
 2298              		.loc 1 551 0
 2299 0178 049B     		ldr	r3, [sp, #16]
 550:c:/Dropbox/AV_SmartWatch/toolchain_v3/src\driver_display.cpp ****   sa = dx12 * (y - y1);
 2300              		.loc 1 550 0
 2301 017a 5443     		muls	r4, r2, r4
 551:c:/Dropbox/AV_SmartWatch/toolchain_v3/src\driver_display.cpp ****   sb = dx02 * (y - y0);
 2302              		.loc 1 551 0
 2303 017c 5D43     		muls	r5, r3, r5
 550:c:/Dropbox/AV_SmartWatch/toolchain_v3/src\driver_display.cpp ****   sa = dx12 * (y - y1);
 2304              		.loc 1 550 0
 2305 017e A4B2     		uxth	r4, r4
 2306              	.LVL243:
 551:c:/Dropbox/AV_SmartWatch/toolchain_v3/src\driver_display.cpp ****   sb = dx02 * (y - y0);
 2307              		.loc 1 551 0
 2308 0180 ADB2     		uxth	r5, r5
 2309              	.LVL244:
 2310              	.L86:
 552:c:/Dropbox/AV_SmartWatch/toolchain_v3/src\driver_display.cpp ****   for(; y<=y2; y++) {
 2311              		.loc 1 552 0 discriminator 1
 2312 0182 31B2     		sxth	r1, r6
 2313 0184 B942     		cmp	r1, r7
 2314 0186 36DC     		bgt	.L74
 2315              	.L88:
 553:c:/Dropbox/AV_SmartWatch/toolchain_v3/src\driver_display.cpp ****     a   = x1 + sa / dy12;
 2316              		.loc 1 553 0
 2317 0188 DDF82CE0 		ldr	lr, [sp, #44]
 2318 018c 20B2     		sxth	r0, r4
 2319 018e 0FFA8EF2 		sxth	r2, lr
 2320 0192 0399     		ldr	r1, [sp, #12]
 2321 0194 90FBF2F3 		sdiv	r3, r0, r2
 554:c:/Dropbox/AV_SmartWatch/toolchain_v3/src\driver_display.cpp ****     b   = x0 + sb / dy02;
 2322              		.loc 1 554 0
 2323 0198 DDF81CC0 		ldr	ip, [sp, #28]
 553:c:/Dropbox/AV_SmartWatch/toolchain_v3/src\driver_display.cpp ****     a   = x1 + sa / dy12;
 2324              		.loc 1 553 0
 2325 019c C818     		adds	r0, r1, r3
 2326 019e 82B2     		uxth	r2, r0
 554:c:/Dropbox/AV_SmartWatch/toolchain_v3/src\driver_display.cpp ****     b   = x0 + sb / dy02;
 2327              		.loc 1 554 0
 2328 01a0 0FFA8CF1 		sxth	r1, ip
 2329 01a4 28B2     		sxth	r0, r5
 2330 01a6 90FBF1F0 		sdiv	r0, r0, r1
 2331 01aa 09EB0001 		add	r1, r9, r0
 2332 01ae 88B2     		uxth	r0, r1
 493:c:/Dropbox/AV_SmartWatch/toolchain_v3/src\driver_display.cpp **** void Arduino_GFX::fillTriangle ( int16_t x0, int16_t y0,
 2333              		.loc 1 493 0
 2334 01b0 DDF820E0 		ldr	lr, [sp, #32]
 2335 01b4 DDF810C0 		ldr	ip, [sp, #16]
 554:c:/Dropbox/AV_SmartWatch/toolchain_v3/src\driver_display.cpp ****     b   = x0 + sb / dy02;
 2336              		.loc 1 554 0
 2337 01b8 81B2     		uxth	r1, r0
 553:c:/Dropbox/AV_SmartWatch/toolchain_v3/src\driver_display.cpp ****     a   = x1 + sa / dy12;
 2338              		.loc 1 553 0
 2339 01ba 93B2     		uxth	r3, r2
 2340              	.LVL245:
 493:c:/Dropbox/AV_SmartWatch/toolchain_v3/src\driver_display.cpp **** void Arduino_GFX::fillTriangle ( int16_t x0, int16_t y0,
 2341              		.loc 1 493 0
 2342 01bc 7444     		add	r4, lr, r4
 2343              	.LVL246:
 2344 01be 6544     		add	r5, ip, r5
 2345              	.LVL247:
 557:c:/Dropbox/AV_SmartWatch/toolchain_v3/src\driver_display.cpp ****     if(a > b) swap(a,b);
 2346              		.loc 1 557 0
 2347 01c0 0FFA81FE 		sxth	lr, r1
 2348 01c4 0FFA83FC 		sxth	ip, r3
 2349 01c8 F445     		cmp	ip, lr
 2350 01ca C8BF     		it	gt
 2351 01cc 80EA0203 		eorgt	r3, r0, r2
 2352 01d0 4B40     		eors	r3, r3, r1
 558:c:/Dropbox/AV_SmartWatch/toolchain_v3/src\driver_display.cpp ****     drawFastHLine(a, y, b-a+1, color);
 2353              		.loc 1 558 0
 2354 01d2 0598     		ldr	r0, [sp, #20]
 2355              	.LVL248:
 2356 01d4 D8F80020 		ldr	r2, [r8, #0]
 2357              	.LVL249:
 2358 01d8 0133     		adds	r3, r3, #1
 2359 01da 0090     		str	r0, [sp, #0]
 2360 01dc 5B1A     		subs	r3, r3, r1
 2361 01de D2F808C0 		ldr	ip, [r2, #8]
 2362 01e2 4046     		mov	r0, r8
 2363 01e4 32B2     		sxth	r2, r6
 2364 01e6 09B2     		sxth	r1, r1
 2365              	.LVL250:
 2366 01e8 1BB2     		sxth	r3, r3
 552:c:/Dropbox/AV_SmartWatch/toolchain_v3/src\driver_display.cpp ****   for(; y<=y2; y++) {
 2367              		.loc 1 552 0
 2368 01ea 0136     		adds	r6, r6, #1
 2369              	.LVL251:
 493:c:/Dropbox/AV_SmartWatch/toolchain_v3/src\driver_display.cpp **** void Arduino_GFX::fillTriangle ( int16_t x0, int16_t y0,
 2370              		.loc 1 493 0
 2371 01ec A4B2     		uxth	r4, r4
 2372              	.LVL252:
 2373 01ee ADB2     		uxth	r5, r5
 2374              	.LVL253:
 558:c:/Dropbox/AV_SmartWatch/toolchain_v3/src\driver_display.cpp ****     drawFastHLine(a, y, b-a+1, color);
 2375              		.loc 1 558 0
 2376 01f0 E047     		blx	ip
 2377              	.LVL254:
 552:c:/Dropbox/AV_SmartWatch/toolchain_v3/src\driver_display.cpp ****   for(; y<=y2; y++) {
 2378              		.loc 1 552 0
 2379 01f2 B6B2     		uxth	r6, r6
 2380              	.LVL255:
 2381 01f4 C5E7     		b	.L86
 2382              	.LVL256:
 2383              	.L74:
 2384              	.LBE59:
 560:c:/Dropbox/AV_SmartWatch/toolchain_v3/src\driver_display.cpp **** }
 2385              		.loc 1 560 0
 2386 01f6 0DB0     		add	sp, sp, #52
 2387 01f8 BDE8F08F 		pop	{r4, r5, r6, r7, r8, r9, sl, fp, pc}
 2388              		.cfi_endproc
 2389              	.LFE72:
 2391              		.section	.text._ZN11Arduino_GFX10drawBitmapEssPKhsst,"ax",%progbits
 2392              		.align	1
 2393              		.global	_ZN11Arduino_GFX10drawBitmapEssPKhsst
 2394              		.thumb
 2395              		.thumb_func
 2397              	_ZN11Arduino_GFX10drawBitmapEssPKhsst:
 2398              	.LFB73:
 564:c:/Dropbox/AV_SmartWatch/toolchain_v3/src\driver_display.cpp **** 			      uint16_t color) {
 2399              		.loc 1 564 0
 2400              		.cfi_startproc
 2401              		@ args = 12, pretend = 0, frame = 16
 2402              		@ frame_needed = 0, uses_anonymous_args = 0
 2403              	.LVL257:
 2404 0000 2DE9F04F 		push	{r4, r5, r6, r7, r8, r9, sl, fp, lr}
 2405              	.LCFI25:
 2406              		.cfi_def_cfa_offset 36
 2407              		.cfi_offset 4, -36
 2408              		.cfi_offset 5, -32
 2409              		.cfi_offset 6, -28
 2410              		.cfi_offset 7, -24
 2411              		.cfi_offset 8, -20
 2412              		.cfi_offset 9, -16
 2413              		.cfi_offset 10, -12
 2414              		.cfi_offset 11, -8
 2415              		.cfi_offset 14, -4
 2416 0004 85B0     		sub	sp, sp, #20
 2417              	.LCFI26:
 2418              		.cfi_def_cfa_offset 56
 564:c:/Dropbox/AV_SmartWatch/toolchain_v3/src\driver_display.cpp **** 			      uint16_t color) {
 2419              		.loc 1 564 0
 2420 0006 9246     		mov	sl, r2
 2421 0008 BDF93C20 		ldrsh	r2, [sp, #60]
 2422              	.LVL258:
 2423 000c BDF93860 		ldrsh	r6, [sp, #56]
 2424 0010 BDF840B0 		ldrh	fp, [sp, #64]
 2425 0014 0746     		mov	r7, r0
 2426 0016 8946     		mov	r9, r1
 2427 0018 0293     		str	r3, [sp, #8]
 2428 001a 0392     		str	r2, [sp, #12]
 2429              	.LBB60:
 565:c:/Dropbox/AV_SmartWatch/toolchain_v3/src\driver_display.cpp ****   for (int16_t j=0; j<h; j++) {
 2430              		.loc 1 565 0
 2431 001c 0025     		movs	r5, #0
 2432              	.LVL259:
 2433              	.L96:
 565:c:/Dropbox/AV_SmartWatch/toolchain_v3/src\driver_display.cpp ****   for (int16_t j=0; j<h; j++) {
 2434              		.loc 1 565 0 is_stmt 0 discriminator 1
 2435 001e 0398     		ldr	r0, [sp, #12]
 2436 0020 2BB2     		sxth	r3, r5
 2437 0022 8342     		cmp	r3, r0
 2438 0024 23DA     		bge	.L95
 2439              	.LBB61:
 568:c:/Dropbox/AV_SmartWatch/toolchain_v3/src\driver_display.cpp ****       if ((*bitmap + i + (j/8)*w) & (1<<(j%8))) {
 2440              		.loc 1 568 0 is_stmt 1
 2441 0026 D910     		asrs	r1, r3, #3
 2442 0028 7143     		muls	r1, r6, r1
 2443 002a 05F00704 		and	r4, r5, #7
 2444 002e 0122     		movs	r2, #1
 2445 0030 02FA04F8 		lsl	r8, r2, r4
 2446 0034 0191     		str	r1, [sp, #4]
 2447 0036 0024     		movs	r4, #0
 2448              	.L100:
 566:c:/Dropbox/AV_SmartWatch/toolchain_v3/src\driver_display.cpp ****     for (int16_t i=0; i<w; i++ ) {
 2449              		.loc 1 566 0 discriminator 1
 2450 0038 23B2     		sxth	r3, r4
 2451 003a B342     		cmp	r3, r6
 2452 003c 15DA     		bge	.L104
 2453              	.L98:
 568:c:/Dropbox/AV_SmartWatch/toolchain_v3/src\driver_display.cpp ****       if ((*bitmap + i + (j/8)*w) & (1<<(j%8))) {
 2454              		.loc 1 568 0
 2455 003e 0298     		ldr	r0, [sp, #8]
 2456 0040 019A     		ldr	r2, [sp, #4]
 2457 0042 0178     		ldrb	r1, [r0, #0]	@ zero_extendqisi2
 2458 0044 0B19     		adds	r3, r1, r4
 2459 0046 9818     		adds	r0, r3, r2
 2460 0048 10EA080F 		tst	r0, r8
 2461 004c 0BD0     		beq	.L97
 569:c:/Dropbox/AV_SmartWatch/toolchain_v3/src\driver_display.cpp **** 	drawPixel(x+i, y+j, color);
 2462              		.loc 1 569 0
 2463 004e 3B68     		ldr	r3, [r7, #0]
 562:c:/Dropbox/AV_SmartWatch/toolchain_v3/src\driver_display.cpp **** void Arduino_GFX::drawBitmap(int16_t x, int16_t y, 
 2464              		.loc 1 562 0
 2465 0050 04EB0901 		add	r1, r4, r9
 2466 0054 05EB0A02 		add	r2, r5, sl
 569:c:/Dropbox/AV_SmartWatch/toolchain_v3/src\driver_display.cpp **** 	drawPixel(x+i, y+j, color);
 2467              		.loc 1 569 0
 2468 0058 D3F800C0 		ldr	ip, [r3, #0]
 2469 005c 3846     		mov	r0, r7
 2470 005e 09B2     		sxth	r1, r1
 2471 0060 12B2     		sxth	r2, r2
 2472 0062 5B46     		mov	r3, fp
 2473 0064 E047     		blx	ip
 2474              	.LVL260:
 2475              	.L97:
 2476 0066 0134     		adds	r4, r4, #1
 2477 0068 E6E7     		b	.L100
 2478              	.L104:
 2479              	.LVL261:
 2480 006a 0135     		adds	r5, r5, #1
 2481 006c D7E7     		b	.L96
 2482              	.LVL262:
 2483              	.L95:
 2484              	.LBE61:
 2485              	.LBE60:
 573:c:/Dropbox/AV_SmartWatch/toolchain_v3/src\driver_display.cpp **** }
 2486              		.loc 1 573 0
 2487 006e 05B0     		add	sp, sp, #20
 2488 0070 BDE8F08F 		pop	{r4, r5, r6, r7, r8, r9, sl, fp, pc}
 2489              		.cfi_endproc
 2490              	.LFE73:
 2492              		.section	.text._ZN11Arduino_GFX8drawCharEsshtth,"ax",%progbits
 2493              		.align	1
 2494              		.global	_ZN11Arduino_GFX8drawCharEsshtth
 2495              		.thumb
 2496              		.thumb_func
 2498              	_ZN11Arduino_GFX8drawCharEsshtth:
 2499              	.LFB77:
 606:c:/Dropbox/AV_SmartWatch/toolchain_v3/src\driver_display.cpp **** 			    uint16_t color, uint16_t bg, uint8_t size) {
 2500              		.loc 1 606 0
 2501              		.cfi_startproc
 2502              		@ args = 12, pretend = 0, frame = 40
 2503              		@ frame_needed = 0, uses_anonymous_args = 0
 2504              	.LVL263:
 2505 0000 2DE9F04F 		push	{r4, r5, r6, r7, r8, r9, sl, fp, lr}
 2506              	.LCFI27:
 2507              		.cfi_def_cfa_offset 36
 2508              		.cfi_offset 4, -36
 2509              		.cfi_offset 5, -32
 2510              		.cfi_offset 6, -28
 2511              		.cfi_offset 7, -24
 2512              		.cfi_offset 8, -20
 2513              		.cfi_offset 9, -16
 2514              		.cfi_offset 10, -12
 2515              		.cfi_offset 11, -8
 2516              		.cfi_offset 14, -4
 2517 0004 0546     		mov	r5, r0
 2518 0006 8DB0     		sub	sp, sp, #52
 2519              	.LCFI28:
 2520              		.cfi_def_cfa_offset 88
 606:c:/Dropbox/AV_SmartWatch/toolchain_v3/src\driver_display.cpp **** 			    uint16_t color, uint16_t bg, uint8_t size) {
 2521              		.loc 1 606 0
 2522 0008 9346     		mov	fp, r2
 2523              	.LBB62:
 608:c:/Dropbox/AV_SmartWatch/toolchain_v3/src\driver_display.cpp ****   if((x >= _width)            || // Clip right
 2524              		.loc 1 608 0
 2525 000a B5F90820 		ldrsh	r2, [r5, #8]
 2526              	.LVL264:
 2527              	.LBE62:
 606:c:/Dropbox/AV_SmartWatch/toolchain_v3/src\driver_display.cpp **** 			    uint16_t color, uint16_t bg, uint8_t size) {
 2528              		.loc 1 606 0
 2529 000e 8A46     		mov	sl, r1
 2530 0010 BDF85800 		ldrh	r0, [sp, #88]
 2531              	.LVL265:
 2532 0014 BDF85C10 		ldrh	r1, [sp, #92]
 2533              	.LVL266:
 2534              	.LBB67:
 608:c:/Dropbox/AV_SmartWatch/toolchain_v3/src\driver_display.cpp ****   if((x >= _width)            || // Clip right
 2535              		.loc 1 608 0
 2536 0018 5245     		cmp	r2, sl
 2537              	.LBE67:
 606:c:/Dropbox/AV_SmartWatch/toolchain_v3/src\driver_display.cpp **** 			    uint16_t color, uint16_t bg, uint8_t size) {
 2538              		.loc 1 606 0
 2539 001a 0690     		str	r0, [sp, #24]
 2540 001c 0791     		str	r1, [sp, #28]
 2541 001e 9DF86040 		ldrb	r4, [sp, #96]	@ zero_extendqisi2
 2542              	.LBB68:
 608:c:/Dropbox/AV_SmartWatch/toolchain_v3/src\driver_display.cpp ****   if((x >= _width)            || // Clip right
 2543              		.loc 1 608 0
 2544 0022 40F38980 		ble	.L105
 608:c:/Dropbox/AV_SmartWatch/toolchain_v3/src\driver_display.cpp ****   if((x >= _width)            || // Clip right
 2545              		.loc 1 608 0 is_stmt 0 discriminator 1
 2546 0026 B5F90A00 		ldrsh	r0, [r5, #10]
 2547 002a 5845     		cmp	r0, fp
 2548 002c 40F38480 		ble	.L105
 608:c:/Dropbox/AV_SmartWatch/toolchain_v3/src\driver_display.cpp ****   if((x >= _width)            || // Clip right
 2549              		.loc 1 608 0 discriminator 2
 2550 0030 0522     		movs	r2, #5
 2551 0032 02FB04A1 		mla	r1, r2, r4, sl
 2552 0036 0029     		cmp	r1, #0
 2553 0038 7EDD     		ble	.L105
 608:c:/Dropbox/AV_SmartWatch/toolchain_v3/src\driver_display.cpp ****   if((x >= _width)            || // Clip right
 2554              		.loc 1 608 0 discriminator 3
 2555 003a 0BEBC400 		add	r0, fp, r4, lsl #3
 2556 003e 0028     		cmp	r0, #0
 2557 0040 7ADD     		ble	.L105
 2558              	.LBB63:
 2559              	.LBB64:
 620:c:/Dropbox/AV_SmartWatch/toolchain_v3/src\driver_display.cpp ****       line = font[(c*5)+i];
 2560              		.loc 1 620 0 is_stmt 1
 2561 0042 5A43     		muls	r2, r3, r2
 2562 0044 0623     		movs	r3, #6
 2563              	.LVL267:
 2564 0046 0A92     		str	r2, [sp, #40]
 2565 0048 0993     		str	r3, [sp, #36]
 2566 004a 4FF00008 		mov	r8, #0
 2567              	.L114:
 617:c:/Dropbox/AV_SmartWatch/toolchain_v3/src\driver_display.cpp ****     if (i == 5) 
 2568              		.loc 1 617 0
 2569 004e 4FFA88F6 		sxtb	r6, r8
 2570 0052 052E     		cmp	r6, #5
 2571 0054 05D0     		beq	.L115
 620:c:/Dropbox/AV_SmartWatch/toolchain_v3/src\driver_display.cpp ****       line = font[(c*5)+i];
 2572              		.loc 1 620 0
 2573 0056 3A4F     		ldr	r7, .L120
 2574 0058 0A9A     		ldr	r2, [sp, #40]
 2575 005a B918     		adds	r1, r7, r2
 2576 005c 11F80690 		ldrb	r9, [r1, r6]	@ zero_extendqisi2
 2577              	.LVL268:
 2578 0060 01E0     		b	.L108
 2579              	.LVL269:
 2580              	.L115:
 618:c:/Dropbox/AV_SmartWatch/toolchain_v3/src\driver_display.cpp ****       line = 0x0;
 2581              		.loc 1 618 0
 2582 0062 4FF00009 		mov	r9, #0
 2583              	.L108:
 2584              	.LVL270:
 2585              	.LBB65:
 627:c:/Dropbox/AV_SmartWatch/toolchain_v3/src\driver_display.cpp ****           fillRect(x+(i*size), y+(j*size), size, size, color);
 2586              		.loc 1 627 0 discriminator 1
 2587 0066 4FFA88F3 		sxtb	r3, r8
 2588 006a 1FFA8AF0 		uxth	r0, sl
 2589 006e 9EB2     		uxth	r6, r3
 2590 0070 04FB0607 		mla	r7, r4, r6, r0
 2591 0074 0496     		str	r6, [sp, #16]
 2592 0076 1FFA8BF6 		uxth	r6, fp
 605:c:/Dropbox/AV_SmartWatch/toolchain_v3/src\driver_display.cpp **** void Arduino_GFX::drawChar(int16_t x, int16_t y, unsigned char c,
 2593              		.loc 1 605 0 discriminator 1
 2594 007a 06F10801 		add	r1, r6, #8
 627:c:/Dropbox/AV_SmartWatch/toolchain_v3/src\driver_display.cpp ****           fillRect(x+(i*size), y+(j*size), size, size, color);
 2595              		.loc 1 627 0 discriminator 1
 2596 007e BAB2     		uxth	r2, r7
 2597 0080 0390     		str	r0, [sp, #12]
 605:c:/Dropbox/AV_SmartWatch/toolchain_v3/src\driver_display.cpp **** void Arduino_GFX::drawChar(int16_t x, int16_t y, unsigned char c,
 2598              		.loc 1 605 0 discriminator 1
 2599 0082 88B2     		uxth	r0, r1
 627:c:/Dropbox/AV_SmartWatch/toolchain_v3/src\driver_display.cpp ****           fillRect(x+(i*size), y+(j*size), size, size, color);
 2600              		.loc 1 627 0 discriminator 1
 2601 0084 0892     		str	r2, [sp, #32]
 605:c:/Dropbox/AV_SmartWatch/toolchain_v3/src\driver_display.cpp **** void Arduino_GFX::drawChar(int16_t x, int16_t y, unsigned char c,
 2602              		.loc 1 605 0 discriminator 1
 2603 0086 0B90     		str	r0, [sp, #44]
 2604              	.LBE65:
 2605 0088 3746     		mov	r7, r6
 2606 008a 0596     		str	r6, [sp, #20]
 2607              	.LVL271:
 2608              	.L113:
 2609              	.LBB66:
 623:c:/Dropbox/AV_SmartWatch/toolchain_v3/src\driver_display.cpp ****       if (line & 0x1) {
 2610              		.loc 1 623 0
 2611 008c 19F0010F 		tst	r9, #1
 2612 0090 19D0     		beq	.L109
 624:c:/Dropbox/AV_SmartWatch/toolchain_v3/src\driver_display.cpp ****         if (size == 1) // default size
 2613              		.loc 1 624 0
 2614 0092 012C     		cmp	r4, #1
 2615 0094 2A68     		ldr	r2, [r5, #0]
 2616 0096 0BD1     		bne	.L110
 625:c:/Dropbox/AV_SmartWatch/toolchain_v3/src\driver_display.cpp ****           drawPixel(x+i, y+j, color);
 2617              		.loc 1 625 0
 2618 0098 0498     		ldr	r0, [sp, #16]
 2619 009a DDF80CE0 		ldr	lr, [sp, #12]
 2620 009e D2F800C0 		ldr	ip, [r2, #0]
 2621 00a2 00EB0E03 		add	r3, r0, lr
 2622 00a6 19B2     		sxth	r1, r3
 2623 00a8 2846     		mov	r0, r5
 2624 00aa 3AB2     		sxth	r2, r7
 2625 00ac 069B     		ldr	r3, [sp, #24]
 2626 00ae 1CE0     		b	.L118
 2627              	.L110:
 627:c:/Dropbox/AV_SmartWatch/toolchain_v3/src\driver_display.cpp ****           fillRect(x+(i*size), y+(j*size), size, size, color);
 2628              		.loc 1 627 0
 2629 00b0 0699     		ldr	r1, [sp, #24]
 2630 00b2 23B2     		sxth	r3, r4
 2631 00b4 0191     		str	r1, [sp, #4]
 2632 00b6 0093     		str	r3, [sp, #0]
 2633 00b8 D2F80CC0 		ldr	ip, [r2, #12]
 2634 00bc 089A     		ldr	r2, [sp, #32]
 2635 00be 2846     		mov	r0, r5
 2636 00c0 11B2     		sxth	r1, r2
 2637 00c2 32B2     		sxth	r2, r6
 2638 00c4 20E0     		b	.L119
 2639              	.L109:
 629:c:/Dropbox/AV_SmartWatch/toolchain_v3/src\driver_display.cpp ****       } else if (bg != color) {
 2640              		.loc 1 629 0
 2641 00c6 079B     		ldr	r3, [sp, #28]
 2642 00c8 069A     		ldr	r2, [sp, #24]
 2643 00ca 9342     		cmp	r3, r2
 2644 00cc 1DD0     		beq	.L111
 630:c:/Dropbox/AV_SmartWatch/toolchain_v3/src\driver_display.cpp ****         if (size == 1) // default size
 2645              		.loc 1 630 0
 2646 00ce 012C     		cmp	r4, #1
 2647 00d0 2A68     		ldr	r2, [r5, #0]
 2648 00d2 0CD1     		bne	.L112
 631:c:/Dropbox/AV_SmartWatch/toolchain_v3/src\driver_display.cpp ****           drawPixel(x+i, y+j, bg);
 2649              		.loc 1 631 0
 2650 00d4 0498     		ldr	r0, [sp, #16]
 2651 00d6 DDF80CC0 		ldr	ip, [sp, #12]
 2652 00da 00EB0C03 		add	r3, r0, ip
 2653 00de 19B2     		sxth	r1, r3
 2654 00e0 079B     		ldr	r3, [sp, #28]
 2655 00e2 D2F800C0 		ldr	ip, [r2, #0]
 2656 00e6 2846     		mov	r0, r5
 2657 00e8 3AB2     		sxth	r2, r7
 2658              	.LVL272:
 2659              	.L118:
 2660 00ea E047     		blx	ip
 2661              	.LVL273:
 2662 00ec 0DE0     		b	.L111
 2663              	.L112:
 633:c:/Dropbox/AV_SmartWatch/toolchain_v3/src\driver_display.cpp ****           fillRect(x+i*size, y+j*size, size, size, bg);
 2664              		.loc 1 633 0
 2665 00ee 0799     		ldr	r1, [sp, #28]
 2666 00f0 23B2     		sxth	r3, r4
 2667 00f2 0191     		str	r1, [sp, #4]
 2668 00f4 0093     		str	r3, [sp, #0]
 2669 00f6 D2F80CC0 		ldr	ip, [r2, #12]
 2670 00fa DDF814E0 		ldr	lr, [sp, #20]
 2671 00fe 089A     		ldr	r2, [sp, #32]
 2672 0100 2846     		mov	r0, r5
 2673 0102 11B2     		sxth	r1, r2
 2674 0104 0FFA8EF2 		sxth	r2, lr
 2675              	.LVL274:
 2676              	.L119:
 2677 0108 E047     		blx	ip
 2678              	.LVL275:
 2679              	.L111:
 2680 010a 0599     		ldr	r1, [sp, #20]
 2681 010c 0137     		adds	r7, r7, #1
 622:c:/Dropbox/AV_SmartWatch/toolchain_v3/src\driver_display.cpp ****     for (int8_t j = 0; j<8; j++) {
 2682              		.loc 1 622 0
 2683 010e 0B9B     		ldr	r3, [sp, #44]
 2684 0110 0A19     		adds	r2, r1, r4
 2685 0112 BFB2     		uxth	r7, r7
 2686 0114 3619     		adds	r6, r6, r4
 2687 0116 90B2     		uxth	r0, r2
 2688 0118 9F42     		cmp	r7, r3
 636:c:/Dropbox/AV_SmartWatch/toolchain_v3/src\driver_display.cpp ****       line >>= 1;
 2689              		.loc 1 636 0
 2690 011a 4FEA5909 		lsr	r9, r9, #1
 2691              	.LVL276:
 2692 011e B6B2     		uxth	r6, r6
 2693 0120 0590     		str	r0, [sp, #20]
 622:c:/Dropbox/AV_SmartWatch/toolchain_v3/src\driver_display.cpp ****     for (int8_t j = 0; j<8; j++) {
 2694              		.loc 1 622 0
 2695 0122 B3D1     		bne	.L113
 2696 0124 0999     		ldr	r1, [sp, #36]
 2697              	.LBE66:
 2698              	.LBE64:
 615:c:/Dropbox/AV_SmartWatch/toolchain_v3/src\driver_display.cpp ****   for (int8_t i=0; i<6; i++ ) {
 2699              		.loc 1 615 0
 2700 0126 08F10108 		add	r8, r8, #1
 2701 012a 4A1E     		subs	r2, r1, #1
 2702 012c 12F0FF00 		ands	r0, r2, #255
 2703 0130 5FFA88F8 		uxtb	r8, r8
 2704              	.LVL277:
 2705 0134 0990     		str	r0, [sp, #36]
 2706 0136 8AD1     		bne	.L114
 2707              	.LVL278:
 2708              	.L105:
 2709              	.LBE63:
 2710              	.LBE68:
 639:c:/Dropbox/AV_SmartWatch/toolchain_v3/src\driver_display.cpp **** }
 2711              		.loc 1 639 0
 2712 0138 0DB0     		add	sp, sp, #52
 2713 013a BDE8F08F 		pop	{r4, r5, r6, r7, r8, r9, sl, fp, pc}
 2714              	.L121:
 2715 013e 00BF     		.align	2
 2716              	.L120:
 2717 0140 00000000 		.word	.LANCHOR0
 2718              		.cfi_endproc
 2719              	.LFE77:
 2721              		.section	.text._ZN11Arduino_GFX5writeEh,"ax",%progbits
 2722              		.align	1
 2723              		.global	_ZN11Arduino_GFX5writeEh
 2724              		.thumb
 2725              		.thumb_func
 2727              	_ZN11Arduino_GFX5writeEh:
 2728              	.LFB74:
 576:c:/Dropbox/AV_SmartWatch/toolchain_v3/src\driver_display.cpp **** uint32_t Arduino_GFX::write(uint8_t c) {
 2729              		.loc 1 576 0
 2730              		.cfi_startproc
 2731              		@ args = 0, pretend = 0, frame = 0
 2732              		@ frame_needed = 0, uses_anonymous_args = 0
 2733              	.LVL279:
 2734 0000 30B5     		push	{r4, r5, lr}
 2735              	.LCFI29:
 2736              		.cfi_def_cfa_offset 12
 2737              		.cfi_offset 4, -12
 2738              		.cfi_offset 5, -8
 2739              		.cfi_offset 14, -4
 578:c:/Dropbox/AV_SmartWatch/toolchain_v3/src\driver_display.cpp ****   if (c == '\n') {
 2740              		.loc 1 578 0
 2741 0002 0A29     		cmp	r1, #10
 576:c:/Dropbox/AV_SmartWatch/toolchain_v3/src\driver_display.cpp **** uint32_t Arduino_GFX::write(uint8_t c) {
 2742              		.loc 1 576 0
 2743 0004 85B0     		sub	sp, sp, #20
 2744              	.LCFI30:
 2745              		.cfi_def_cfa_offset 32
 576:c:/Dropbox/AV_SmartWatch/toolchain_v3/src\driver_display.cpp **** uint32_t Arduino_GFX::write(uint8_t c) {
 2746              		.loc 1 576 0
 2747 0006 0446     		mov	r4, r0
 2748 0008 0B46     		mov	r3, r1
 578:c:/Dropbox/AV_SmartWatch/toolchain_v3/src\driver_display.cpp ****   if (c == '\n') {
 2749              		.loc 1 578 0
 2750 000a 04D1     		bne	.L123
 579:c:/Dropbox/AV_SmartWatch/toolchain_v3/src\driver_display.cpp ****     cursor_y += textsize*8;
 2751              		.loc 1 579 0
 2752 000c 007D     		ldrb	r0, [r0, #20]	@ zero_extendqisi2
 2753              	.LVL280:
 2754 000e E189     		ldrh	r1, [r4, #14]
 2755              	.LVL281:
 2756 0010 01EBC003 		add	r3, r1, r0, lsl #3
 2757 0014 22E0     		b	.L130
 2758              	.LVL282:
 2759              	.L123:
 581:c:/Dropbox/AV_SmartWatch/toolchain_v3/src\driver_display.cpp ****   } else if (c == '\r') {
 2760              		.loc 1 581 0
 2761 0016 0D29     		cmp	r1, #13
 2762 0018 23D0     		beq	.L124
 584:c:/Dropbox/AV_SmartWatch/toolchain_v3/src\driver_display.cpp ****     drawChar(cursor_x, cursor_y, c, textcolor, textbgcolor, textsize);
 2763              		.loc 1 584 0
 2764 001a 058A     		ldrh	r5, [r0, #16]
 2765 001c B0F90C10 		ldrsh	r1, [r0, #12]
 2766              	.LVL283:
 2767 0020 B0F90E20 		ldrsh	r2, [r0, #14]
 2768 0024 0095     		str	r5, [sp, #0]
 2769 0026 458A     		ldrh	r5, [r0, #18]
 2770 0028 0195     		str	r5, [sp, #4]
 2771 002a 057D     		ldrb	r5, [r0, #20]	@ zero_extendqisi2
 2772 002c 0295     		str	r5, [sp, #8]
 2773 002e FFF7FEFF 		bl	_ZN11Arduino_GFX8drawCharEsshtth
 2774              	.LVL284:
 585:c:/Dropbox/AV_SmartWatch/toolchain_v3/src\driver_display.cpp ****     cursor_x += textsize*6;
 2775              		.loc 1 585 0
 2776 0032 A289     		ldrh	r2, [r4, #12]
 2777 0034 237D     		ldrb	r3, [r4, #20]	@ zero_extendqisi2
 2778 0036 0621     		movs	r1, #6
 2779 0038 01FB0320 		mla	r0, r1, r3, r2
 586:c:/Dropbox/AV_SmartWatch/toolchain_v3/src\driver_display.cpp ****     if (wrap && (cursor_x > (_width - textsize*6))) {
 2780              		.loc 1 586 0
 2781 003c 617D     		ldrb	r1, [r4, #21]	@ zero_extendqisi2
 585:c:/Dropbox/AV_SmartWatch/toolchain_v3/src\driver_display.cpp ****     cursor_x += textsize*6;
 2782              		.loc 1 585 0
 2783 003e 82B2     		uxth	r2, r0
 2784 0040 A281     		strh	r2, [r4, #12]	@ movhi
 586:c:/Dropbox/AV_SmartWatch/toolchain_v3/src\driver_display.cpp ****     if (wrap && (cursor_x > (_width - textsize*6))) {
 2785              		.loc 1 586 0
 2786 0042 71B1     		cbz	r1, .L124
 586:c:/Dropbox/AV_SmartWatch/toolchain_v3/src\driver_display.cpp ****     if (wrap && (cursor_x > (_width - textsize*6))) {
 2787              		.loc 1 586 0 is_stmt 0 discriminator 1
 2788 0044 B4F90810 		ldrsh	r1, [r4, #8]
 2789 0048 6FF00500 		mvn	r0, #5
 2790 004c 00FB0311 		mla	r1, r0, r3, r1
 2791 0050 12B2     		sxth	r2, r2
 2792 0052 8A42     		cmp	r2, r1
 2793 0054 05DD     		ble	.L124
 587:c:/Dropbox/AV_SmartWatch/toolchain_v3/src\driver_display.cpp ****       cursor_y += textsize*8;
 2794              		.loc 1 587 0 is_stmt 1
 2795 0056 E289     		ldrh	r2, [r4, #14]
 2796 0058 02EBC303 		add	r3, r2, r3, lsl #3
 2797              	.L130:
 588:c:/Dropbox/AV_SmartWatch/toolchain_v3/src\driver_display.cpp ****       cursor_x = 0;
 2798              		.loc 1 588 0
 2799 005c 0022     		movs	r2, #0
 587:c:/Dropbox/AV_SmartWatch/toolchain_v3/src\driver_display.cpp ****       cursor_y += textsize*8;
 2800              		.loc 1 587 0
 2801 005e E381     		strh	r3, [r4, #14]	@ movhi
 588:c:/Dropbox/AV_SmartWatch/toolchain_v3/src\driver_display.cpp ****       cursor_x = 0;
 2802              		.loc 1 588 0
 2803 0060 A281     		strh	r2, [r4, #12]	@ movhi
 2804              	.L124:
 592:c:/Dropbox/AV_SmartWatch/toolchain_v3/src\driver_display.cpp **** }
 2805              		.loc 1 592 0
 2806 0062 0120     		movs	r0, #1
 2807 0064 05B0     		add	sp, sp, #20
 2808 0066 30BD     		pop	{r4, r5, pc}
 2809              		.cfi_endproc
 2810              	.LFE74:
 2812              		.section	.text._ZN11Arduino_GFX5printEPc,"ax",%progbits
 2813              		.align	1
 2814              		.global	_ZN11Arduino_GFX5printEPc
 2815              		.thumb
 2816              		.thumb_func
 2818              	_ZN11Arduino_GFX5printEPc:
 2819              	.LFB75:
 594:c:/Dropbox/AV_SmartWatch/toolchain_v3/src\driver_display.cpp **** void Arduino_GFX::print(char *str) {
 2820              		.loc 1 594 0
 2821              		.cfi_startproc
 2822              		@ args = 0, pretend = 0, frame = 0
 2823              		@ frame_needed = 0, uses_anonymous_args = 0
 2824              	.LVL285:
 2825 0000 38B5     		push	{r3, r4, r5, lr}
 2826              	.LCFI31:
 2827              		.cfi_def_cfa_offset 16
 2828              		.cfi_offset 3, -16
 2829              		.cfi_offset 4, -12
 2830              		.cfi_offset 5, -8
 2831              		.cfi_offset 14, -4
 594:c:/Dropbox/AV_SmartWatch/toolchain_v3/src\driver_display.cpp **** void Arduino_GFX::print(char *str) {
 2832              		.loc 1 594 0
 2833 0002 0546     		mov	r5, r0
 2834 0004 4C1E     		subs	r4, r1, #1
 2835              	.LVL286:
 2836              	.L132:
 595:c:/Dropbox/AV_SmartWatch/toolchain_v3/src\driver_display.cpp ****   while(*str != 0x00) write((uint8_t)*(str++));
 2837              		.loc 1 595 0 discriminator 1
 2838 0006 14F8011F 		ldrb	r1, [r4, #1]!	@ zero_extendqisi2
 2839 000a 19B1     		cbz	r1, .L134
 2840              	.L133:
 595:c:/Dropbox/AV_SmartWatch/toolchain_v3/src\driver_display.cpp ****   while(*str != 0x00) write((uint8_t)*(str++));
 2841              		.loc 1 595 0 is_stmt 0 discriminator 2
 2842 000c 2846     		mov	r0, r5
 2843 000e FFF7FEFF 		bl	_ZN11Arduino_GFX5writeEh
 2844              	.LVL287:
 2845 0012 F8E7     		b	.L132
 2846              	.L134:
 596:c:/Dropbox/AV_SmartWatch/toolchain_v3/src\driver_display.cpp **** }
 2847              		.loc 1 596 0 is_stmt 1
 2848 0014 38BD     		pop	{r3, r4, r5, pc}
 2849              		.cfi_endproc
 2850              	.LFE75:
 2852              		.section	.text._ZN11Arduino_GFX7printlnEPc,"ax",%progbits
 2853              		.align	1
 2854              		.global	_ZN11Arduino_GFX7printlnEPc
 2855              		.thumb
 2856              		.thumb_func
 2858              	_ZN11Arduino_GFX7printlnEPc:
 2859              	.LFB76:
 598:c:/Dropbox/AV_SmartWatch/toolchain_v3/src\driver_display.cpp **** void Arduino_GFX::println(char *str) {
 2860              		.loc 1 598 0
 2861              		.cfi_startproc
 2862              		@ args = 0, pretend = 0, frame = 0
 2863              		@ frame_needed = 0, uses_anonymous_args = 0
 2864              	.LVL288:
 2865 0000 10B5     		push	{r4, lr}
 2866              	.LCFI32:
 2867              		.cfi_def_cfa_offset 8
 2868              		.cfi_offset 4, -8
 2869              		.cfi_offset 14, -4
 598:c:/Dropbox/AV_SmartWatch/toolchain_v3/src\driver_display.cpp **** void Arduino_GFX::println(char *str) {
 2870              		.loc 1 598 0
 2871 0002 0446     		mov	r4, r0
 599:c:/Dropbox/AV_SmartWatch/toolchain_v3/src\driver_display.cpp ****   print(str);
 2872              		.loc 1 599 0
 2873 0004 FFF7FEFF 		bl	_ZN11Arduino_GFX5printEPc
 2874              	.LVL289:
 600:c:/Dropbox/AV_SmartWatch/toolchain_v3/src\driver_display.cpp ****   cursor_y += textsize*8;
 2875              		.loc 1 600 0
 2876 0008 E389     		ldrh	r3, [r4, #14]
 2877 000a 227D     		ldrb	r2, [r4, #20]	@ zero_extendqisi2
 601:c:/Dropbox/AV_SmartWatch/toolchain_v3/src\driver_display.cpp ****   cursor_x = 0;
 2878              		.loc 1 601 0
 2879 000c 0021     		movs	r1, #0
 600:c:/Dropbox/AV_SmartWatch/toolchain_v3/src\driver_display.cpp ****   cursor_y += textsize*8;
 2880              		.loc 1 600 0
 2881 000e 03EBC200 		add	r0, r3, r2, lsl #3
 2882 0012 E081     		strh	r0, [r4, #14]	@ movhi
 601:c:/Dropbox/AV_SmartWatch/toolchain_v3/src\driver_display.cpp ****   cursor_x = 0;
 2883              		.loc 1 601 0
 2884 0014 A181     		strh	r1, [r4, #12]	@ movhi
 2885 0016 10BD     		pop	{r4, pc}
 2886              		.cfi_endproc
 2887              	.LFE76:
 2889              		.section	.text._ZN11Arduino_GFX9setCursorEss,"ax",%progbits
 2890              		.align	1
 2891              		.global	_ZN11Arduino_GFX9setCursorEss
 2892              		.thumb
 2893              		.thumb_func
 2895              	_ZN11Arduino_GFX9setCursorEss:
 2896              	.LFB78:
 641:c:/Dropbox/AV_SmartWatch/toolchain_v3/src\driver_display.cpp **** void Arduino_GFX::setCursor(int16_t x, int16_t y) {
 2897              		.loc 1 641 0
 2898              		.cfi_startproc
 2899              		@ args = 0, pretend = 0, frame = 0
 2900              		@ frame_needed = 0, uses_anonymous_args = 0
 2901              		@ link register save eliminated.
 2902              	.LVL290:
 642:c:/Dropbox/AV_SmartWatch/toolchain_v3/src\driver_display.cpp ****   cursor_x = x;
 2903              		.loc 1 642 0
 2904 0000 8181     		strh	r1, [r0, #12]	@ movhi
 643:c:/Dropbox/AV_SmartWatch/toolchain_v3/src\driver_display.cpp ****   cursor_y = y;
 2905              		.loc 1 643 0
 2906 0002 C281     		strh	r2, [r0, #14]	@ movhi
 2907 0004 7047     		bx	lr
 2908              		.cfi_endproc
 2909              	.LFE78:
 2911              		.section	.text._ZN11Arduino_GFX11setTextSizeEh,"ax",%progbits
 2912              		.align	1
 2913              		.global	_ZN11Arduino_GFX11setTextSizeEh
 2914              		.thumb
 2915              		.thumb_func
 2917              	_ZN11Arduino_GFX11setTextSizeEh:
 2918              	.LFB79:
 647:c:/Dropbox/AV_SmartWatch/toolchain_v3/src\driver_display.cpp **** void Arduino_GFX::setTextSize(uint8_t s) {
 2919              		.loc 1 647 0
 2920              		.cfi_startproc
 2921              		@ args = 0, pretend = 0, frame = 0
 2922              		@ frame_needed = 0, uses_anonymous_args = 0
 2923              		@ link register save eliminated.
 2924              	.LVL291:
 648:c:/Dropbox/AV_SmartWatch/toolchain_v3/src\driver_display.cpp ****   textsize = (s > 0) ? s : 1;
 2925              		.loc 1 648 0
 2926 0000 0029     		cmp	r1, #0
 2927 0002 08BF     		it	eq
 2928 0004 0121     		moveq	r1, #1
 2929              	.LVL292:
 2930 0006 0175     		strb	r1, [r0, #20]
 2931 0008 7047     		bx	lr
 2932              		.cfi_endproc
 2933              	.LFE79:
 2935              		.section	.text._ZN11Arduino_GFX12setTextColorEt,"ax",%progbits
 2936              		.align	1
 2937              		.global	_ZN11Arduino_GFX12setTextColorEt
 2938              		.thumb
 2939              		.thumb_func
 2941              	_ZN11Arduino_GFX12setTextColorEt:
 2942              	.LFB80:
 652:c:/Dropbox/AV_SmartWatch/toolchain_v3/src\driver_display.cpp **** void Arduino_GFX::setTextColor(uint16_t c) {
 2943              		.loc 1 652 0
 2944              		.cfi_startproc
 2945              		@ args = 0, pretend = 0, frame = 0
 2946              		@ frame_needed = 0, uses_anonymous_args = 0
 2947              		@ link register save eliminated.
 2948              	.LVL293:
 653:c:/Dropbox/AV_SmartWatch/toolchain_v3/src\driver_display.cpp ****   textcolor = c;
 2949              		.loc 1 653 0
 2950 0000 0182     		strh	r1, [r0, #16]	@ movhi
 654:c:/Dropbox/AV_SmartWatch/toolchain_v3/src\driver_display.cpp ****   textbgcolor = c; 
 2951              		.loc 1 654 0
 2952 0002 4182     		strh	r1, [r0, #18]	@ movhi
 2953 0004 7047     		bx	lr
 2954              		.cfi_endproc
 2955              	.LFE80:
 2957              		.section	.text._ZN11Arduino_GFX12setTextColorEtt,"ax",%progbits
 2958              		.align	1
 2959              		.global	_ZN11Arduino_GFX12setTextColorEtt
 2960              		.thumb
 2961              		.thumb_func
 2963              	_ZN11Arduino_GFX12setTextColorEtt:
 2964              	.LFB81:
 659:c:/Dropbox/AV_SmartWatch/toolchain_v3/src\driver_display.cpp ****  void Arduino_GFX::setTextColor(uint16_t c, uint16_t b) {
 2965              		.loc 1 659 0
 2966              		.cfi_startproc
 2967              		@ args = 0, pretend = 0, frame = 0
 2968              		@ frame_needed = 0, uses_anonymous_args = 0
 2969              		@ link register save eliminated.
 2970              	.LVL294:
 660:c:/Dropbox/AV_SmartWatch/toolchain_v3/src\driver_display.cpp ****    textcolor = c;
 2971              		.loc 1 660 0
 2972 0000 0182     		strh	r1, [r0, #16]	@ movhi
 661:c:/Dropbox/AV_SmartWatch/toolchain_v3/src\driver_display.cpp ****    textbgcolor = b; 
 2973              		.loc 1 661 0
 2974 0002 4282     		strh	r2, [r0, #18]	@ movhi
 2975 0004 7047     		bx	lr
 2976              		.cfi_endproc
 2977              	.LFE81:
 2979              		.section	.text._ZN11Arduino_GFX11setTextWrapEb,"ax",%progbits
 2980              		.align	1
 2981              		.global	_ZN11Arduino_GFX11setTextWrapEb
 2982              		.thumb
 2983              		.thumb_func
 2985              	_ZN11Arduino_GFX11setTextWrapEb:
 2986              	.LFB82:
 664:c:/Dropbox/AV_SmartWatch/toolchain_v3/src\driver_display.cpp **** void Arduino_GFX::setTextWrap(bool w) {
 2987              		.loc 1 664 0
 2988              		.cfi_startproc
 2989              		@ args = 0, pretend = 0, frame = 0
 2990              		@ frame_needed = 0, uses_anonymous_args = 0
 2991              		@ link register save eliminated.
 2992              	.LVL295:
 665:c:/Dropbox/AV_SmartWatch/toolchain_v3/src\driver_display.cpp ****   wrap = w;
 2993              		.loc 1 665 0
 2994 0000 4175     		strb	r1, [r0, #21]
 2995 0002 7047     		bx	lr
 2996              		.cfi_endproc
 2997              	.LFE82:
 2999              		.section	.text._ZN11Arduino_GFX5widthEv,"ax",%progbits
 3000              		.align	1
 3001              		.global	_ZN11Arduino_GFX5widthEv
 3002              		.thumb
 3003              		.thumb_func
 3005              	_ZN11Arduino_GFX5widthEv:
 3006              	.LFB83:
 669:c:/Dropbox/AV_SmartWatch/toolchain_v3/src\driver_display.cpp **** int16_t Arduino_GFX::width(void) { 
 3007              		.loc 1 669 0
 3008              		.cfi_startproc
 3009              		@ args = 0, pretend = 0, frame = 0
 3010              		@ frame_needed = 0, uses_anonymous_args = 0
 3011              		@ link register save eliminated.
 3012              	.LVL296:
 671:c:/Dropbox/AV_SmartWatch/toolchain_v3/src\driver_display.cpp **** }
 3013              		.loc 1 671 0
 3014 0000 B0F90800 		ldrsh	r0, [r0, #8]
 3015              	.LVL297:
 3016 0004 7047     		bx	lr
 3017              		.cfi_endproc
 3018              	.LFE83:
 3020              		.section	.text._ZN11Arduino_GFX6heightEv,"ax",%progbits
 3021              		.align	1
 3022              		.global	_ZN11Arduino_GFX6heightEv
 3023              		.thumb
 3024              		.thumb_func
 3026              	_ZN11Arduino_GFX6heightEv:
 3027              	.LFB84:
 673:c:/Dropbox/AV_SmartWatch/toolchain_v3/src\driver_display.cpp **** int16_t Arduino_GFX::height(void) { 
 3028              		.loc 1 673 0
 3029              		.cfi_startproc
 3030              		@ args = 0, pretend = 0, frame = 0
 3031              		@ frame_needed = 0, uses_anonymous_args = 0
 3032              		@ link register save eliminated.
 3033              	.LVL298:
 675:c:/Dropbox/AV_SmartWatch/toolchain_v3/src\driver_display.cpp **** }
 3034              		.loc 1 675 0
 3035 0000 B0F90A00 		ldrsh	r0, [r0, #10]
 3036              	.LVL299:
 3037 0004 7047     		bx	lr
 3038              		.cfi_endproc
 3039              	.LFE84:
 3041              		.section	.text._ZN12Arduino_OLEDC2Ev,"ax",%progbits
 3042              		.align	1
 3043              		.global	_ZN12Arduino_OLEDC2Ev
 3044              		.thumb
 3045              		.thumb_func
 3047              	_ZN12Arduino_OLEDC2Ev:
 3048              	.LFB89:
 677:c:/Dropbox/AV_SmartWatch/toolchain_v3/src\driver_display.cpp **** Arduino_OLED::Arduino_OLED() {
 3049              		.loc 1 677 0
 3050              		.cfi_startproc
 3051              		@ args = 0, pretend = 0, frame = 0
 3052              		@ frame_needed = 0, uses_anonymous_args = 0
 3053              		@ link register save eliminated.
 3054              	.LVL300:
 3055              	.LBB69:
 677:c:/Dropbox/AV_SmartWatch/toolchain_v3/src\driver_display.cpp **** Arduino_OLED::Arduino_OLED() {
 3056              		.loc 1 677 0
 3057 0000 084A     		ldr	r2, .L145
 678:c:/Dropbox/AV_SmartWatch/toolchain_v3/src\driver_display.cpp ****   _width = WIDTH = 128;
 3058              		.loc 1 678 0
 3059 0002 8021     		movs	r1, #128
 677:c:/Dropbox/AV_SmartWatch/toolchain_v3/src\driver_display.cpp **** Arduino_OLED::Arduino_OLED() {
 3060              		.loc 1 677 0
 3061 0004 0260     		str	r2, [r0, #0]
 681:c:/Dropbox/AV_SmartWatch/toolchain_v3/src\driver_display.cpp ****   cursor_y = cursor_x = 0;
 3062              		.loc 1 681 0
 3063 0006 0022     		movs	r2, #0
 678:c:/Dropbox/AV_SmartWatch/toolchain_v3/src\driver_display.cpp ****   _width = WIDTH = 128;
 3064              		.loc 1 678 0
 3065 0008 8180     		strh	r1, [r0, #4]	@ movhi
 3066 000a 0181     		strh	r1, [r0, #8]	@ movhi
 679:c:/Dropbox/AV_SmartWatch/toolchain_v3/src\driver_display.cpp ****   _height = HEIGHT = 128;
 3067              		.loc 1 679 0
 3068 000c C180     		strh	r1, [r0, #6]	@ movhi
 3069 000e 4181     		strh	r1, [r0, #10]	@ movhi
 681:c:/Dropbox/AV_SmartWatch/toolchain_v3/src\driver_display.cpp ****   cursor_y = cursor_x = 0;
 3070              		.loc 1 681 0
 3071 0010 8281     		strh	r2, [r0, #12]	@ movhi
 683:c:/Dropbox/AV_SmartWatch/toolchain_v3/src\driver_display.cpp ****   textcolor = textbgcolor = 0xFFFF;
 3072              		.loc 1 683 0
 3073 0012 4FF6FF71 		movw	r1, #65535
 681:c:/Dropbox/AV_SmartWatch/toolchain_v3/src\driver_display.cpp ****   cursor_y = cursor_x = 0;
 3074              		.loc 1 681 0
 3075 0016 C281     		strh	r2, [r0, #14]	@ movhi
 682:c:/Dropbox/AV_SmartWatch/toolchain_v3/src\driver_display.cpp ****   textsize = 1;
 3076              		.loc 1 682 0
 3077 0018 0122     		movs	r2, #1
 3078 001a 0275     		strb	r2, [r0, #20]
 683:c:/Dropbox/AV_SmartWatch/toolchain_v3/src\driver_display.cpp ****   textcolor = textbgcolor = 0xFFFF;
 3079              		.loc 1 683 0
 3080 001c 4182     		strh	r1, [r0, #18]	@ movhi
 3081 001e 0182     		strh	r1, [r0, #16]	@ movhi
 684:c:/Dropbox/AV_SmartWatch/toolchain_v3/src\driver_display.cpp ****   wrap = true;
 3082              		.loc 1 684 0
 3083 0020 4275     		strb	r2, [r0, #21]
 3084              	.LBE69:
 685:c:/Dropbox/AV_SmartWatch/toolchain_v3/src\driver_display.cpp **** }
 3085              		.loc 1 685 0
 3086 0022 7047     		bx	lr
 3087              	.L146:
 3088              		.align	2
 3089              	.L145:
 3090 0024 08000000 		.word	.LANCHOR1+8
 3091              		.cfi_endproc
 3092              	.LFE89:
 3094              		.global	_ZN12Arduino_OLEDC1Ev
 3095              		.thumb_set _ZN12Arduino_OLEDC1Ev,_ZN12Arduino_OLEDC2Ev
 3096              		.section	.text._ZN12Arduino_OLED5beginEv,"ax",%progbits
 3097              		.align	1
 3098              		.global	_ZN12Arduino_OLED5beginEv
 3099              		.thumb
 3100              		.thumb_func
 3102              	_ZN12Arduino_OLED5beginEv:
 3103              	.LFB91:
 687:c:/Dropbox/AV_SmartWatch/toolchain_v3/src\driver_display.cpp **** void Arduino_OLED::begin() {
 3104              		.loc 1 687 0
 3105              		.cfi_startproc
 3106              		@ args = 0, pretend = 0, frame = 0
 3107              		@ frame_needed = 0, uses_anonymous_args = 0
 3108              		@ link register save eliminated.
 3109              	.LVL301:
 689:c:/Dropbox/AV_SmartWatch/toolchain_v3/src\driver_display.cpp **** }
 3110              		.loc 1 689 0
 688:c:/Dropbox/AV_SmartWatch/toolchain_v3/src\driver_display.cpp ****   oled_init();
 3111              		.loc 1 688 0
 3112 0000 FFF7FEBF 		b	oled_init
 3113              	.LVL302:
 3114              		.cfi_endproc
 3115              	.LFE91:
 3117              		.section	.text._ZN12Arduino_OLED8shutdownEv,"ax",%progbits
 3118              		.align	1
 3119              		.global	_ZN12Arduino_OLED8shutdownEv
 3120              		.thumb
 3121              		.thumb_func
 3123              	_ZN12Arduino_OLED8shutdownEv:
 3124              	.LFB92:
 691:c:/Dropbox/AV_SmartWatch/toolchain_v3/src\driver_display.cpp **** void Arduino_OLED::shutdown() {
 3125              		.loc 1 691 0
 3126              		.cfi_startproc
 3127              		@ args = 0, pretend = 0, frame = 0
 3128              		@ frame_needed = 0, uses_anonymous_args = 0
 3129              		@ link register save eliminated.
 3130              	.LVL303:
 693:c:/Dropbox/AV_SmartWatch/toolchain_v3/src\driver_display.cpp **** }
 3131              		.loc 1 693 0
 692:c:/Dropbox/AV_SmartWatch/toolchain_v3/src\driver_display.cpp ****   oled_deinit();
 3132              		.loc 1 692 0
 3133 0000 FFF7FEBF 		b	oled_deinit
 3134              	.LVL304:
 3135              		.cfi_endproc
 3136              	.LFE92:
 3138              		.section	.text._ZN12Arduino_OLED8setPowerEh,"ax",%progbits
 3139              		.align	1
 3140              		.global	_ZN12Arduino_OLED8setPowerEh
 3141              		.thumb
 3142              		.thumb_func
 3144              	_ZN12Arduino_OLED8setPowerEh:
 3145              	.LFB93:
 695:c:/Dropbox/AV_SmartWatch/toolchain_v3/src\driver_display.cpp **** void Arduino_OLED::setPower(uint8_t power) {
 3146              		.loc 1 695 0
 3147              		.cfi_startproc
 3148              		@ args = 0, pretend = 0, frame = 0
 3149              		@ frame_needed = 0, uses_anonymous_args = 0
 3150              		@ link register save eliminated.
 3151              	.LVL305:
 696:c:/Dropbox/AV_SmartWatch/toolchain_v3/src\driver_display.cpp ****   oled_power(power);
 3152              		.loc 1 696 0
 3153 0000 0846     		mov	r0, r1
 3154              	.LVL306:
 697:c:/Dropbox/AV_SmartWatch/toolchain_v3/src\driver_display.cpp **** }
 3155              		.loc 1 697 0
 696:c:/Dropbox/AV_SmartWatch/toolchain_v3/src\driver_display.cpp ****   oled_power(power);
 3156              		.loc 1 696 0
 3157 0002 FFF7FEBF 		b	oled_power
 3158              	.LVL307:
 3159              		.cfi_endproc
 3160              	.LFE93:
 3162              		.section	.text._ZN12Arduino_OLED13setAddrWindowEhhhh,"ax",%progbits
 3163              		.align	1
 3164              		.global	_ZN12Arduino_OLED13setAddrWindowEhhhh
 3165              		.thumb
 3166              		.thumb_func
 3168              	_ZN12Arduino_OLED13setAddrWindowEhhhh:
 3169              	.LFB94:
 699:c:/Dropbox/AV_SmartWatch/toolchain_v3/src\driver_display.cpp **** void Arduino_OLED::setAddrWindow(uint8_t x0, uint8_t y0, uint8_t x1, uint8_t y1) {
 3170              		.loc 1 699 0
 3171              		.cfi_startproc
 3172              		@ args = 4, pretend = 0, frame = 0
 3173              		@ frame_needed = 0, uses_anonymous_args = 0
 3174              		@ link register save eliminated.
 3175              	.LVL308:
 700:c:/Dropbox/AV_SmartWatch/toolchain_v3/src\driver_display.cpp ****   oled_window(x0, y0, x1, y1);
 3176              		.loc 1 700 0
 3177 0000 0846     		mov	r0, r1
 3178              	.LVL309:
 3179 0002 1146     		mov	r1, r2
 3180              	.LVL310:
 3181 0004 1A46     		mov	r2, r3
 3182              	.LVL311:
 3183 0006 9DF80030 		ldrb	r3, [sp, #0]	@ zero_extendqisi2
 3184              	.LVL312:
 701:c:/Dropbox/AV_SmartWatch/toolchain_v3/src\driver_display.cpp **** }
 3185              		.loc 1 701 0
 700:c:/Dropbox/AV_SmartWatch/toolchain_v3/src\driver_display.cpp ****   oled_window(x0, y0, x1, y1);
 3186              		.loc 1 700 0
 3187 000a FFF7FEBF 		b	oled_window
 3188              	.LVL313:
 3189              		.cfi_endproc
 3190              	.LFE94:
 3192              		.section	.text._ZN12Arduino_OLED9pushColorEt,"ax",%progbits
 3193              		.align	1
 3194              		.global	_ZN12Arduino_OLED9pushColorEt
 3195              		.thumb
 3196              		.thumb_func
 3198              	_ZN12Arduino_OLED9pushColorEt:
 3199              	.LFB95:
 703:c:/Dropbox/AV_SmartWatch/toolchain_v3/src\driver_display.cpp **** void Arduino_OLED::pushColor(uint16_t color) {
 3200              		.loc 1 703 0
 3201              		.cfi_startproc
 3202              		@ args = 0, pretend = 0, frame = 0
 3203              		@ frame_needed = 0, uses_anonymous_args = 0
 3204              		@ link register save eliminated.
 3205              	.LVL314:
 704:c:/Dropbox/AV_SmartWatch/toolchain_v3/src\driver_display.cpp ****   oled_push(color, 1);
 3206              		.loc 1 704 0
 3207 0000 0846     		mov	r0, r1
 3208              	.LVL315:
 3209 0002 0121     		movs	r1, #1
 3210              	.LVL316:
 705:c:/Dropbox/AV_SmartWatch/toolchain_v3/src\driver_display.cpp **** }
 3211              		.loc 1 705 0
 704:c:/Dropbox/AV_SmartWatch/toolchain_v3/src\driver_display.cpp ****   oled_push(color, 1);
 3212              		.loc 1 704 0
 3213 0004 FFF7FEBF 		b	oled_push
 3214              	.LVL317:
 3215              		.cfi_endproc
 3216              	.LFE95:
 3218              		.section	.text._ZN12Arduino_OLED8Color565Ehhh,"ax",%progbits
 3219              		.align	1
 3220              		.global	_ZN12Arduino_OLED8Color565Ehhh
 3221              		.thumb
 3222              		.thumb_func
