   1              		.syntax unified
   2              		.cpu cortex-m3
   3              		.fpu softvfp
   4              		.eabi_attribute 20, 1
   5              		.eabi_attribute 21, 1
   6              		.eabi_attribute 23, 3
   7              		.eabi_attribute 24, 1
   8              		.eabi_attribute 25, 1
   9              		.eabi_attribute 26, 1
  10              		.eabi_attribute 30, 4
  11              		.eabi_attribute 34, 1
  12              		.eabi_attribute 18, 4
  13              		.thumb
  14              		.file	"stm32f2xx_can.c"
  15              		.text
  16              	.Ltext0:
  17              		.cfi_sections	.debug_frame
  18              		.section	.text.CAN_DeInit,"ax",%progbits
  19              		.align	1
  20              		.global	CAN_DeInit
  21              		.thumb
  22              		.thumb_func
  24              	CAN_DeInit:
  25              	.LFB56:
  26              		.file 1 "c:/Dropbox/AV_SmartWatch/toolchain_v3/src/libstm32f2/stm32f2xx_can.c"
   1:c:/Dropbox/AV_SmartWatch/toolchain_v3/src/libstm32f2\stm32f2xx_can.c **** /**
   2:c:/Dropbox/AV_SmartWatch/toolchain_v3/src/libstm32f2\stm32f2xx_can.c ****   ******************************************************************************
   3:c:/Dropbox/AV_SmartWatch/toolchain_v3/src/libstm32f2\stm32f2xx_can.c ****   * @file    stm32f2xx_can.c
   4:c:/Dropbox/AV_SmartWatch/toolchain_v3/src/libstm32f2\stm32f2xx_can.c ****   * @author  MCD Application Team
   5:c:/Dropbox/AV_SmartWatch/toolchain_v3/src/libstm32f2\stm32f2xx_can.c ****   * @version V1.1.2
   6:c:/Dropbox/AV_SmartWatch/toolchain_v3/src/libstm32f2\stm32f2xx_can.c ****   * @date    05-March-2012 
   7:c:/Dropbox/AV_SmartWatch/toolchain_v3/src/libstm32f2\stm32f2xx_can.c ****   * @brief   This file provides firmware functions to manage the following 
   8:c:/Dropbox/AV_SmartWatch/toolchain_v3/src/libstm32f2\stm32f2xx_can.c ****   *          functionalities of the Controller area network (CAN) peripheral:           
   9:c:/Dropbox/AV_SmartWatch/toolchain_v3/src/libstm32f2\stm32f2xx_can.c ****   *           - Initialization and Configuration 
  10:c:/Dropbox/AV_SmartWatch/toolchain_v3/src/libstm32f2\stm32f2xx_can.c ****   *           - CAN Frames Transmission 
  11:c:/Dropbox/AV_SmartWatch/toolchain_v3/src/libstm32f2\stm32f2xx_can.c ****   *           - CAN Frames Reception    
  12:c:/Dropbox/AV_SmartWatch/toolchain_v3/src/libstm32f2\stm32f2xx_can.c ****   *           - Operation modes switch  
  13:c:/Dropbox/AV_SmartWatch/toolchain_v3/src/libstm32f2\stm32f2xx_can.c ****   *           - Error management          
  14:c:/Dropbox/AV_SmartWatch/toolchain_v3/src/libstm32f2\stm32f2xx_can.c ****   *           - Interrupts and flags        
  15:c:/Dropbox/AV_SmartWatch/toolchain_v3/src/libstm32f2\stm32f2xx_can.c ****   *         
  16:c:/Dropbox/AV_SmartWatch/toolchain_v3/src/libstm32f2\stm32f2xx_can.c ****   *  @verbatim
  17:c:/Dropbox/AV_SmartWatch/toolchain_v3/src/libstm32f2\stm32f2xx_can.c ****   *                               
  18:c:/Dropbox/AV_SmartWatch/toolchain_v3/src/libstm32f2\stm32f2xx_can.c ****   *          ===================================================================      
  19:c:/Dropbox/AV_SmartWatch/toolchain_v3/src/libstm32f2\stm32f2xx_can.c ****   *                                   How to use this driver
  20:c:/Dropbox/AV_SmartWatch/toolchain_v3/src/libstm32f2\stm32f2xx_can.c ****   *          ===================================================================
  21:c:/Dropbox/AV_SmartWatch/toolchain_v3/src/libstm32f2\stm32f2xx_can.c ****                 
  22:c:/Dropbox/AV_SmartWatch/toolchain_v3/src/libstm32f2\stm32f2xx_can.c ****   *          1.  Enable the CAN controller interface clock using 
  23:c:/Dropbox/AV_SmartWatch/toolchain_v3/src/libstm32f2\stm32f2xx_can.c ****   *                  RCC_APB1PeriphClockCmd(RCC_APB1Periph_CAN1, ENABLE); for CAN1 
  24:c:/Dropbox/AV_SmartWatch/toolchain_v3/src/libstm32f2\stm32f2xx_can.c ****   *              and RCC_APB1PeriphClockCmd(RCC_APB1Periph_CAN2, ENABLE); for CAN2
  25:c:/Dropbox/AV_SmartWatch/toolchain_v3/src/libstm32f2\stm32f2xx_can.c ****   *  @note   In case you are using CAN2 only, you have to enable the CAN1 clock.
  26:c:/Dropbox/AV_SmartWatch/toolchain_v3/src/libstm32f2\stm32f2xx_can.c ****   *     
  27:c:/Dropbox/AV_SmartWatch/toolchain_v3/src/libstm32f2\stm32f2xx_can.c ****   *          2. CAN pins configuration
  28:c:/Dropbox/AV_SmartWatch/toolchain_v3/src/libstm32f2\stm32f2xx_can.c ****   *               - Enable the clock for the CAN GPIOs using the following function:
  29:c:/Dropbox/AV_SmartWatch/toolchain_v3/src/libstm32f2\stm32f2xx_can.c ****   *                   RCC_AHB1PeriphClockCmd(RCC_AHB1Periph_GPIOx, ENABLE);   
  30:c:/Dropbox/AV_SmartWatch/toolchain_v3/src/libstm32f2\stm32f2xx_can.c ****   *               - Connect the involved CAN pins to AF9 using the following function 
  31:c:/Dropbox/AV_SmartWatch/toolchain_v3/src/libstm32f2\stm32f2xx_can.c ****   *                   GPIO_PinAFConfig(GPIOx, GPIO_PinSourcex, GPIO_AF_CANx); 
  32:c:/Dropbox/AV_SmartWatch/toolchain_v3/src/libstm32f2\stm32f2xx_can.c ****   *                - Configure these CAN pins in alternate function mode by calling
  33:c:/Dropbox/AV_SmartWatch/toolchain_v3/src/libstm32f2\stm32f2xx_can.c ****   *                  the function  GPIO_Init();
  34:c:/Dropbox/AV_SmartWatch/toolchain_v3/src/libstm32f2\stm32f2xx_can.c ****   *    
  35:c:/Dropbox/AV_SmartWatch/toolchain_v3/src/libstm32f2\stm32f2xx_can.c ****   *          3.  Initialise and configure the CAN using CAN_Init() and 
  36:c:/Dropbox/AV_SmartWatch/toolchain_v3/src/libstm32f2\stm32f2xx_can.c ****   *               CAN_FilterInit() functions.   
  37:c:/Dropbox/AV_SmartWatch/toolchain_v3/src/libstm32f2\stm32f2xx_can.c ****   *               
  38:c:/Dropbox/AV_SmartWatch/toolchain_v3/src/libstm32f2\stm32f2xx_can.c ****   *          4.  Transmit the desired CAN frame using CAN_Transmit() function.
  39:c:/Dropbox/AV_SmartWatch/toolchain_v3/src/libstm32f2\stm32f2xx_can.c ****   *         
  40:c:/Dropbox/AV_SmartWatch/toolchain_v3/src/libstm32f2\stm32f2xx_can.c ****   *          5.  Check the transmission of a CAN frame using CAN_TransmitStatus()
  41:c:/Dropbox/AV_SmartWatch/toolchain_v3/src/libstm32f2\stm32f2xx_can.c ****   *              function.
  42:c:/Dropbox/AV_SmartWatch/toolchain_v3/src/libstm32f2\stm32f2xx_can.c ****   *               
  43:c:/Dropbox/AV_SmartWatch/toolchain_v3/src/libstm32f2\stm32f2xx_can.c ****   *          6.  Cancel the transmission of a CAN frame using CAN_CancelTransmit()
  44:c:/Dropbox/AV_SmartWatch/toolchain_v3/src/libstm32f2\stm32f2xx_can.c ****   *              function.  
  45:c:/Dropbox/AV_SmartWatch/toolchain_v3/src/libstm32f2\stm32f2xx_can.c ****   *            
  46:c:/Dropbox/AV_SmartWatch/toolchain_v3/src/libstm32f2\stm32f2xx_can.c ****   *          7.  Receive a CAN frame using CAN_Recieve() function.
  47:c:/Dropbox/AV_SmartWatch/toolchain_v3/src/libstm32f2\stm32f2xx_can.c ****   *         
  48:c:/Dropbox/AV_SmartWatch/toolchain_v3/src/libstm32f2\stm32f2xx_can.c ****   *          8.  Release the receive FIFOs using CAN_FIFORelease() function.
  49:c:/Dropbox/AV_SmartWatch/toolchain_v3/src/libstm32f2\stm32f2xx_can.c ****   *               
  50:c:/Dropbox/AV_SmartWatch/toolchain_v3/src/libstm32f2\stm32f2xx_can.c ****   *          9. Return the number of pending received frames using 
  51:c:/Dropbox/AV_SmartWatch/toolchain_v3/src/libstm32f2\stm32f2xx_can.c ****   *              CAN_MessagePending() function.            
  52:c:/Dropbox/AV_SmartWatch/toolchain_v3/src/libstm32f2\stm32f2xx_can.c ****   *                   
  53:c:/Dropbox/AV_SmartWatch/toolchain_v3/src/libstm32f2\stm32f2xx_can.c ****   *          10. To control CAN events you can use one of the following two methods:
  54:c:/Dropbox/AV_SmartWatch/toolchain_v3/src/libstm32f2\stm32f2xx_can.c ****   *               - Check on CAN flags using the CAN_GetFlagStatus() function.  
  55:c:/Dropbox/AV_SmartWatch/toolchain_v3/src/libstm32f2\stm32f2xx_can.c ****   *               - Use CAN interrupts through the function CAN_ITConfig() at 
  56:c:/Dropbox/AV_SmartWatch/toolchain_v3/src/libstm32f2\stm32f2xx_can.c ****   *                 initialization phase and CAN_GetITStatus() function into 
  57:c:/Dropbox/AV_SmartWatch/toolchain_v3/src/libstm32f2\stm32f2xx_can.c ****   *                 interrupt routines to check if the event has occurred or not.
  58:c:/Dropbox/AV_SmartWatch/toolchain_v3/src/libstm32f2\stm32f2xx_can.c ****   *             After checking on a flag you should clear it using CAN_ClearFlag()
  59:c:/Dropbox/AV_SmartWatch/toolchain_v3/src/libstm32f2\stm32f2xx_can.c ****   *             function. And after checking on an interrupt event you should 
  60:c:/Dropbox/AV_SmartWatch/toolchain_v3/src/libstm32f2\stm32f2xx_can.c ****   *             clear it using CAN_ClearITPendingBit() function.            
  61:c:/Dropbox/AV_SmartWatch/toolchain_v3/src/libstm32f2\stm32f2xx_can.c ****   *               
  62:c:/Dropbox/AV_SmartWatch/toolchain_v3/src/libstm32f2\stm32f2xx_can.c ****   *              
  63:c:/Dropbox/AV_SmartWatch/toolchain_v3/src/libstm32f2\stm32f2xx_can.c ****   *  @endverbatim
  64:c:/Dropbox/AV_SmartWatch/toolchain_v3/src/libstm32f2\stm32f2xx_can.c ****   *         
  65:c:/Dropbox/AV_SmartWatch/toolchain_v3/src/libstm32f2\stm32f2xx_can.c ****   ******************************************************************************
  66:c:/Dropbox/AV_SmartWatch/toolchain_v3/src/libstm32f2\stm32f2xx_can.c ****   * @attention
  67:c:/Dropbox/AV_SmartWatch/toolchain_v3/src/libstm32f2\stm32f2xx_can.c ****   *
  68:c:/Dropbox/AV_SmartWatch/toolchain_v3/src/libstm32f2\stm32f2xx_can.c ****   * <h2><center>&copy; COPYRIGHT 2012 STMicroelectronics</center></h2>
  69:c:/Dropbox/AV_SmartWatch/toolchain_v3/src/libstm32f2\stm32f2xx_can.c ****   *
  70:c:/Dropbox/AV_SmartWatch/toolchain_v3/src/libstm32f2\stm32f2xx_can.c ****   * Licensed under MCD-ST Liberty SW License Agreement V2, (the "License");
  71:c:/Dropbox/AV_SmartWatch/toolchain_v3/src/libstm32f2\stm32f2xx_can.c ****   * You may not use this file except in compliance with the License.
  72:c:/Dropbox/AV_SmartWatch/toolchain_v3/src/libstm32f2\stm32f2xx_can.c ****   * You may obtain a copy of the License at:
  73:c:/Dropbox/AV_SmartWatch/toolchain_v3/src/libstm32f2\stm32f2xx_can.c ****   *
  74:c:/Dropbox/AV_SmartWatch/toolchain_v3/src/libstm32f2\stm32f2xx_can.c ****   *        http://www.st.com/software_license_agreement_liberty_v2
  75:c:/Dropbox/AV_SmartWatch/toolchain_v3/src/libstm32f2\stm32f2xx_can.c ****   *
  76:c:/Dropbox/AV_SmartWatch/toolchain_v3/src/libstm32f2\stm32f2xx_can.c ****   * Unless required by applicable law or agreed to in writing, software 
  77:c:/Dropbox/AV_SmartWatch/toolchain_v3/src/libstm32f2\stm32f2xx_can.c ****   * distributed under the License is distributed on an "AS IS" BASIS, 
  78:c:/Dropbox/AV_SmartWatch/toolchain_v3/src/libstm32f2\stm32f2xx_can.c ****   * WITHOUT WARRANTIES OR CONDITIONS OF ANY KIND, either express or implied.
  79:c:/Dropbox/AV_SmartWatch/toolchain_v3/src/libstm32f2\stm32f2xx_can.c ****   * See the License for the specific language governing permissions and
  80:c:/Dropbox/AV_SmartWatch/toolchain_v3/src/libstm32f2\stm32f2xx_can.c ****   * limitations under the License.
  81:c:/Dropbox/AV_SmartWatch/toolchain_v3/src/libstm32f2\stm32f2xx_can.c ****   *
  82:c:/Dropbox/AV_SmartWatch/toolchain_v3/src/libstm32f2\stm32f2xx_can.c ****   ******************************************************************************
  83:c:/Dropbox/AV_SmartWatch/toolchain_v3/src/libstm32f2\stm32f2xx_can.c ****   */
  84:c:/Dropbox/AV_SmartWatch/toolchain_v3/src/libstm32f2\stm32f2xx_can.c **** 
  85:c:/Dropbox/AV_SmartWatch/toolchain_v3/src/libstm32f2\stm32f2xx_can.c **** /* Includes ------------------------------------------------------------------*/
  86:c:/Dropbox/AV_SmartWatch/toolchain_v3/src/libstm32f2\stm32f2xx_can.c **** #include "stm32f2xx_can.h"
  87:c:/Dropbox/AV_SmartWatch/toolchain_v3/src/libstm32f2\stm32f2xx_can.c **** #include "stm32f2xx_rcc.h"
  88:c:/Dropbox/AV_SmartWatch/toolchain_v3/src/libstm32f2\stm32f2xx_can.c **** 
  89:c:/Dropbox/AV_SmartWatch/toolchain_v3/src/libstm32f2\stm32f2xx_can.c **** /** @addtogroup STM32F2xx_StdPeriph_Driver
  90:c:/Dropbox/AV_SmartWatch/toolchain_v3/src/libstm32f2\stm32f2xx_can.c ****   * @{
  91:c:/Dropbox/AV_SmartWatch/toolchain_v3/src/libstm32f2\stm32f2xx_can.c ****   */
  92:c:/Dropbox/AV_SmartWatch/toolchain_v3/src/libstm32f2\stm32f2xx_can.c **** 
  93:c:/Dropbox/AV_SmartWatch/toolchain_v3/src/libstm32f2\stm32f2xx_can.c **** /** @defgroup CAN 
  94:c:/Dropbox/AV_SmartWatch/toolchain_v3/src/libstm32f2\stm32f2xx_can.c ****   * @brief CAN driver modules
  95:c:/Dropbox/AV_SmartWatch/toolchain_v3/src/libstm32f2\stm32f2xx_can.c ****   * @{
  96:c:/Dropbox/AV_SmartWatch/toolchain_v3/src/libstm32f2\stm32f2xx_can.c ****   */ 
  97:c:/Dropbox/AV_SmartWatch/toolchain_v3/src/libstm32f2\stm32f2xx_can.c **** /* Private typedef -----------------------------------------------------------*/
  98:c:/Dropbox/AV_SmartWatch/toolchain_v3/src/libstm32f2\stm32f2xx_can.c **** /* Private define ------------------------------------------------------------*/
  99:c:/Dropbox/AV_SmartWatch/toolchain_v3/src/libstm32f2\stm32f2xx_can.c **** 
 100:c:/Dropbox/AV_SmartWatch/toolchain_v3/src/libstm32f2\stm32f2xx_can.c **** /* CAN Master Control Register bits */
 101:c:/Dropbox/AV_SmartWatch/toolchain_v3/src/libstm32f2\stm32f2xx_can.c **** #define MCR_DBF           ((uint32_t)0x00010000) /* software master reset */
 102:c:/Dropbox/AV_SmartWatch/toolchain_v3/src/libstm32f2\stm32f2xx_can.c **** 
 103:c:/Dropbox/AV_SmartWatch/toolchain_v3/src/libstm32f2\stm32f2xx_can.c **** /* CAN Mailbox Transmit Request */
 104:c:/Dropbox/AV_SmartWatch/toolchain_v3/src/libstm32f2\stm32f2xx_can.c **** #define TMIDxR_TXRQ       ((uint32_t)0x00000001) /* Transmit mailbox request */
 105:c:/Dropbox/AV_SmartWatch/toolchain_v3/src/libstm32f2\stm32f2xx_can.c **** 
 106:c:/Dropbox/AV_SmartWatch/toolchain_v3/src/libstm32f2\stm32f2xx_can.c **** /* CAN Filter Master Register bits */
 107:c:/Dropbox/AV_SmartWatch/toolchain_v3/src/libstm32f2\stm32f2xx_can.c **** #define FMR_FINIT         ((uint32_t)0x00000001) /* Filter init mode */
 108:c:/Dropbox/AV_SmartWatch/toolchain_v3/src/libstm32f2\stm32f2xx_can.c **** 
 109:c:/Dropbox/AV_SmartWatch/toolchain_v3/src/libstm32f2\stm32f2xx_can.c **** /* Time out for INAK bit */
 110:c:/Dropbox/AV_SmartWatch/toolchain_v3/src/libstm32f2\stm32f2xx_can.c **** #define INAK_TIMEOUT      ((uint32_t)0x0000FFFF)
 111:c:/Dropbox/AV_SmartWatch/toolchain_v3/src/libstm32f2\stm32f2xx_can.c **** /* Time out for SLAK bit */
 112:c:/Dropbox/AV_SmartWatch/toolchain_v3/src/libstm32f2\stm32f2xx_can.c **** #define SLAK_TIMEOUT      ((uint32_t)0x0000FFFF)
 113:c:/Dropbox/AV_SmartWatch/toolchain_v3/src/libstm32f2\stm32f2xx_can.c **** 
 114:c:/Dropbox/AV_SmartWatch/toolchain_v3/src/libstm32f2\stm32f2xx_can.c **** /* Flags in TSR register */
 115:c:/Dropbox/AV_SmartWatch/toolchain_v3/src/libstm32f2\stm32f2xx_can.c **** #define CAN_FLAGS_TSR     ((uint32_t)0x08000000) 
 116:c:/Dropbox/AV_SmartWatch/toolchain_v3/src/libstm32f2\stm32f2xx_can.c **** /* Flags in RF1R register */
 117:c:/Dropbox/AV_SmartWatch/toolchain_v3/src/libstm32f2\stm32f2xx_can.c **** #define CAN_FLAGS_RF1R    ((uint32_t)0x04000000) 
 118:c:/Dropbox/AV_SmartWatch/toolchain_v3/src/libstm32f2\stm32f2xx_can.c **** /* Flags in RF0R register */
 119:c:/Dropbox/AV_SmartWatch/toolchain_v3/src/libstm32f2\stm32f2xx_can.c **** #define CAN_FLAGS_RF0R    ((uint32_t)0x02000000) 
 120:c:/Dropbox/AV_SmartWatch/toolchain_v3/src/libstm32f2\stm32f2xx_can.c **** /* Flags in MSR register */
 121:c:/Dropbox/AV_SmartWatch/toolchain_v3/src/libstm32f2\stm32f2xx_can.c **** #define CAN_FLAGS_MSR     ((uint32_t)0x01000000) 
 122:c:/Dropbox/AV_SmartWatch/toolchain_v3/src/libstm32f2\stm32f2xx_can.c **** /* Flags in ESR register */
 123:c:/Dropbox/AV_SmartWatch/toolchain_v3/src/libstm32f2\stm32f2xx_can.c **** #define CAN_FLAGS_ESR     ((uint32_t)0x00F00000) 
 124:c:/Dropbox/AV_SmartWatch/toolchain_v3/src/libstm32f2\stm32f2xx_can.c **** 
 125:c:/Dropbox/AV_SmartWatch/toolchain_v3/src/libstm32f2\stm32f2xx_can.c **** /* Mailboxes definition */
 126:c:/Dropbox/AV_SmartWatch/toolchain_v3/src/libstm32f2\stm32f2xx_can.c **** #define CAN_TXMAILBOX_0   ((uint8_t)0x00)
 127:c:/Dropbox/AV_SmartWatch/toolchain_v3/src/libstm32f2\stm32f2xx_can.c **** #define CAN_TXMAILBOX_1   ((uint8_t)0x01)
 128:c:/Dropbox/AV_SmartWatch/toolchain_v3/src/libstm32f2\stm32f2xx_can.c **** #define CAN_TXMAILBOX_2   ((uint8_t)0x02) 
 129:c:/Dropbox/AV_SmartWatch/toolchain_v3/src/libstm32f2\stm32f2xx_can.c **** 
 130:c:/Dropbox/AV_SmartWatch/toolchain_v3/src/libstm32f2\stm32f2xx_can.c **** #define CAN_MODE_MASK     ((uint32_t) 0x00000003)
 131:c:/Dropbox/AV_SmartWatch/toolchain_v3/src/libstm32f2\stm32f2xx_can.c **** 
 132:c:/Dropbox/AV_SmartWatch/toolchain_v3/src/libstm32f2\stm32f2xx_can.c **** /* Private macro -------------------------------------------------------------*/
 133:c:/Dropbox/AV_SmartWatch/toolchain_v3/src/libstm32f2\stm32f2xx_can.c **** /* Private variables ---------------------------------------------------------*/
 134:c:/Dropbox/AV_SmartWatch/toolchain_v3/src/libstm32f2\stm32f2xx_can.c **** /* Private function prototypes -----------------------------------------------*/
 135:c:/Dropbox/AV_SmartWatch/toolchain_v3/src/libstm32f2\stm32f2xx_can.c **** /* Private functions ---------------------------------------------------------*/
 136:c:/Dropbox/AV_SmartWatch/toolchain_v3/src/libstm32f2\stm32f2xx_can.c **** static ITStatus CheckITStatus(uint32_t CAN_Reg, uint32_t It_Bit);
 137:c:/Dropbox/AV_SmartWatch/toolchain_v3/src/libstm32f2\stm32f2xx_can.c **** 
 138:c:/Dropbox/AV_SmartWatch/toolchain_v3/src/libstm32f2\stm32f2xx_can.c **** /** @defgroup CAN_Private_Functions
 139:c:/Dropbox/AV_SmartWatch/toolchain_v3/src/libstm32f2\stm32f2xx_can.c ****   * @{
 140:c:/Dropbox/AV_SmartWatch/toolchain_v3/src/libstm32f2\stm32f2xx_can.c ****   */
 141:c:/Dropbox/AV_SmartWatch/toolchain_v3/src/libstm32f2\stm32f2xx_can.c **** 
 142:c:/Dropbox/AV_SmartWatch/toolchain_v3/src/libstm32f2\stm32f2xx_can.c **** /** @defgroup CAN_Group1 Initialization and Configuration functions
 143:c:/Dropbox/AV_SmartWatch/toolchain_v3/src/libstm32f2\stm32f2xx_can.c ****  *  @brief    Initialization and Configuration functions 
 144:c:/Dropbox/AV_SmartWatch/toolchain_v3/src/libstm32f2\stm32f2xx_can.c ****  *
 145:c:/Dropbox/AV_SmartWatch/toolchain_v3/src/libstm32f2\stm32f2xx_can.c **** @verbatim    
 146:c:/Dropbox/AV_SmartWatch/toolchain_v3/src/libstm32f2\stm32f2xx_can.c ****  ===============================================================================
 147:c:/Dropbox/AV_SmartWatch/toolchain_v3/src/libstm32f2\stm32f2xx_can.c ****                       Initialization and Configuration functions
 148:c:/Dropbox/AV_SmartWatch/toolchain_v3/src/libstm32f2\stm32f2xx_can.c ****  ===============================================================================  
 149:c:/Dropbox/AV_SmartWatch/toolchain_v3/src/libstm32f2\stm32f2xx_can.c ****   This section provides functions allowing to 
 150:c:/Dropbox/AV_SmartWatch/toolchain_v3/src/libstm32f2\stm32f2xx_can.c ****    - Initialize the CAN peripherals : Prescaler, operating mode, the maximum number 
 151:c:/Dropbox/AV_SmartWatch/toolchain_v3/src/libstm32f2\stm32f2xx_can.c ****      of time quanta to perform resynchronization, the number of time quanta in
 152:c:/Dropbox/AV_SmartWatch/toolchain_v3/src/libstm32f2\stm32f2xx_can.c ****      Bit Segment 1 and 2 and many other modes. 
 153:c:/Dropbox/AV_SmartWatch/toolchain_v3/src/libstm32f2\stm32f2xx_can.c ****      Refer to  @ref CAN_InitTypeDef  for more details.
 154:c:/Dropbox/AV_SmartWatch/toolchain_v3/src/libstm32f2\stm32f2xx_can.c ****    - Configures the CAN reception filter.                                      
 155:c:/Dropbox/AV_SmartWatch/toolchain_v3/src/libstm32f2\stm32f2xx_can.c ****    - Select the start bank filter for slave CAN.
 156:c:/Dropbox/AV_SmartWatch/toolchain_v3/src/libstm32f2\stm32f2xx_can.c ****    - Enables or disables the Debug Freeze mode for CAN
 157:c:/Dropbox/AV_SmartWatch/toolchain_v3/src/libstm32f2\stm32f2xx_can.c ****    - Enables or disables the CAN Time Trigger Operation communication mode
 158:c:/Dropbox/AV_SmartWatch/toolchain_v3/src/libstm32f2\stm32f2xx_can.c ****    
 159:c:/Dropbox/AV_SmartWatch/toolchain_v3/src/libstm32f2\stm32f2xx_can.c **** @endverbatim
 160:c:/Dropbox/AV_SmartWatch/toolchain_v3/src/libstm32f2\stm32f2xx_can.c ****   * @{
 161:c:/Dropbox/AV_SmartWatch/toolchain_v3/src/libstm32f2\stm32f2xx_can.c ****   */
 162:c:/Dropbox/AV_SmartWatch/toolchain_v3/src/libstm32f2\stm32f2xx_can.c ****   
 163:c:/Dropbox/AV_SmartWatch/toolchain_v3/src/libstm32f2\stm32f2xx_can.c **** /**
 164:c:/Dropbox/AV_SmartWatch/toolchain_v3/src/libstm32f2\stm32f2xx_can.c ****   * @brief  Deinitializes the CAN peripheral registers to their default reset values.
 165:c:/Dropbox/AV_SmartWatch/toolchain_v3/src/libstm32f2\stm32f2xx_can.c ****   * @param  CANx: where x can be 1 or 2 to select the CAN peripheral.
 166:c:/Dropbox/AV_SmartWatch/toolchain_v3/src/libstm32f2\stm32f2xx_can.c ****   * @retval None.
 167:c:/Dropbox/AV_SmartWatch/toolchain_v3/src/libstm32f2\stm32f2xx_can.c ****   */
 168:c:/Dropbox/AV_SmartWatch/toolchain_v3/src/libstm32f2\stm32f2xx_can.c **** void CAN_DeInit(CAN_TypeDef* CANx)
 169:c:/Dropbox/AV_SmartWatch/toolchain_v3/src/libstm32f2\stm32f2xx_can.c **** {
  27              		.loc 1 169 0
  28              		.cfi_startproc
  29              		@ args = 0, pretend = 0, frame = 0
  30              		@ frame_needed = 0, uses_anonymous_args = 0
  31              	.LVL0:
  32 0000 08B5     		push	{r3, lr}
  33              	.LCFI0:
  34              		.cfi_def_cfa_offset 8
  35              		.cfi_offset 3, -8
  36              		.cfi_offset 14, -4
 170:c:/Dropbox/AV_SmartWatch/toolchain_v3/src/libstm32f2\stm32f2xx_can.c ****   /* Check the parameters */
 171:c:/Dropbox/AV_SmartWatch/toolchain_v3/src/libstm32f2\stm32f2xx_can.c ****   assert_param(IS_CAN_ALL_PERIPH(CANx));
 172:c:/Dropbox/AV_SmartWatch/toolchain_v3/src/libstm32f2\stm32f2xx_can.c ****  
 173:c:/Dropbox/AV_SmartWatch/toolchain_v3/src/libstm32f2\stm32f2xx_can.c ****   if (CANx == CAN1)
  37              		.loc 1 173 0
  38 0002 0B4B     		ldr	r3, .L5
  39 0004 9842     		cmp	r0, r3
  40 0006 07D1     		bne	.L2
 174:c:/Dropbox/AV_SmartWatch/toolchain_v3/src/libstm32f2\stm32f2xx_can.c ****   {
 175:c:/Dropbox/AV_SmartWatch/toolchain_v3/src/libstm32f2\stm32f2xx_can.c ****     /* Enable CAN1 reset state */
 176:c:/Dropbox/AV_SmartWatch/toolchain_v3/src/libstm32f2\stm32f2xx_can.c ****     RCC_APB1PeriphResetCmd(RCC_APB1Periph_CAN1, ENABLE);
  41              		.loc 1 176 0
  42 0008 4FF00070 		mov	r0, #33554432
  43              	.LVL1:
  44 000c 0121     		movs	r1, #1
  45 000e FFF7FEFF 		bl	RCC_APB1PeriphResetCmd
  46              	.LVL2:
 177:c:/Dropbox/AV_SmartWatch/toolchain_v3/src/libstm32f2\stm32f2xx_can.c ****     /* Release CAN1 from reset state */
 178:c:/Dropbox/AV_SmartWatch/toolchain_v3/src/libstm32f2\stm32f2xx_can.c ****     RCC_APB1PeriphResetCmd(RCC_APB1Periph_CAN1, DISABLE);
  47              		.loc 1 178 0
  48 0012 4FF00070 		mov	r0, #33554432
  49 0016 06E0     		b	.L3
  50              	.LVL3:
  51              	.L2:
 179:c:/Dropbox/AV_SmartWatch/toolchain_v3/src/libstm32f2\stm32f2xx_can.c ****   }
 180:c:/Dropbox/AV_SmartWatch/toolchain_v3/src/libstm32f2\stm32f2xx_can.c ****   else
 181:c:/Dropbox/AV_SmartWatch/toolchain_v3/src/libstm32f2\stm32f2xx_can.c ****   {  
 182:c:/Dropbox/AV_SmartWatch/toolchain_v3/src/libstm32f2\stm32f2xx_can.c ****     /* Enable CAN2 reset state */
 183:c:/Dropbox/AV_SmartWatch/toolchain_v3/src/libstm32f2\stm32f2xx_can.c ****     RCC_APB1PeriphResetCmd(RCC_APB1Periph_CAN2, ENABLE);
  52              		.loc 1 183 0
  53 0018 4FF08060 		mov	r0, #67108864
  54              	.LVL4:
  55 001c 0121     		movs	r1, #1
  56 001e FFF7FEFF 		bl	RCC_APB1PeriphResetCmd
  57              	.LVL5:
 184:c:/Dropbox/AV_SmartWatch/toolchain_v3/src/libstm32f2\stm32f2xx_can.c ****     /* Release CAN2 from reset state */
 185:c:/Dropbox/AV_SmartWatch/toolchain_v3/src/libstm32f2\stm32f2xx_can.c ****     RCC_APB1PeriphResetCmd(RCC_APB1Periph_CAN2, DISABLE);
  58              		.loc 1 185 0
  59 0022 4FF08060 		mov	r0, #67108864
  60              	.L3:
  61 0026 0021     		movs	r1, #0
 186:c:/Dropbox/AV_SmartWatch/toolchain_v3/src/libstm32f2\stm32f2xx_can.c ****   }
 187:c:/Dropbox/AV_SmartWatch/toolchain_v3/src/libstm32f2\stm32f2xx_can.c **** }
  62              		.loc 1 187 0
  63 0028 BDE80840 		pop	{r3, lr}
 185:c:/Dropbox/AV_SmartWatch/toolchain_v3/src/libstm32f2\stm32f2xx_can.c ****     RCC_APB1PeriphResetCmd(RCC_APB1Periph_CAN2, DISABLE);
  64              		.loc 1 185 0
  65 002c FFF7FEBF 		b	RCC_APB1PeriphResetCmd
  66              	.LVL6:
  67              	.L6:
  68              		.align	2
  69              	.L5:
  70 0030 00640040 		.word	1073767424
  71              		.cfi_endproc
  72              	.LFE56:
  74              		.section	.text.CAN_Init,"ax",%progbits
  75              		.align	1
  76              		.global	CAN_Init
  77              		.thumb
  78              		.thumb_func
  80              	CAN_Init:
  81              	.LFB57:
 188:c:/Dropbox/AV_SmartWatch/toolchain_v3/src/libstm32f2\stm32f2xx_can.c **** 
 189:c:/Dropbox/AV_SmartWatch/toolchain_v3/src/libstm32f2\stm32f2xx_can.c **** /**
 190:c:/Dropbox/AV_SmartWatch/toolchain_v3/src/libstm32f2\stm32f2xx_can.c ****   * @brief  Initializes the CAN peripheral according to the specified
 191:c:/Dropbox/AV_SmartWatch/toolchain_v3/src/libstm32f2\stm32f2xx_can.c ****   *         parameters in the CAN_InitStruct.
 192:c:/Dropbox/AV_SmartWatch/toolchain_v3/src/libstm32f2\stm32f2xx_can.c ****   * @param  CANx: where x can be 1 or 2 to select the CAN peripheral.
 193:c:/Dropbox/AV_SmartWatch/toolchain_v3/src/libstm32f2\stm32f2xx_can.c ****   * @param  CAN_InitStruct: pointer to a CAN_InitTypeDef structure that contains
 194:c:/Dropbox/AV_SmartWatch/toolchain_v3/src/libstm32f2\stm32f2xx_can.c ****   *         the configuration information for the CAN peripheral.
 195:c:/Dropbox/AV_SmartWatch/toolchain_v3/src/libstm32f2\stm32f2xx_can.c ****   * @retval Constant indicates initialization succeed which will be 
 196:c:/Dropbox/AV_SmartWatch/toolchain_v3/src/libstm32f2\stm32f2xx_can.c ****   *         CAN_InitStatus_Failed or CAN_InitStatus_Success.
 197:c:/Dropbox/AV_SmartWatch/toolchain_v3/src/libstm32f2\stm32f2xx_can.c ****   */
 198:c:/Dropbox/AV_SmartWatch/toolchain_v3/src/libstm32f2\stm32f2xx_can.c **** uint8_t CAN_Init(CAN_TypeDef* CANx, CAN_InitTypeDef* CAN_InitStruct)
 199:c:/Dropbox/AV_SmartWatch/toolchain_v3/src/libstm32f2\stm32f2xx_can.c **** {
  82              		.loc 1 199 0
  83              		.cfi_startproc
  84              		@ args = 0, pretend = 0, frame = 0
  85              		@ frame_needed = 0, uses_anonymous_args = 0
  86              		@ link register save eliminated.
  87              	.LVL7:
 200:c:/Dropbox/AV_SmartWatch/toolchain_v3/src/libstm32f2\stm32f2xx_can.c ****   uint8_t InitStatus = CAN_InitStatus_Failed;
 201:c:/Dropbox/AV_SmartWatch/toolchain_v3/src/libstm32f2\stm32f2xx_can.c ****   uint32_t wait_ack = 0x00000000;
 202:c:/Dropbox/AV_SmartWatch/toolchain_v3/src/libstm32f2\stm32f2xx_can.c ****   /* Check the parameters */
 203:c:/Dropbox/AV_SmartWatch/toolchain_v3/src/libstm32f2\stm32f2xx_can.c ****   assert_param(IS_CAN_ALL_PERIPH(CANx));
 204:c:/Dropbox/AV_SmartWatch/toolchain_v3/src/libstm32f2\stm32f2xx_can.c ****   assert_param(IS_FUNCTIONAL_STATE(CAN_InitStruct->CAN_TTCM));
 205:c:/Dropbox/AV_SmartWatch/toolchain_v3/src/libstm32f2\stm32f2xx_can.c ****   assert_param(IS_FUNCTIONAL_STATE(CAN_InitStruct->CAN_ABOM));
 206:c:/Dropbox/AV_SmartWatch/toolchain_v3/src/libstm32f2\stm32f2xx_can.c ****   assert_param(IS_FUNCTIONAL_STATE(CAN_InitStruct->CAN_AWUM));
 207:c:/Dropbox/AV_SmartWatch/toolchain_v3/src/libstm32f2\stm32f2xx_can.c ****   assert_param(IS_FUNCTIONAL_STATE(CAN_InitStruct->CAN_NART));
 208:c:/Dropbox/AV_SmartWatch/toolchain_v3/src/libstm32f2\stm32f2xx_can.c ****   assert_param(IS_FUNCTIONAL_STATE(CAN_InitStruct->CAN_RFLM));
 209:c:/Dropbox/AV_SmartWatch/toolchain_v3/src/libstm32f2\stm32f2xx_can.c ****   assert_param(IS_FUNCTIONAL_STATE(CAN_InitStruct->CAN_TXFP));
 210:c:/Dropbox/AV_SmartWatch/toolchain_v3/src/libstm32f2\stm32f2xx_can.c ****   assert_param(IS_CAN_MODE(CAN_InitStruct->CAN_Mode));
 211:c:/Dropbox/AV_SmartWatch/toolchain_v3/src/libstm32f2\stm32f2xx_can.c ****   assert_param(IS_CAN_SJW(CAN_InitStruct->CAN_SJW));
 212:c:/Dropbox/AV_SmartWatch/toolchain_v3/src/libstm32f2\stm32f2xx_can.c ****   assert_param(IS_CAN_BS1(CAN_InitStruct->CAN_BS1));
 213:c:/Dropbox/AV_SmartWatch/toolchain_v3/src/libstm32f2\stm32f2xx_can.c ****   assert_param(IS_CAN_BS2(CAN_InitStruct->CAN_BS2));
 214:c:/Dropbox/AV_SmartWatch/toolchain_v3/src/libstm32f2\stm32f2xx_can.c ****   assert_param(IS_CAN_PRESCALER(CAN_InitStruct->CAN_Prescaler));
 215:c:/Dropbox/AV_SmartWatch/toolchain_v3/src/libstm32f2\stm32f2xx_can.c **** 
 216:c:/Dropbox/AV_SmartWatch/toolchain_v3/src/libstm32f2\stm32f2xx_can.c ****   /* Exit from sleep mode */
 217:c:/Dropbox/AV_SmartWatch/toolchain_v3/src/libstm32f2\stm32f2xx_can.c ****   CANx->MCR &= (~(uint32_t)CAN_MCR_SLEEP);
  88              		.loc 1 217 0
  89 0000 0368     		ldr	r3, [r0, #0]
  90 0002 23F00202 		bic	r2, r3, #2
  91 0006 0260     		str	r2, [r0, #0]
 218:c:/Dropbox/AV_SmartWatch/toolchain_v3/src/libstm32f2\stm32f2xx_can.c **** 
 219:c:/Dropbox/AV_SmartWatch/toolchain_v3/src/libstm32f2\stm32f2xx_can.c ****   /* Request initialisation */
 220:c:/Dropbox/AV_SmartWatch/toolchain_v3/src/libstm32f2\stm32f2xx_can.c ****   CANx->MCR |= CAN_MCR_INRQ ;
  92              		.loc 1 220 0
  93 0008 0368     		ldr	r3, [r0, #0]
  94 000a 43F00102 		orr	r2, r3, #1
  95 000e 0260     		str	r2, [r0, #0]
 221:c:/Dropbox/AV_SmartWatch/toolchain_v3/src/libstm32f2\stm32f2xx_can.c **** 
 222:c:/Dropbox/AV_SmartWatch/toolchain_v3/src/libstm32f2\stm32f2xx_can.c ****   /* Wait the acknowledge */
 223:c:/Dropbox/AV_SmartWatch/toolchain_v3/src/libstm32f2\stm32f2xx_can.c ****   while (((CANx->MSR & CAN_MSR_INAK) != CAN_MSR_INAK) && (wait_ack != INAK_TIMEOUT))
  96              		.loc 1 223 0
  97 0010 4FF48033 		mov	r3, #65536
  98              	.LVL8:
  99              	.L9:
 100              		.loc 1 223 0 is_stmt 0 discriminator 1
 101 0014 4268     		ldr	r2, [r0, #4]
 102 0016 D207     		lsls	r2, r2, #31
 103 0018 01D4     		bmi	.L8
 104              		.loc 1 223 0 discriminator 2
 105 001a 013B     		subs	r3, r3, #1
 106 001c FAD1     		bne	.L9
 107              	.L8:
 224:c:/Dropbox/AV_SmartWatch/toolchain_v3/src/libstm32f2\stm32f2xx_can.c ****   {
 225:c:/Dropbox/AV_SmartWatch/toolchain_v3/src/libstm32f2\stm32f2xx_can.c ****     wait_ack++;
 226:c:/Dropbox/AV_SmartWatch/toolchain_v3/src/libstm32f2\stm32f2xx_can.c ****   }
 227:c:/Dropbox/AV_SmartWatch/toolchain_v3/src/libstm32f2\stm32f2xx_can.c **** 
 228:c:/Dropbox/AV_SmartWatch/toolchain_v3/src/libstm32f2\stm32f2xx_can.c ****   /* Check acknowledge */
 229:c:/Dropbox/AV_SmartWatch/toolchain_v3/src/libstm32f2\stm32f2xx_can.c ****   if ((CANx->MSR & CAN_MSR_INAK) != CAN_MSR_INAK)
 108              		.loc 1 229 0 is_stmt 1
 109 001e 4268     		ldr	r2, [r0, #4]
 110 0020 12F00103 		ands	r3, r2, #1
 111 0024 55D0     		beq	.L25
 230:c:/Dropbox/AV_SmartWatch/toolchain_v3/src/libstm32f2\stm32f2xx_can.c ****   {
 231:c:/Dropbox/AV_SmartWatch/toolchain_v3/src/libstm32f2\stm32f2xx_can.c ****     InitStatus = CAN_InitStatus_Failed;
 232:c:/Dropbox/AV_SmartWatch/toolchain_v3/src/libstm32f2\stm32f2xx_can.c ****   }
 233:c:/Dropbox/AV_SmartWatch/toolchain_v3/src/libstm32f2\stm32f2xx_can.c ****   else 
 234:c:/Dropbox/AV_SmartWatch/toolchain_v3/src/libstm32f2\stm32f2xx_can.c ****   {
 235:c:/Dropbox/AV_SmartWatch/toolchain_v3/src/libstm32f2\stm32f2xx_can.c ****     /* Set the time triggered communication mode */
 236:c:/Dropbox/AV_SmartWatch/toolchain_v3/src/libstm32f2\stm32f2xx_can.c ****     if (CAN_InitStruct->CAN_TTCM == ENABLE)
 112              		.loc 1 236 0
 113 0026 8A79     		ldrb	r2, [r1, #6]	@ zero_extendqisi2
 237:c:/Dropbox/AV_SmartWatch/toolchain_v3/src/libstm32f2\stm32f2xx_can.c ****     {
 238:c:/Dropbox/AV_SmartWatch/toolchain_v3/src/libstm32f2\stm32f2xx_can.c ****       CANx->MCR |= CAN_MCR_TTCM;
 114              		.loc 1 238 0
 115 0028 0368     		ldr	r3, [r0, #0]
 236:c:/Dropbox/AV_SmartWatch/toolchain_v3/src/libstm32f2\stm32f2xx_can.c ****     if (CAN_InitStruct->CAN_TTCM == ENABLE)
 116              		.loc 1 236 0
 117 002a 012A     		cmp	r2, #1
 118              		.loc 1 238 0
 119 002c 0CBF     		ite	eq
 120 002e 43F08003 		orreq	r3, r3, #128
 239:c:/Dropbox/AV_SmartWatch/toolchain_v3/src/libstm32f2\stm32f2xx_can.c ****     }
 240:c:/Dropbox/AV_SmartWatch/toolchain_v3/src/libstm32f2\stm32f2xx_can.c ****     else
 241:c:/Dropbox/AV_SmartWatch/toolchain_v3/src/libstm32f2\stm32f2xx_can.c ****     {
 242:c:/Dropbox/AV_SmartWatch/toolchain_v3/src/libstm32f2\stm32f2xx_can.c ****       CANx->MCR &= ~(uint32_t)CAN_MCR_TTCM;
 121              		.loc 1 242 0
 122 0032 23F08003 		bicne	r3, r3, #128
 123 0036 0360     		str	r3, [r0, #0]
 243:c:/Dropbox/AV_SmartWatch/toolchain_v3/src/libstm32f2\stm32f2xx_can.c ****     }
 244:c:/Dropbox/AV_SmartWatch/toolchain_v3/src/libstm32f2\stm32f2xx_can.c **** 
 245:c:/Dropbox/AV_SmartWatch/toolchain_v3/src/libstm32f2\stm32f2xx_can.c ****     /* Set the automatic bus-off management */
 246:c:/Dropbox/AV_SmartWatch/toolchain_v3/src/libstm32f2\stm32f2xx_can.c ****     if (CAN_InitStruct->CAN_ABOM == ENABLE)
 124              		.loc 1 246 0
 125 0038 CA79     		ldrb	r2, [r1, #7]	@ zero_extendqisi2
 247:c:/Dropbox/AV_SmartWatch/toolchain_v3/src/libstm32f2\stm32f2xx_can.c ****     {
 248:c:/Dropbox/AV_SmartWatch/toolchain_v3/src/libstm32f2\stm32f2xx_can.c ****       CANx->MCR |= CAN_MCR_ABOM;
 126              		.loc 1 248 0
 127 003a 0368     		ldr	r3, [r0, #0]
 246:c:/Dropbox/AV_SmartWatch/toolchain_v3/src/libstm32f2\stm32f2xx_can.c ****     if (CAN_InitStruct->CAN_ABOM == ENABLE)
 128              		.loc 1 246 0
 129 003c 012A     		cmp	r2, #1
 130              		.loc 1 248 0
 131 003e 0CBF     		ite	eq
 132 0040 43F04003 		orreq	r3, r3, #64
 249:c:/Dropbox/AV_SmartWatch/toolchain_v3/src/libstm32f2\stm32f2xx_can.c ****     }
 250:c:/Dropbox/AV_SmartWatch/toolchain_v3/src/libstm32f2\stm32f2xx_can.c ****     else
 251:c:/Dropbox/AV_SmartWatch/toolchain_v3/src/libstm32f2\stm32f2xx_can.c ****     {
 252:c:/Dropbox/AV_SmartWatch/toolchain_v3/src/libstm32f2\stm32f2xx_can.c ****       CANx->MCR &= ~(uint32_t)CAN_MCR_ABOM;
 133              		.loc 1 252 0
 134 0044 23F04003 		bicne	r3, r3, #64
 135 0048 0360     		str	r3, [r0, #0]
 253:c:/Dropbox/AV_SmartWatch/toolchain_v3/src/libstm32f2\stm32f2xx_can.c ****     }
 254:c:/Dropbox/AV_SmartWatch/toolchain_v3/src/libstm32f2\stm32f2xx_can.c **** 
 255:c:/Dropbox/AV_SmartWatch/toolchain_v3/src/libstm32f2\stm32f2xx_can.c ****     /* Set the automatic wake-up mode */
 256:c:/Dropbox/AV_SmartWatch/toolchain_v3/src/libstm32f2\stm32f2xx_can.c ****     if (CAN_InitStruct->CAN_AWUM == ENABLE)
 136              		.loc 1 256 0
 137 004a 0A7A     		ldrb	r2, [r1, #8]	@ zero_extendqisi2
 257:c:/Dropbox/AV_SmartWatch/toolchain_v3/src/libstm32f2\stm32f2xx_can.c ****     {
 258:c:/Dropbox/AV_SmartWatch/toolchain_v3/src/libstm32f2\stm32f2xx_can.c ****       CANx->MCR |= CAN_MCR_AWUM;
 138              		.loc 1 258 0
 139 004c 0368     		ldr	r3, [r0, #0]
 256:c:/Dropbox/AV_SmartWatch/toolchain_v3/src/libstm32f2\stm32f2xx_can.c ****     if (CAN_InitStruct->CAN_AWUM == ENABLE)
 140              		.loc 1 256 0
 141 004e 012A     		cmp	r2, #1
 142              		.loc 1 258 0
 143 0050 0CBF     		ite	eq
 144 0052 43F02003 		orreq	r3, r3, #32
 259:c:/Dropbox/AV_SmartWatch/toolchain_v3/src/libstm32f2\stm32f2xx_can.c ****     }
 260:c:/Dropbox/AV_SmartWatch/toolchain_v3/src/libstm32f2\stm32f2xx_can.c ****     else
 261:c:/Dropbox/AV_SmartWatch/toolchain_v3/src/libstm32f2\stm32f2xx_can.c ****     {
 262:c:/Dropbox/AV_SmartWatch/toolchain_v3/src/libstm32f2\stm32f2xx_can.c ****       CANx->MCR &= ~(uint32_t)CAN_MCR_AWUM;
 145              		.loc 1 262 0
 146 0056 23F02003 		bicne	r3, r3, #32
 147 005a 0360     		str	r3, [r0, #0]
 263:c:/Dropbox/AV_SmartWatch/toolchain_v3/src/libstm32f2\stm32f2xx_can.c ****     }
 264:c:/Dropbox/AV_SmartWatch/toolchain_v3/src/libstm32f2\stm32f2xx_can.c **** 
 265:c:/Dropbox/AV_SmartWatch/toolchain_v3/src/libstm32f2\stm32f2xx_can.c ****     /* Set the no automatic retransmission */
 266:c:/Dropbox/AV_SmartWatch/toolchain_v3/src/libstm32f2\stm32f2xx_can.c ****     if (CAN_InitStruct->CAN_NART == ENABLE)
 148              		.loc 1 266 0
 149 005c 4A7A     		ldrb	r2, [r1, #9]	@ zero_extendqisi2
 267:c:/Dropbox/AV_SmartWatch/toolchain_v3/src/libstm32f2\stm32f2xx_can.c ****     {
 268:c:/Dropbox/AV_SmartWatch/toolchain_v3/src/libstm32f2\stm32f2xx_can.c ****       CANx->MCR |= CAN_MCR_NART;
 150              		.loc 1 268 0
 151 005e 0368     		ldr	r3, [r0, #0]
 266:c:/Dropbox/AV_SmartWatch/toolchain_v3/src/libstm32f2\stm32f2xx_can.c ****     if (CAN_InitStruct->CAN_NART == ENABLE)
 152              		.loc 1 266 0
 153 0060 012A     		cmp	r2, #1
 154              		.loc 1 268 0
 155 0062 0CBF     		ite	eq
 156 0064 43F01003 		orreq	r3, r3, #16
 269:c:/Dropbox/AV_SmartWatch/toolchain_v3/src/libstm32f2\stm32f2xx_can.c ****     }
 270:c:/Dropbox/AV_SmartWatch/toolchain_v3/src/libstm32f2\stm32f2xx_can.c ****     else
 271:c:/Dropbox/AV_SmartWatch/toolchain_v3/src/libstm32f2\stm32f2xx_can.c ****     {
 272:c:/Dropbox/AV_SmartWatch/toolchain_v3/src/libstm32f2\stm32f2xx_can.c ****       CANx->MCR &= ~(uint32_t)CAN_MCR_NART;
 157              		.loc 1 272 0
 158 0068 23F01003 		bicne	r3, r3, #16
 159 006c 0360     		str	r3, [r0, #0]
 273:c:/Dropbox/AV_SmartWatch/toolchain_v3/src/libstm32f2\stm32f2xx_can.c ****     }
 274:c:/Dropbox/AV_SmartWatch/toolchain_v3/src/libstm32f2\stm32f2xx_can.c **** 
 275:c:/Dropbox/AV_SmartWatch/toolchain_v3/src/libstm32f2\stm32f2xx_can.c ****     /* Set the receive FIFO locked mode */
 276:c:/Dropbox/AV_SmartWatch/toolchain_v3/src/libstm32f2\stm32f2xx_can.c ****     if (CAN_InitStruct->CAN_RFLM == ENABLE)
 160              		.loc 1 276 0
 161 006e 8A7A     		ldrb	r2, [r1, #10]	@ zero_extendqisi2
 277:c:/Dropbox/AV_SmartWatch/toolchain_v3/src/libstm32f2\stm32f2xx_can.c ****     {
 278:c:/Dropbox/AV_SmartWatch/toolchain_v3/src/libstm32f2\stm32f2xx_can.c ****       CANx->MCR |= CAN_MCR_RFLM;
 162              		.loc 1 278 0
 163 0070 0368     		ldr	r3, [r0, #0]
 276:c:/Dropbox/AV_SmartWatch/toolchain_v3/src/libstm32f2\stm32f2xx_can.c ****     if (CAN_InitStruct->CAN_RFLM == ENABLE)
 164              		.loc 1 276 0
 165 0072 012A     		cmp	r2, #1
 166              		.loc 1 278 0
 167 0074 0CBF     		ite	eq
 168 0076 43F00803 		orreq	r3, r3, #8
 279:c:/Dropbox/AV_SmartWatch/toolchain_v3/src/libstm32f2\stm32f2xx_can.c ****     }
 280:c:/Dropbox/AV_SmartWatch/toolchain_v3/src/libstm32f2\stm32f2xx_can.c ****     else
 281:c:/Dropbox/AV_SmartWatch/toolchain_v3/src/libstm32f2\stm32f2xx_can.c ****     {
 282:c:/Dropbox/AV_SmartWatch/toolchain_v3/src/libstm32f2\stm32f2xx_can.c ****       CANx->MCR &= ~(uint32_t)CAN_MCR_RFLM;
 169              		.loc 1 282 0
 170 007a 23F00803 		bicne	r3, r3, #8
 171 007e 0360     		str	r3, [r0, #0]
 283:c:/Dropbox/AV_SmartWatch/toolchain_v3/src/libstm32f2\stm32f2xx_can.c ****     }
 284:c:/Dropbox/AV_SmartWatch/toolchain_v3/src/libstm32f2\stm32f2xx_can.c **** 
 285:c:/Dropbox/AV_SmartWatch/toolchain_v3/src/libstm32f2\stm32f2xx_can.c ****     /* Set the transmit FIFO priority */
 286:c:/Dropbox/AV_SmartWatch/toolchain_v3/src/libstm32f2\stm32f2xx_can.c ****     if (CAN_InitStruct->CAN_TXFP == ENABLE)
 172              		.loc 1 286 0
 173 0080 CA7A     		ldrb	r2, [r1, #11]	@ zero_extendqisi2
 287:c:/Dropbox/AV_SmartWatch/toolchain_v3/src/libstm32f2\stm32f2xx_can.c ****     {
 288:c:/Dropbox/AV_SmartWatch/toolchain_v3/src/libstm32f2\stm32f2xx_can.c ****       CANx->MCR |= CAN_MCR_TXFP;
 174              		.loc 1 288 0
 175 0082 0368     		ldr	r3, [r0, #0]
 286:c:/Dropbox/AV_SmartWatch/toolchain_v3/src/libstm32f2\stm32f2xx_can.c ****     if (CAN_InitStruct->CAN_TXFP == ENABLE)
 176              		.loc 1 286 0
 177 0084 012A     		cmp	r2, #1
 178              		.loc 1 288 0
 179 0086 0CBF     		ite	eq
 180 0088 43F00403 		orreq	r3, r3, #4
 289:c:/Dropbox/AV_SmartWatch/toolchain_v3/src/libstm32f2\stm32f2xx_can.c ****     }
 290:c:/Dropbox/AV_SmartWatch/toolchain_v3/src/libstm32f2\stm32f2xx_can.c ****     else
 291:c:/Dropbox/AV_SmartWatch/toolchain_v3/src/libstm32f2\stm32f2xx_can.c ****     {
 292:c:/Dropbox/AV_SmartWatch/toolchain_v3/src/libstm32f2\stm32f2xx_can.c ****       CANx->MCR &= ~(uint32_t)CAN_MCR_TXFP;
 181              		.loc 1 292 0
 182 008c 23F00403 		bicne	r3, r3, #4
 183 0090 0360     		str	r3, [r0, #0]
 293:c:/Dropbox/AV_SmartWatch/toolchain_v3/src/libstm32f2\stm32f2xx_can.c ****     }
 294:c:/Dropbox/AV_SmartWatch/toolchain_v3/src/libstm32f2\stm32f2xx_can.c **** 
 295:c:/Dropbox/AV_SmartWatch/toolchain_v3/src/libstm32f2\stm32f2xx_can.c ****     /* Set the bit timing register */
 296:c:/Dropbox/AV_SmartWatch/toolchain_v3/src/libstm32f2\stm32f2xx_can.c ****     CANx->BTR = (uint32_t)((uint32_t)CAN_InitStruct->CAN_Mode << 30) | \
 184              		.loc 1 296 0
 185 0092 8B78     		ldrb	r3, [r1, #2]	@ zero_extendqisi2
 297:c:/Dropbox/AV_SmartWatch/toolchain_v3/src/libstm32f2\stm32f2xx_can.c ****                 ((uint32_t)CAN_InitStruct->CAN_SJW << 24) | \
 186              		.loc 1 297 0
 187 0094 CA78     		ldrb	r2, [r1, #3]	@ zero_extendqisi2
 296:c:/Dropbox/AV_SmartWatch/toolchain_v3/src/libstm32f2\stm32f2xx_can.c ****     CANx->BTR = (uint32_t)((uint32_t)CAN_InitStruct->CAN_Mode << 30) | \
 188              		.loc 1 296 0
 189 0096 9B07     		lsls	r3, r3, #30
 190 0098 43EA0263 		orr	r3, r3, r2, lsl #24
 298:c:/Dropbox/AV_SmartWatch/toolchain_v3/src/libstm32f2\stm32f2xx_can.c ****                 ((uint32_t)CAN_InitStruct->CAN_BS1 << 16) | \
 191              		.loc 1 298 0
 192 009c 0A79     		ldrb	r2, [r1, #4]	@ zero_extendqisi2
 297:c:/Dropbox/AV_SmartWatch/toolchain_v3/src/libstm32f2\stm32f2xx_can.c ****                 ((uint32_t)CAN_InitStruct->CAN_SJW << 24) | \
 193              		.loc 1 297 0
 194 009e 43EA0243 		orr	r3, r3, r2, lsl #16
 299:c:/Dropbox/AV_SmartWatch/toolchain_v3/src/libstm32f2\stm32f2xx_can.c ****                 ((uint32_t)CAN_InitStruct->CAN_BS2 << 20) | \
 195              		.loc 1 299 0
 196 00a2 4A79     		ldrb	r2, [r1, #5]	@ zero_extendqisi2
 300:c:/Dropbox/AV_SmartWatch/toolchain_v3/src/libstm32f2\stm32f2xx_can.c ****                ((uint32_t)CAN_InitStruct->CAN_Prescaler - 1);
 197              		.loc 1 300 0
 198 00a4 0988     		ldrh	r1, [r1, #0]
 199              	.LVL9:
 298:c:/Dropbox/AV_SmartWatch/toolchain_v3/src/libstm32f2\stm32f2xx_can.c ****                 ((uint32_t)CAN_InitStruct->CAN_BS1 << 16) | \
 200              		.loc 1 298 0
 201 00a6 43EA0253 		orr	r3, r3, r2, lsl #20
 202              		.loc 1 300 0
 203 00aa 4A1E     		subs	r2, r1, #1
 299:c:/Dropbox/AV_SmartWatch/toolchain_v3/src/libstm32f2\stm32f2xx_can.c ****                 ((uint32_t)CAN_InitStruct->CAN_BS2 << 20) | \
 204              		.loc 1 299 0
 205 00ac 1343     		orrs	r3, r3, r2
 296:c:/Dropbox/AV_SmartWatch/toolchain_v3/src/libstm32f2\stm32f2xx_can.c ****     CANx->BTR = (uint32_t)((uint32_t)CAN_InitStruct->CAN_Mode << 30) | \
 206              		.loc 1 296 0
 207 00ae C361     		str	r3, [r0, #28]
 301:c:/Dropbox/AV_SmartWatch/toolchain_v3/src/libstm32f2\stm32f2xx_can.c **** 
 302:c:/Dropbox/AV_SmartWatch/toolchain_v3/src/libstm32f2\stm32f2xx_can.c ****     /* Request leave initialisation */
 303:c:/Dropbox/AV_SmartWatch/toolchain_v3/src/libstm32f2\stm32f2xx_can.c ****     CANx->MCR &= ~(uint32_t)CAN_MCR_INRQ;
 208              		.loc 1 303 0
 209 00b0 0368     		ldr	r3, [r0, #0]
 210 00b2 23F00101 		bic	r1, r3, #1
 211 00b6 0160     		str	r1, [r0, #0]
 212              	.LVL10:
 304:c:/Dropbox/AV_SmartWatch/toolchain_v3/src/libstm32f2\stm32f2xx_can.c **** 
 305:c:/Dropbox/AV_SmartWatch/toolchain_v3/src/libstm32f2\stm32f2xx_can.c ****    /* Wait the acknowledge */
 306:c:/Dropbox/AV_SmartWatch/toolchain_v3/src/libstm32f2\stm32f2xx_can.c ****    wait_ack = 0;
 307:c:/Dropbox/AV_SmartWatch/toolchain_v3/src/libstm32f2\stm32f2xx_can.c **** 
 308:c:/Dropbox/AV_SmartWatch/toolchain_v3/src/libstm32f2\stm32f2xx_can.c ****    while (((CANx->MSR & CAN_MSR_INAK) == CAN_MSR_INAK) && (wait_ack != INAK_TIMEOUT))
 213              		.loc 1 308 0
 214 00b8 4FF48033 		mov	r3, #65536
 215              	.LVL11:
 216              	.L24:
 217              		.loc 1 308 0 is_stmt 0 discriminator 1
 218 00bc 4268     		ldr	r2, [r0, #4]
 219 00be D207     		lsls	r2, r2, #31
 220 00c0 01D5     		bpl	.L23
 221              		.loc 1 308 0 discriminator 2
 222 00c2 013B     		subs	r3, r3, #1
 223 00c4 FAD1     		bne	.L24
 224              	.L23:
 309:c:/Dropbox/AV_SmartWatch/toolchain_v3/src/libstm32f2\stm32f2xx_can.c ****    {
 310:c:/Dropbox/AV_SmartWatch/toolchain_v3/src/libstm32f2\stm32f2xx_can.c ****      wait_ack++;
 311:c:/Dropbox/AV_SmartWatch/toolchain_v3/src/libstm32f2\stm32f2xx_can.c ****    }
 312:c:/Dropbox/AV_SmartWatch/toolchain_v3/src/libstm32f2\stm32f2xx_can.c **** 
 313:c:/Dropbox/AV_SmartWatch/toolchain_v3/src/libstm32f2\stm32f2xx_can.c ****     /* ...and check acknowledged */
 314:c:/Dropbox/AV_SmartWatch/toolchain_v3/src/libstm32f2\stm32f2xx_can.c ****     if ((CANx->MSR & CAN_MSR_INAK) == CAN_MSR_INAK)
 225              		.loc 1 314 0 is_stmt 1
 226 00c6 4068     		ldr	r0, [r0, #4]
 227              	.LVL12:
 228 00c8 00F00101 		and	r1, r0, #1
 231:c:/Dropbox/AV_SmartWatch/toolchain_v3/src/libstm32f2\stm32f2xx_can.c ****     InitStatus = CAN_InitStatus_Failed;
 229              		.loc 1 231 0
 230 00cc 81F00100 		eor	r0, r1, #1
 231 00d0 7047     		bx	lr
 232              	.LVL13:
 233              	.L25:
 234 00d2 1846     		mov	r0, r3
 235              	.LVL14:
 315:c:/Dropbox/AV_SmartWatch/toolchain_v3/src/libstm32f2\stm32f2xx_can.c ****     {
 316:c:/Dropbox/AV_SmartWatch/toolchain_v3/src/libstm32f2\stm32f2xx_can.c ****       InitStatus = CAN_InitStatus_Failed;
 317:c:/Dropbox/AV_SmartWatch/toolchain_v3/src/libstm32f2\stm32f2xx_can.c ****     }
 318:c:/Dropbox/AV_SmartWatch/toolchain_v3/src/libstm32f2\stm32f2xx_can.c ****     else
 319:c:/Dropbox/AV_SmartWatch/toolchain_v3/src/libstm32f2\stm32f2xx_can.c ****     {
 320:c:/Dropbox/AV_SmartWatch/toolchain_v3/src/libstm32f2\stm32f2xx_can.c ****       InitStatus = CAN_InitStatus_Success ;
 321:c:/Dropbox/AV_SmartWatch/toolchain_v3/src/libstm32f2\stm32f2xx_can.c ****     }
 322:c:/Dropbox/AV_SmartWatch/toolchain_v3/src/libstm32f2\stm32f2xx_can.c ****   }
 323:c:/Dropbox/AV_SmartWatch/toolchain_v3/src/libstm32f2\stm32f2xx_can.c **** 
 324:c:/Dropbox/AV_SmartWatch/toolchain_v3/src/libstm32f2\stm32f2xx_can.c ****   /* At this step, return the status of initialization */
 325:c:/Dropbox/AV_SmartWatch/toolchain_v3/src/libstm32f2\stm32f2xx_can.c ****   return InitStatus;
 326:c:/Dropbox/AV_SmartWatch/toolchain_v3/src/libstm32f2\stm32f2xx_can.c **** }
 236              		.loc 1 326 0
 237 00d4 7047     		bx	lr
 238              		.cfi_endproc
 239              	.LFE57:
 241              		.section	.text.CAN_FilterInit,"ax",%progbits
 242              		.align	1
 243              		.global	CAN_FilterInit
 244              		.thumb
 245              		.thumb_func
 247              	CAN_FilterInit:
 248              	.LFB58:
 327:c:/Dropbox/AV_SmartWatch/toolchain_v3/src/libstm32f2\stm32f2xx_can.c **** 
 328:c:/Dropbox/AV_SmartWatch/toolchain_v3/src/libstm32f2\stm32f2xx_can.c **** /**
 329:c:/Dropbox/AV_SmartWatch/toolchain_v3/src/libstm32f2\stm32f2xx_can.c ****   * @brief  Configures the CAN reception filter according to the specified
 330:c:/Dropbox/AV_SmartWatch/toolchain_v3/src/libstm32f2\stm32f2xx_can.c ****   *         parameters in the CAN_FilterInitStruct.
 331:c:/Dropbox/AV_SmartWatch/toolchain_v3/src/libstm32f2\stm32f2xx_can.c ****   * @param  CAN_FilterInitStruct: pointer to a CAN_FilterInitTypeDef structure that
 332:c:/Dropbox/AV_SmartWatch/toolchain_v3/src/libstm32f2\stm32f2xx_can.c ****   *         contains the configuration information.
 333:c:/Dropbox/AV_SmartWatch/toolchain_v3/src/libstm32f2\stm32f2xx_can.c ****   * @retval None
 334:c:/Dropbox/AV_SmartWatch/toolchain_v3/src/libstm32f2\stm32f2xx_can.c ****   */
 335:c:/Dropbox/AV_SmartWatch/toolchain_v3/src/libstm32f2\stm32f2xx_can.c **** void CAN_FilterInit(CAN_FilterInitTypeDef* CAN_FilterInitStruct)
 336:c:/Dropbox/AV_SmartWatch/toolchain_v3/src/libstm32f2\stm32f2xx_can.c **** {
 249              		.loc 1 336 0
 250              		.cfi_startproc
 251              		@ args = 0, pretend = 0, frame = 0
 252              		@ frame_needed = 0, uses_anonymous_args = 0
 253              	.LVL15:
 254 0000 70B5     		push	{r4, r5, r6, lr}
 255              	.LCFI1:
 256              		.cfi_def_cfa_offset 16
 257              		.cfi_offset 4, -16
 258              		.cfi_offset 5, -12
 259              		.cfi_offset 6, -8
 260              		.cfi_offset 14, -4
 337:c:/Dropbox/AV_SmartWatch/toolchain_v3/src/libstm32f2\stm32f2xx_can.c ****   uint32_t filter_number_bit_pos = 0;
 338:c:/Dropbox/AV_SmartWatch/toolchain_v3/src/libstm32f2\stm32f2xx_can.c ****   /* Check the parameters */
 339:c:/Dropbox/AV_SmartWatch/toolchain_v3/src/libstm32f2\stm32f2xx_can.c ****   assert_param(IS_CAN_FILTER_NUMBER(CAN_FilterInitStruct->CAN_FilterNumber));
 340:c:/Dropbox/AV_SmartWatch/toolchain_v3/src/libstm32f2\stm32f2xx_can.c ****   assert_param(IS_CAN_FILTER_MODE(CAN_FilterInitStruct->CAN_FilterMode));
 341:c:/Dropbox/AV_SmartWatch/toolchain_v3/src/libstm32f2\stm32f2xx_can.c ****   assert_param(IS_CAN_FILTER_SCALE(CAN_FilterInitStruct->CAN_FilterScale));
 342:c:/Dropbox/AV_SmartWatch/toolchain_v3/src/libstm32f2\stm32f2xx_can.c ****   assert_param(IS_CAN_FILTER_FIFO(CAN_FilterInitStruct->CAN_FilterFIFOAssignment));
 343:c:/Dropbox/AV_SmartWatch/toolchain_v3/src/libstm32f2\stm32f2xx_can.c ****   assert_param(IS_FUNCTIONAL_STATE(CAN_FilterInitStruct->CAN_FilterActivation));
 344:c:/Dropbox/AV_SmartWatch/toolchain_v3/src/libstm32f2\stm32f2xx_can.c **** 
 345:c:/Dropbox/AV_SmartWatch/toolchain_v3/src/libstm32f2\stm32f2xx_can.c ****   filter_number_bit_pos = ((uint32_t)1) << CAN_FilterInitStruct->CAN_FilterNumber;
 261              		.loc 1 345 0
 262 0002 837A     		ldrb	r3, [r0, #10]	@ zero_extendqisi2
 263 0004 0121     		movs	r1, #1
 264 0006 01FA03F1 		lsl	r1, r1, r3
 265              	.LVL16:
 346:c:/Dropbox/AV_SmartWatch/toolchain_v3/src/libstm32f2\stm32f2xx_can.c **** 
 347:c:/Dropbox/AV_SmartWatch/toolchain_v3/src/libstm32f2\stm32f2xx_can.c ****   /* Initialisation mode for the filter */
 348:c:/Dropbox/AV_SmartWatch/toolchain_v3/src/libstm32f2\stm32f2xx_can.c ****   CAN1->FMR |= FMR_FINIT;
 266              		.loc 1 348 0
 267 000a 364B     		ldr	r3, .L46
 268 000c D3F80022 		ldr	r2, [r3, #512]
 269 0010 42F00104 		orr	r4, r2, #1
 270 0014 C3F80042 		str	r4, [r3, #512]
 349:c:/Dropbox/AV_SmartWatch/toolchain_v3/src/libstm32f2\stm32f2xx_can.c **** 
 350:c:/Dropbox/AV_SmartWatch/toolchain_v3/src/libstm32f2\stm32f2xx_can.c ****   /* Filter Deactivation */
 351:c:/Dropbox/AV_SmartWatch/toolchain_v3/src/libstm32f2\stm32f2xx_can.c ****   CAN1->FA1R &= ~(uint32_t)filter_number_bit_pos;
 271              		.loc 1 351 0
 272 0018 D3F81C52 		ldr	r5, [r3, #540]
 273 001c CC43     		mvns	r4, r1
 274 001e 2540     		ands	r5, r5, r4
 275 0020 C3F81C52 		str	r5, [r3, #540]
 352:c:/Dropbox/AV_SmartWatch/toolchain_v3/src/libstm32f2\stm32f2xx_can.c **** 
 353:c:/Dropbox/AV_SmartWatch/toolchain_v3/src/libstm32f2\stm32f2xx_can.c ****   /* Filter Scale */
 354:c:/Dropbox/AV_SmartWatch/toolchain_v3/src/libstm32f2\stm32f2xx_can.c ****   if (CAN_FilterInitStruct->CAN_FilterScale == CAN_FilterScale_16bit)
 276              		.loc 1 354 0
 277 0024 027B     		ldrb	r2, [r0, #12]	@ zero_extendqisi2
 278 0026 AAB9     		cbnz	r2, .L38
 355:c:/Dropbox/AV_SmartWatch/toolchain_v3/src/libstm32f2\stm32f2xx_can.c ****   {
 356:c:/Dropbox/AV_SmartWatch/toolchain_v3/src/libstm32f2\stm32f2xx_can.c ****     /* 16-bit scale for the filter */
 357:c:/Dropbox/AV_SmartWatch/toolchain_v3/src/libstm32f2\stm32f2xx_can.c ****     CAN1->FS1R &= ~(uint32_t)filter_number_bit_pos;
 279              		.loc 1 357 0
 280 0028 D3F80C62 		ldr	r6, [r3, #524]
 358:c:/Dropbox/AV_SmartWatch/toolchain_v3/src/libstm32f2\stm32f2xx_can.c **** 
 359:c:/Dropbox/AV_SmartWatch/toolchain_v3/src/libstm32f2\stm32f2xx_can.c ****     /* First 16-bit identifier and First 16-bit mask */
 360:c:/Dropbox/AV_SmartWatch/toolchain_v3/src/libstm32f2\stm32f2xx_can.c ****     /* Or First 16-bit identifier and Second 16-bit identifier */
 361:c:/Dropbox/AV_SmartWatch/toolchain_v3/src/libstm32f2\stm32f2xx_can.c ****     CAN1->sFilterRegister[CAN_FilterInitStruct->CAN_FilterNumber].FR1 = 
 362:c:/Dropbox/AV_SmartWatch/toolchain_v3/src/libstm32f2\stm32f2xx_can.c ****        ((0x0000FFFF & (uint32_t)CAN_FilterInitStruct->CAN_FilterMaskIdLow) << 16) |
 363:c:/Dropbox/AV_SmartWatch/toolchain_v3/src/libstm32f2\stm32f2xx_can.c ****         (0x0000FFFF & (uint32_t)CAN_FilterInitStruct->CAN_FilterIdLow);
 281              		.loc 1 363 0
 282 002c 4588     		ldrh	r5, [r0, #2]
 357:c:/Dropbox/AV_SmartWatch/toolchain_v3/src/libstm32f2\stm32f2xx_can.c ****     CAN1->FS1R &= ~(uint32_t)filter_number_bit_pos;
 283              		.loc 1 357 0
 284 002e 2640     		ands	r6, r6, r4
 285 0030 C3F80C62 		str	r6, [r3, #524]
 361:c:/Dropbox/AV_SmartWatch/toolchain_v3/src/libstm32f2\stm32f2xx_can.c ****     CAN1->sFilterRegister[CAN_FilterInitStruct->CAN_FilterNumber].FR1 = 
 286              		.loc 1 361 0
 287 0034 827A     		ldrb	r2, [r0, #10]	@ zero_extendqisi2
 362:c:/Dropbox/AV_SmartWatch/toolchain_v3/src/libstm32f2\stm32f2xx_can.c ****        ((0x0000FFFF & (uint32_t)CAN_FilterInitStruct->CAN_FilterMaskIdLow) << 16) |
 288              		.loc 1 362 0
 289 0036 C688     		ldrh	r6, [r0, #6]
 361:c:/Dropbox/AV_SmartWatch/toolchain_v3/src/libstm32f2\stm32f2xx_can.c ****     CAN1->sFilterRegister[CAN_FilterInitStruct->CAN_FilterNumber].FR1 = 
 290              		.loc 1 361 0
 291 0038 4832     		adds	r2, r2, #72
 362:c:/Dropbox/AV_SmartWatch/toolchain_v3/src/libstm32f2\stm32f2xx_can.c ****        ((0x0000FFFF & (uint32_t)CAN_FilterInitStruct->CAN_FilterMaskIdLow) << 16) |
 292              		.loc 1 362 0
 293 003a 45EA0645 		orr	r5, r5, r6, lsl #16
 361:c:/Dropbox/AV_SmartWatch/toolchain_v3/src/libstm32f2\stm32f2xx_can.c ****     CAN1->sFilterRegister[CAN_FilterInitStruct->CAN_FilterNumber].FR1 = 
 294              		.loc 1 361 0
 295 003e 43F83250 		str	r5, [r3, r2, lsl #3]
 364:c:/Dropbox/AV_SmartWatch/toolchain_v3/src/libstm32f2\stm32f2xx_can.c **** 
 365:c:/Dropbox/AV_SmartWatch/toolchain_v3/src/libstm32f2\stm32f2xx_can.c ****     /* Second 16-bit identifier and Second 16-bit mask */
 366:c:/Dropbox/AV_SmartWatch/toolchain_v3/src/libstm32f2\stm32f2xx_can.c ****     /* Or Third 16-bit identifier and Fourth 16-bit identifier */
 367:c:/Dropbox/AV_SmartWatch/toolchain_v3/src/libstm32f2\stm32f2xx_can.c ****     CAN1->sFilterRegister[CAN_FilterInitStruct->CAN_FilterNumber].FR2 = 
 368:c:/Dropbox/AV_SmartWatch/toolchain_v3/src/libstm32f2\stm32f2xx_can.c ****        ((0x0000FFFF & (uint32_t)CAN_FilterInitStruct->CAN_FilterMaskIdHigh) << 16) |
 369:c:/Dropbox/AV_SmartWatch/toolchain_v3/src/libstm32f2\stm32f2xx_can.c ****         (0x0000FFFF & (uint32_t)CAN_FilterInitStruct->CAN_FilterIdHigh);
 296              		.loc 1 369 0
 297 0042 0388     		ldrh	r3, [r0, #0]
 368:c:/Dropbox/AV_SmartWatch/toolchain_v3/src/libstm32f2\stm32f2xx_can.c ****        ((0x0000FFFF & (uint32_t)CAN_FilterInitStruct->CAN_FilterMaskIdHigh) << 16) |
 298              		.loc 1 368 0
 299 0044 8288     		ldrh	r2, [r0, #4]
 367:c:/Dropbox/AV_SmartWatch/toolchain_v3/src/libstm32f2\stm32f2xx_can.c ****     CAN1->sFilterRegister[CAN_FilterInitStruct->CAN_FilterNumber].FR2 = 
 300              		.loc 1 367 0
 301 0046 857A     		ldrb	r5, [r0, #10]	@ zero_extendqisi2
 368:c:/Dropbox/AV_SmartWatch/toolchain_v3/src/libstm32f2\stm32f2xx_can.c ****        ((0x0000FFFF & (uint32_t)CAN_FilterInitStruct->CAN_FilterMaskIdHigh) << 16) |
 302              		.loc 1 368 0
 303 0048 43EA0242 		orr	r2, r3, r2, lsl #16
 367:c:/Dropbox/AV_SmartWatch/toolchain_v3/src/libstm32f2\stm32f2xx_can.c ****     CAN1->sFilterRegister[CAN_FilterInitStruct->CAN_FilterNumber].FR2 = 
 304              		.loc 1 367 0
 305 004c 264B     		ldr	r3, .L46+4
 306 004e ED00     		lsls	r5, r5, #3
 307 0050 ED18     		adds	r5, r5, r3
 308 0052 6A60     		str	r2, [r5, #4]
 309              	.L38:
 370:c:/Dropbox/AV_SmartWatch/toolchain_v3/src/libstm32f2\stm32f2xx_can.c ****   }
 371:c:/Dropbox/AV_SmartWatch/toolchain_v3/src/libstm32f2\stm32f2xx_can.c **** 
 372:c:/Dropbox/AV_SmartWatch/toolchain_v3/src/libstm32f2\stm32f2xx_can.c ****   if (CAN_FilterInitStruct->CAN_FilterScale == CAN_FilterScale_32bit)
 310              		.loc 1 372 0
 311 0054 027B     		ldrb	r2, [r0, #12]	@ zero_extendqisi2
 312 0056 012A     		cmp	r2, #1
 313 0058 17D1     		bne	.L39
 373:c:/Dropbox/AV_SmartWatch/toolchain_v3/src/libstm32f2\stm32f2xx_can.c ****   {
 374:c:/Dropbox/AV_SmartWatch/toolchain_v3/src/libstm32f2\stm32f2xx_can.c ****     /* 32-bit scale for the filter */
 375:c:/Dropbox/AV_SmartWatch/toolchain_v3/src/libstm32f2\stm32f2xx_can.c ****     CAN1->FS1R |= filter_number_bit_pos;
 314              		.loc 1 375 0
 315 005a 224B     		ldr	r3, .L46
 316 005c D3F80C62 		ldr	r6, [r3, #524]
 317 0060 41EA0605 		orr	r5, r1, r6
 318 0064 C3F80C52 		str	r5, [r3, #524]
 376:c:/Dropbox/AV_SmartWatch/toolchain_v3/src/libstm32f2\stm32f2xx_can.c ****     /* 32-bit identifier or First 32-bit identifier */
 377:c:/Dropbox/AV_SmartWatch/toolchain_v3/src/libstm32f2\stm32f2xx_can.c ****     CAN1->sFilterRegister[CAN_FilterInitStruct->CAN_FilterNumber].FR1 = 
 319              		.loc 1 377 0
 320 0068 827A     		ldrb	r2, [r0, #10]	@ zero_extendqisi2
 378:c:/Dropbox/AV_SmartWatch/toolchain_v3/src/libstm32f2\stm32f2xx_can.c ****        ((0x0000FFFF & (uint32_t)CAN_FilterInitStruct->CAN_FilterIdHigh) << 16) |
 321              		.loc 1 378 0
 322 006a 0688     		ldrh	r6, [r0, #0]
 379:c:/Dropbox/AV_SmartWatch/toolchain_v3/src/libstm32f2\stm32f2xx_can.c ****         (0x0000FFFF & (uint32_t)CAN_FilterInitStruct->CAN_FilterIdLow);
 323              		.loc 1 379 0
 324 006c 4588     		ldrh	r5, [r0, #2]
 377:c:/Dropbox/AV_SmartWatch/toolchain_v3/src/libstm32f2\stm32f2xx_can.c ****     CAN1->sFilterRegister[CAN_FilterInitStruct->CAN_FilterNumber].FR1 = 
 325              		.loc 1 377 0
 326 006e 4832     		adds	r2, r2, #72
 378:c:/Dropbox/AV_SmartWatch/toolchain_v3/src/libstm32f2\stm32f2xx_can.c ****        ((0x0000FFFF & (uint32_t)CAN_FilterInitStruct->CAN_FilterIdHigh) << 16) |
 327              		.loc 1 378 0
 328 0070 45EA0645 		orr	r5, r5, r6, lsl #16
 377:c:/Dropbox/AV_SmartWatch/toolchain_v3/src/libstm32f2\stm32f2xx_can.c ****     CAN1->sFilterRegister[CAN_FilterInitStruct->CAN_FilterNumber].FR1 = 
 329              		.loc 1 377 0
 330 0074 43F83250 		str	r5, [r3, r2, lsl #3]
 380:c:/Dropbox/AV_SmartWatch/toolchain_v3/src/libstm32f2\stm32f2xx_can.c ****     /* 32-bit mask or Second 32-bit identifier */
 381:c:/Dropbox/AV_SmartWatch/toolchain_v3/src/libstm32f2\stm32f2xx_can.c ****     CAN1->sFilterRegister[CAN_FilterInitStruct->CAN_FilterNumber].FR2 = 
 382:c:/Dropbox/AV_SmartWatch/toolchain_v3/src/libstm32f2\stm32f2xx_can.c ****        ((0x0000FFFF & (uint32_t)CAN_FilterInitStruct->CAN_FilterMaskIdHigh) << 16) |
 383:c:/Dropbox/AV_SmartWatch/toolchain_v3/src/libstm32f2\stm32f2xx_can.c ****         (0x0000FFFF & (uint32_t)CAN_FilterInitStruct->CAN_FilterMaskIdLow);
 331              		.loc 1 383 0
 332 0078 C388     		ldrh	r3, [r0, #6]
 382:c:/Dropbox/AV_SmartWatch/toolchain_v3/src/libstm32f2\stm32f2xx_can.c ****        ((0x0000FFFF & (uint32_t)CAN_FilterInitStruct->CAN_FilterMaskIdHigh) << 16) |
 333              		.loc 1 382 0
 334 007a 8288     		ldrh	r2, [r0, #4]
 381:c:/Dropbox/AV_SmartWatch/toolchain_v3/src/libstm32f2\stm32f2xx_can.c ****     CAN1->sFilterRegister[CAN_FilterInitStruct->CAN_FilterNumber].FR2 = 
 335              		.loc 1 381 0
 336 007c 857A     		ldrb	r5, [r0, #10]	@ zero_extendqisi2
 382:c:/Dropbox/AV_SmartWatch/toolchain_v3/src/libstm32f2\stm32f2xx_can.c ****        ((0x0000FFFF & (uint32_t)CAN_FilterInitStruct->CAN_FilterMaskIdHigh) << 16) |
 337              		.loc 1 382 0
 338 007e 43EA0242 		orr	r2, r3, r2, lsl #16
 381:c:/Dropbox/AV_SmartWatch/toolchain_v3/src/libstm32f2\stm32f2xx_can.c ****     CAN1->sFilterRegister[CAN_FilterInitStruct->CAN_FilterNumber].FR2 = 
 339              		.loc 1 381 0
 340 0082 194B     		ldr	r3, .L46+4
 341 0084 ED00     		lsls	r5, r5, #3
 342 0086 ED18     		adds	r5, r5, r3
 343 0088 6A60     		str	r2, [r5, #4]
 344              	.L39:
 384:c:/Dropbox/AV_SmartWatch/toolchain_v3/src/libstm32f2\stm32f2xx_can.c ****   }
 385:c:/Dropbox/AV_SmartWatch/toolchain_v3/src/libstm32f2\stm32f2xx_can.c **** 
 386:c:/Dropbox/AV_SmartWatch/toolchain_v3/src/libstm32f2\stm32f2xx_can.c ****   /* Filter Mode */
 387:c:/Dropbox/AV_SmartWatch/toolchain_v3/src/libstm32f2\stm32f2xx_can.c ****   if (CAN_FilterInitStruct->CAN_FilterMode == CAN_FilterMode_IdMask)
 345              		.loc 1 387 0
 346 008a C37A     		ldrb	r3, [r0, #11]	@ zero_extendqisi2
 347 008c 154A     		ldr	r2, .L46
 348 008e 1BB9     		cbnz	r3, .L40
 388:c:/Dropbox/AV_SmartWatch/toolchain_v3/src/libstm32f2\stm32f2xx_can.c ****   {
 389:c:/Dropbox/AV_SmartWatch/toolchain_v3/src/libstm32f2\stm32f2xx_can.c ****     /*Id/Mask mode for the filter*/
 390:c:/Dropbox/AV_SmartWatch/toolchain_v3/src/libstm32f2\stm32f2xx_can.c ****     CAN1->FM1R &= ~(uint32_t)filter_number_bit_pos;
 349              		.loc 1 390 0
 350 0090 D2F80432 		ldr	r3, [r2, #516]
 351 0094 2340     		ands	r3, r3, r4
 352 0096 03E0     		b	.L45
 353              	.L40:
 391:c:/Dropbox/AV_SmartWatch/toolchain_v3/src/libstm32f2\stm32f2xx_can.c ****   }
 392:c:/Dropbox/AV_SmartWatch/toolchain_v3/src/libstm32f2\stm32f2xx_can.c ****   else /* CAN_FilterInitStruct->CAN_FilterMode == CAN_FilterMode_IdList */
 393:c:/Dropbox/AV_SmartWatch/toolchain_v3/src/libstm32f2\stm32f2xx_can.c ****   {
 394:c:/Dropbox/AV_SmartWatch/toolchain_v3/src/libstm32f2\stm32f2xx_can.c ****     /*Identifier list mode for the filter*/
 395:c:/Dropbox/AV_SmartWatch/toolchain_v3/src/libstm32f2\stm32f2xx_can.c ****     CAN1->FM1R |= (uint32_t)filter_number_bit_pos;
 354              		.loc 1 395 0
 355 0098 D2F80452 		ldr	r5, [r2, #516]
 356 009c 41EA0503 		orr	r3, r1, r5
 357              	.L45:
 396:c:/Dropbox/AV_SmartWatch/toolchain_v3/src/libstm32f2\stm32f2xx_can.c ****   }
 397:c:/Dropbox/AV_SmartWatch/toolchain_v3/src/libstm32f2\stm32f2xx_can.c **** 
 398:c:/Dropbox/AV_SmartWatch/toolchain_v3/src/libstm32f2\stm32f2xx_can.c ****   /* Filter FIFO assignment */
 399:c:/Dropbox/AV_SmartWatch/toolchain_v3/src/libstm32f2\stm32f2xx_can.c ****   if (CAN_FilterInitStruct->CAN_FilterFIFOAssignment == CAN_Filter_FIFO0)
 358              		.loc 1 399 0
 359 00a0 0589     		ldrh	r5, [r0, #8]
 395:c:/Dropbox/AV_SmartWatch/toolchain_v3/src/libstm32f2\stm32f2xx_can.c ****     CAN1->FM1R |= (uint32_t)filter_number_bit_pos;
 360              		.loc 1 395 0
 361 00a2 C2F80432 		str	r3, [r2, #516]
 362 00a6 0F4B     		ldr	r3, .L46
 363              		.loc 1 399 0
 364 00a8 2DB9     		cbnz	r5, .L42
 400:c:/Dropbox/AV_SmartWatch/toolchain_v3/src/libstm32f2\stm32f2xx_can.c ****   {
 401:c:/Dropbox/AV_SmartWatch/toolchain_v3/src/libstm32f2\stm32f2xx_can.c ****     /* FIFO 0 assignation for the filter */
 402:c:/Dropbox/AV_SmartWatch/toolchain_v3/src/libstm32f2\stm32f2xx_can.c ****     CAN1->FFA1R &= ~(uint32_t)filter_number_bit_pos;
 365              		.loc 1 402 0
 366 00aa D2F81452 		ldr	r5, [r2, #532]
 367 00ae 2C40     		ands	r4, r4, r5
 368 00b0 C2F81442 		str	r4, [r2, #532]
 369 00b4 06E0     		b	.L43
 370              	.L42:
 403:c:/Dropbox/AV_SmartWatch/toolchain_v3/src/libstm32f2\stm32f2xx_can.c ****   }
 404:c:/Dropbox/AV_SmartWatch/toolchain_v3/src/libstm32f2\stm32f2xx_can.c **** 
 405:c:/Dropbox/AV_SmartWatch/toolchain_v3/src/libstm32f2\stm32f2xx_can.c ****   if (CAN_FilterInitStruct->CAN_FilterFIFOAssignment == CAN_Filter_FIFO1)
 371              		.loc 1 405 0
 372 00b6 012D     		cmp	r5, #1
 373 00b8 04D1     		bne	.L43
 406:c:/Dropbox/AV_SmartWatch/toolchain_v3/src/libstm32f2\stm32f2xx_can.c ****   {
 407:c:/Dropbox/AV_SmartWatch/toolchain_v3/src/libstm32f2\stm32f2xx_can.c ****     /* FIFO 1 assignation for the filter */
 408:c:/Dropbox/AV_SmartWatch/toolchain_v3/src/libstm32f2\stm32f2xx_can.c ****     CAN1->FFA1R |= (uint32_t)filter_number_bit_pos;
 374              		.loc 1 408 0
 375 00ba D3F81422 		ldr	r2, [r3, #532]
 376 00be 0A43     		orrs	r2, r2, r1
 377 00c0 C3F81422 		str	r2, [r3, #532]
 378              	.L43:
 409:c:/Dropbox/AV_SmartWatch/toolchain_v3/src/libstm32f2\stm32f2xx_can.c ****   }
 410:c:/Dropbox/AV_SmartWatch/toolchain_v3/src/libstm32f2\stm32f2xx_can.c ****   
 411:c:/Dropbox/AV_SmartWatch/toolchain_v3/src/libstm32f2\stm32f2xx_can.c ****   /* Filter activation */
 412:c:/Dropbox/AV_SmartWatch/toolchain_v3/src/libstm32f2\stm32f2xx_can.c ****   if (CAN_FilterInitStruct->CAN_FilterActivation == ENABLE)
 379              		.loc 1 412 0
 380 00c4 407B     		ldrb	r0, [r0, #13]	@ zero_extendqisi2
 381              	.LVL17:
 382 00c6 0128     		cmp	r0, #1
 383 00c8 04D1     		bne	.L44
 413:c:/Dropbox/AV_SmartWatch/toolchain_v3/src/libstm32f2\stm32f2xx_can.c ****   {
 414:c:/Dropbox/AV_SmartWatch/toolchain_v3/src/libstm32f2\stm32f2xx_can.c ****     CAN1->FA1R |= filter_number_bit_pos;
 384              		.loc 1 414 0
 385 00ca D3F81C22 		ldr	r2, [r3, #540]
 386 00ce 1143     		orrs	r1, r1, r2
 387              	.LVL18:
 388 00d0 C3F81C12 		str	r1, [r3, #540]
 389              	.L44:
 415:c:/Dropbox/AV_SmartWatch/toolchain_v3/src/libstm32f2\stm32f2xx_can.c ****   }
 416:c:/Dropbox/AV_SmartWatch/toolchain_v3/src/libstm32f2\stm32f2xx_can.c **** 
 417:c:/Dropbox/AV_SmartWatch/toolchain_v3/src/libstm32f2\stm32f2xx_can.c ****   /* Leave the initialisation mode for the filter */
 418:c:/Dropbox/AV_SmartWatch/toolchain_v3/src/libstm32f2\stm32f2xx_can.c ****   CAN1->FMR &= ~FMR_FINIT;
 390              		.loc 1 418 0
 391 00d4 D3F80012 		ldr	r1, [r3, #512]
 392 00d8 21F00100 		bic	r0, r1, #1
 393 00dc C3F80002 		str	r0, [r3, #512]
 394 00e0 70BD     		pop	{r4, r5, r6, pc}
 395              	.L47:
 396 00e2 00BF     		.align	2
 397              	.L46:
 398 00e4 00640040 		.word	1073767424
 399 00e8 40660040 		.word	1073768000
 400              		.cfi_endproc
 401              	.LFE58:
 403              		.section	.text.CAN_StructInit,"ax",%progbits
 404              		.align	1
 405              		.global	CAN_StructInit
 406              		.thumb
 407              		.thumb_func
 409              	CAN_StructInit:
 410              	.LFB59:
 419:c:/Dropbox/AV_SmartWatch/toolchain_v3/src/libstm32f2\stm32f2xx_can.c **** }
 420:c:/Dropbox/AV_SmartWatch/toolchain_v3/src/libstm32f2\stm32f2xx_can.c **** 
 421:c:/Dropbox/AV_SmartWatch/toolchain_v3/src/libstm32f2\stm32f2xx_can.c **** /**
 422:c:/Dropbox/AV_SmartWatch/toolchain_v3/src/libstm32f2\stm32f2xx_can.c ****   * @brief  Fills each CAN_InitStruct member with its default value.
 423:c:/Dropbox/AV_SmartWatch/toolchain_v3/src/libstm32f2\stm32f2xx_can.c ****   * @param  CAN_InitStruct: pointer to a CAN_InitTypeDef structure which ill be initialized.
 424:c:/Dropbox/AV_SmartWatch/toolchain_v3/src/libstm32f2\stm32f2xx_can.c ****   * @retval None
 425:c:/Dropbox/AV_SmartWatch/toolchain_v3/src/libstm32f2\stm32f2xx_can.c ****   */
 426:c:/Dropbox/AV_SmartWatch/toolchain_v3/src/libstm32f2\stm32f2xx_can.c **** void CAN_StructInit(CAN_InitTypeDef* CAN_InitStruct)
 427:c:/Dropbox/AV_SmartWatch/toolchain_v3/src/libstm32f2\stm32f2xx_can.c **** {
 411              		.loc 1 427 0
 412              		.cfi_startproc
 413              		@ args = 0, pretend = 0, frame = 0
 414              		@ frame_needed = 0, uses_anonymous_args = 0
 415              		@ link register save eliminated.
 416              	.LVL19:
 428:c:/Dropbox/AV_SmartWatch/toolchain_v3/src/libstm32f2\stm32f2xx_can.c ****   /* Reset CAN init structure parameters values */
 429:c:/Dropbox/AV_SmartWatch/toolchain_v3/src/libstm32f2\stm32f2xx_can.c ****   
 430:c:/Dropbox/AV_SmartWatch/toolchain_v3/src/libstm32f2\stm32f2xx_can.c ****   /* Initialize the time triggered communication mode */
 431:c:/Dropbox/AV_SmartWatch/toolchain_v3/src/libstm32f2\stm32f2xx_can.c ****   CAN_InitStruct->CAN_TTCM = DISABLE;
 417              		.loc 1 431 0
 418 0000 0023     		movs	r3, #0
 419 0002 8371     		strb	r3, [r0, #6]
 432:c:/Dropbox/AV_SmartWatch/toolchain_v3/src/libstm32f2\stm32f2xx_can.c ****   
 433:c:/Dropbox/AV_SmartWatch/toolchain_v3/src/libstm32f2\stm32f2xx_can.c ****   /* Initialize the automatic bus-off management */
 434:c:/Dropbox/AV_SmartWatch/toolchain_v3/src/libstm32f2\stm32f2xx_can.c ****   CAN_InitStruct->CAN_ABOM = DISABLE;
 420              		.loc 1 434 0
 421 0004 C371     		strb	r3, [r0, #7]
 435:c:/Dropbox/AV_SmartWatch/toolchain_v3/src/libstm32f2\stm32f2xx_can.c ****   
 436:c:/Dropbox/AV_SmartWatch/toolchain_v3/src/libstm32f2\stm32f2xx_can.c ****   /* Initialize the automatic wake-up mode */
 437:c:/Dropbox/AV_SmartWatch/toolchain_v3/src/libstm32f2\stm32f2xx_can.c ****   CAN_InitStruct->CAN_AWUM = DISABLE;
 422              		.loc 1 437 0
 423 0006 0372     		strb	r3, [r0, #8]
 438:c:/Dropbox/AV_SmartWatch/toolchain_v3/src/libstm32f2\stm32f2xx_can.c ****   
 439:c:/Dropbox/AV_SmartWatch/toolchain_v3/src/libstm32f2\stm32f2xx_can.c ****   /* Initialize the no automatic retransmission */
 440:c:/Dropbox/AV_SmartWatch/toolchain_v3/src/libstm32f2\stm32f2xx_can.c ****   CAN_InitStruct->CAN_NART = DISABLE;
 424              		.loc 1 440 0
 425 0008 4372     		strb	r3, [r0, #9]
 441:c:/Dropbox/AV_SmartWatch/toolchain_v3/src/libstm32f2\stm32f2xx_can.c ****   
 442:c:/Dropbox/AV_SmartWatch/toolchain_v3/src/libstm32f2\stm32f2xx_can.c ****   /* Initialize the receive FIFO locked mode */
 443:c:/Dropbox/AV_SmartWatch/toolchain_v3/src/libstm32f2\stm32f2xx_can.c ****   CAN_InitStruct->CAN_RFLM = DISABLE;
 426              		.loc 1 443 0
 427 000a 8372     		strb	r3, [r0, #10]
 444:c:/Dropbox/AV_SmartWatch/toolchain_v3/src/libstm32f2\stm32f2xx_can.c ****   
 445:c:/Dropbox/AV_SmartWatch/toolchain_v3/src/libstm32f2\stm32f2xx_can.c ****   /* Initialize the transmit FIFO priority */
 446:c:/Dropbox/AV_SmartWatch/toolchain_v3/src/libstm32f2\stm32f2xx_can.c ****   CAN_InitStruct->CAN_TXFP = DISABLE;
 428              		.loc 1 446 0
 429 000c C372     		strb	r3, [r0, #11]
 447:c:/Dropbox/AV_SmartWatch/toolchain_v3/src/libstm32f2\stm32f2xx_can.c ****   
 448:c:/Dropbox/AV_SmartWatch/toolchain_v3/src/libstm32f2\stm32f2xx_can.c ****   /* Initialize the CAN_Mode member */
 449:c:/Dropbox/AV_SmartWatch/toolchain_v3/src/libstm32f2\stm32f2xx_can.c ****   CAN_InitStruct->CAN_Mode = CAN_Mode_Normal;
 430              		.loc 1 449 0
 431 000e 8370     		strb	r3, [r0, #2]
 450:c:/Dropbox/AV_SmartWatch/toolchain_v3/src/libstm32f2\stm32f2xx_can.c ****   
 451:c:/Dropbox/AV_SmartWatch/toolchain_v3/src/libstm32f2\stm32f2xx_can.c ****   /* Initialize the CAN_SJW member */
 452:c:/Dropbox/AV_SmartWatch/toolchain_v3/src/libstm32f2\stm32f2xx_can.c ****   CAN_InitStruct->CAN_SJW = CAN_SJW_1tq;
 432              		.loc 1 452 0
 433 0010 C370     		strb	r3, [r0, #3]
 453:c:/Dropbox/AV_SmartWatch/toolchain_v3/src/libstm32f2\stm32f2xx_can.c ****   
 454:c:/Dropbox/AV_SmartWatch/toolchain_v3/src/libstm32f2\stm32f2xx_can.c ****   /* Initialize the CAN_BS1 member */
 455:c:/Dropbox/AV_SmartWatch/toolchain_v3/src/libstm32f2\stm32f2xx_can.c ****   CAN_InitStruct->CAN_BS1 = CAN_BS1_4tq;
 434              		.loc 1 455 0
 435 0012 0321     		movs	r1, #3
 456:c:/Dropbox/AV_SmartWatch/toolchain_v3/src/libstm32f2\stm32f2xx_can.c ****   
 457:c:/Dropbox/AV_SmartWatch/toolchain_v3/src/libstm32f2\stm32f2xx_can.c ****   /* Initialize the CAN_BS2 member */
 458:c:/Dropbox/AV_SmartWatch/toolchain_v3/src/libstm32f2\stm32f2xx_can.c ****   CAN_InitStruct->CAN_BS2 = CAN_BS2_3tq;
 436              		.loc 1 458 0
 437 0014 0222     		movs	r2, #2
 459:c:/Dropbox/AV_SmartWatch/toolchain_v3/src/libstm32f2\stm32f2xx_can.c ****   
 460:c:/Dropbox/AV_SmartWatch/toolchain_v3/src/libstm32f2\stm32f2xx_can.c ****   /* Initialize the CAN_Prescaler member */
 461:c:/Dropbox/AV_SmartWatch/toolchain_v3/src/libstm32f2\stm32f2xx_can.c ****   CAN_InitStruct->CAN_Prescaler = 1;
 438              		.loc 1 461 0
 439 0016 0123     		movs	r3, #1
 455:c:/Dropbox/AV_SmartWatch/toolchain_v3/src/libstm32f2\stm32f2xx_can.c ****   CAN_InitStruct->CAN_BS1 = CAN_BS1_4tq;
 440              		.loc 1 455 0
 441 0018 0171     		strb	r1, [r0, #4]
 458:c:/Dropbox/AV_SmartWatch/toolchain_v3/src/libstm32f2\stm32f2xx_can.c ****   CAN_InitStruct->CAN_BS2 = CAN_BS2_3tq;
 442              		.loc 1 458 0
 443 001a 4271     		strb	r2, [r0, #5]
 444              		.loc 1 461 0
 445 001c 0380     		strh	r3, [r0, #0]	@ movhi
 446 001e 7047     		bx	lr
 447              		.cfi_endproc
 448              	.LFE59:
 450              		.section	.text.CAN_SlaveStartBank,"ax",%progbits
 451              		.align	1
 452              		.global	CAN_SlaveStartBank
 453              		.thumb
 454              		.thumb_func
 456              	CAN_SlaveStartBank:
 457              	.LFB60:
 462:c:/Dropbox/AV_SmartWatch/toolchain_v3/src/libstm32f2\stm32f2xx_can.c **** }
 463:c:/Dropbox/AV_SmartWatch/toolchain_v3/src/libstm32f2\stm32f2xx_can.c **** 
 464:c:/Dropbox/AV_SmartWatch/toolchain_v3/src/libstm32f2\stm32f2xx_can.c **** /**
 465:c:/Dropbox/AV_SmartWatch/toolchain_v3/src/libstm32f2\stm32f2xx_can.c ****   * @brief  Select the start bank filter for slave CAN.
 466:c:/Dropbox/AV_SmartWatch/toolchain_v3/src/libstm32f2\stm32f2xx_can.c ****   * @param  CAN_BankNumber: Select the start slave bank filter from 1..27.
 467:c:/Dropbox/AV_SmartWatch/toolchain_v3/src/libstm32f2\stm32f2xx_can.c ****   * @retval None
 468:c:/Dropbox/AV_SmartWatch/toolchain_v3/src/libstm32f2\stm32f2xx_can.c ****   */
 469:c:/Dropbox/AV_SmartWatch/toolchain_v3/src/libstm32f2\stm32f2xx_can.c **** void CAN_SlaveStartBank(uint8_t CAN_BankNumber) 
 470:c:/Dropbox/AV_SmartWatch/toolchain_v3/src/libstm32f2\stm32f2xx_can.c **** {
 458              		.loc 1 470 0
 459              		.cfi_startproc
 460              		@ args = 0, pretend = 0, frame = 0
 461              		@ frame_needed = 0, uses_anonymous_args = 0
 462              		@ link register save eliminated.
 463              	.LVL20:
 471:c:/Dropbox/AV_SmartWatch/toolchain_v3/src/libstm32f2\stm32f2xx_can.c ****   /* Check the parameters */
 472:c:/Dropbox/AV_SmartWatch/toolchain_v3/src/libstm32f2\stm32f2xx_can.c ****   assert_param(IS_CAN_BANKNUMBER(CAN_BankNumber));
 473:c:/Dropbox/AV_SmartWatch/toolchain_v3/src/libstm32f2\stm32f2xx_can.c ****   
 474:c:/Dropbox/AV_SmartWatch/toolchain_v3/src/libstm32f2\stm32f2xx_can.c ****   /* Enter Initialisation mode for the filter */
 475:c:/Dropbox/AV_SmartWatch/toolchain_v3/src/libstm32f2\stm32f2xx_can.c ****   CAN1->FMR |= FMR_FINIT;
 464              		.loc 1 475 0
 465 0000 0D4B     		ldr	r3, .L50
 466 0002 D3F80022 		ldr	r2, [r3, #512]
 467 0006 42F00101 		orr	r1, r2, #1
 468 000a C3F80012 		str	r1, [r3, #512]
 476:c:/Dropbox/AV_SmartWatch/toolchain_v3/src/libstm32f2\stm32f2xx_can.c ****   
 477:c:/Dropbox/AV_SmartWatch/toolchain_v3/src/libstm32f2\stm32f2xx_can.c ****   /* Select the start slave bank */
 478:c:/Dropbox/AV_SmartWatch/toolchain_v3/src/libstm32f2\stm32f2xx_can.c ****   CAN1->FMR &= (uint32_t)0xFFFFC0F1 ;
 469              		.loc 1 478 0
 470 000e D3F80022 		ldr	r2, [r3, #512]
 471 0012 22F47C51 		bic	r1, r2, #16128
 472 0016 21F00E02 		bic	r2, r1, #14
 473 001a C3F80022 		str	r2, [r3, #512]
 479:c:/Dropbox/AV_SmartWatch/toolchain_v3/src/libstm32f2\stm32f2xx_can.c ****   CAN1->FMR |= (uint32_t)(CAN_BankNumber)<<8;
 474              		.loc 1 479 0
 475 001e D3F80012 		ldr	r1, [r3, #512]
 476 0022 41EA0020 		orr	r0, r1, r0, lsl #8
 477              	.LVL21:
 478 0026 C3F80002 		str	r0, [r3, #512]
 480:c:/Dropbox/AV_SmartWatch/toolchain_v3/src/libstm32f2\stm32f2xx_can.c ****   
 481:c:/Dropbox/AV_SmartWatch/toolchain_v3/src/libstm32f2\stm32f2xx_can.c ****   /* Leave Initialisation mode for the filter */
 482:c:/Dropbox/AV_SmartWatch/toolchain_v3/src/libstm32f2\stm32f2xx_can.c ****   CAN1->FMR &= ~FMR_FINIT;
 479              		.loc 1 482 0
 480 002a D3F80022 		ldr	r2, [r3, #512]
 481 002e 22F00101 		bic	r1, r2, #1
 482 0032 C3F80012 		str	r1, [r3, #512]
 483 0036 7047     		bx	lr
 484              	.L51:
 485              		.align	2
 486              	.L50:
 487 0038 00640040 		.word	1073767424
 488              		.cfi_endproc
 489              	.LFE60:
 491              		.section	.text.CAN_DBGFreeze,"ax",%progbits
 492              		.align	1
 493              		.global	CAN_DBGFreeze
 494              		.thumb
 495              		.thumb_func
 497              	CAN_DBGFreeze:
 498              	.LFB61:
 483:c:/Dropbox/AV_SmartWatch/toolchain_v3/src/libstm32f2\stm32f2xx_can.c **** }
 484:c:/Dropbox/AV_SmartWatch/toolchain_v3/src/libstm32f2\stm32f2xx_can.c **** 
 485:c:/Dropbox/AV_SmartWatch/toolchain_v3/src/libstm32f2\stm32f2xx_can.c **** /**
 486:c:/Dropbox/AV_SmartWatch/toolchain_v3/src/libstm32f2\stm32f2xx_can.c ****   * @brief  Enables or disables the DBG Freeze for CAN.
 487:c:/Dropbox/AV_SmartWatch/toolchain_v3/src/libstm32f2\stm32f2xx_can.c ****   * @param  CANx: where x can be 1 or 2 to to select the CAN peripheral.
 488:c:/Dropbox/AV_SmartWatch/toolchain_v3/src/libstm32f2\stm32f2xx_can.c ****   * @param  NewState: new state of the CAN peripheral. 
 489:c:/Dropbox/AV_SmartWatch/toolchain_v3/src/libstm32f2\stm32f2xx_can.c ****   *          This parameter can be: ENABLE (CAN reception/transmission is frozen
 490:c:/Dropbox/AV_SmartWatch/toolchain_v3/src/libstm32f2\stm32f2xx_can.c ****   *          during debug. Reception FIFOs can still be accessed/controlled normally) 
 491:c:/Dropbox/AV_SmartWatch/toolchain_v3/src/libstm32f2\stm32f2xx_can.c ****   *          or DISABLE (CAN is working during debug).
 492:c:/Dropbox/AV_SmartWatch/toolchain_v3/src/libstm32f2\stm32f2xx_can.c ****   * @retval None
 493:c:/Dropbox/AV_SmartWatch/toolchain_v3/src/libstm32f2\stm32f2xx_can.c ****   */
 494:c:/Dropbox/AV_SmartWatch/toolchain_v3/src/libstm32f2\stm32f2xx_can.c **** void CAN_DBGFreeze(CAN_TypeDef* CANx, FunctionalState NewState)
 495:c:/Dropbox/AV_SmartWatch/toolchain_v3/src/libstm32f2\stm32f2xx_can.c **** {
 499              		.loc 1 495 0
 500              		.cfi_startproc
 501              		@ args = 0, pretend = 0, frame = 0
 502              		@ frame_needed = 0, uses_anonymous_args = 0
 503              		@ link register save eliminated.
 504              	.LVL22:
 496:c:/Dropbox/AV_SmartWatch/toolchain_v3/src/libstm32f2\stm32f2xx_can.c ****   /* Check the parameters */
 497:c:/Dropbox/AV_SmartWatch/toolchain_v3/src/libstm32f2\stm32f2xx_can.c ****   assert_param(IS_CAN_ALL_PERIPH(CANx));
 498:c:/Dropbox/AV_SmartWatch/toolchain_v3/src/libstm32f2\stm32f2xx_can.c ****   assert_param(IS_FUNCTIONAL_STATE(NewState));
 499:c:/Dropbox/AV_SmartWatch/toolchain_v3/src/libstm32f2\stm32f2xx_can.c ****   
 500:c:/Dropbox/AV_SmartWatch/toolchain_v3/src/libstm32f2\stm32f2xx_can.c ****   if (NewState != DISABLE)
 501:c:/Dropbox/AV_SmartWatch/toolchain_v3/src/libstm32f2\stm32f2xx_can.c ****   {
 502:c:/Dropbox/AV_SmartWatch/toolchain_v3/src/libstm32f2\stm32f2xx_can.c ****     /* Enable Debug Freeze  */
 503:c:/Dropbox/AV_SmartWatch/toolchain_v3/src/libstm32f2\stm32f2xx_can.c ****     CANx->MCR |= MCR_DBF;
 505              		.loc 1 503 0
 506 0000 0368     		ldr	r3, [r0, #0]
 500:c:/Dropbox/AV_SmartWatch/toolchain_v3/src/libstm32f2\stm32f2xx_can.c ****   if (NewState != DISABLE)
 507              		.loc 1 500 0
 508 0002 11B1     		cbz	r1, .L53
 509              		.loc 1 503 0
 510 0004 43F48031 		orr	r1, r3, #65536
 511              	.LVL23:
 512 0008 01E0     		b	.L55
 513              	.LVL24:
 514              	.L53:
 504:c:/Dropbox/AV_SmartWatch/toolchain_v3/src/libstm32f2\stm32f2xx_can.c ****   }
 505:c:/Dropbox/AV_SmartWatch/toolchain_v3/src/libstm32f2\stm32f2xx_can.c ****   else
 506:c:/Dropbox/AV_SmartWatch/toolchain_v3/src/libstm32f2\stm32f2xx_can.c ****   {
 507:c:/Dropbox/AV_SmartWatch/toolchain_v3/src/libstm32f2\stm32f2xx_can.c ****     /* Disable Debug Freeze */
 508:c:/Dropbox/AV_SmartWatch/toolchain_v3/src/libstm32f2\stm32f2xx_can.c ****     CANx->MCR &= ~MCR_DBF;
 515              		.loc 1 508 0
 516 000a 23F48031 		bic	r1, r3, #65536
 517              	.LVL25:
 518              	.L55:
 519 000e 0160     		str	r1, [r0, #0]
 520 0010 7047     		bx	lr
 521              		.cfi_endproc
 522              	.LFE61:
 524              		.section	.text.CAN_TTComModeCmd,"ax",%progbits
 525              		.align	1
 526              		.global	CAN_TTComModeCmd
 527              		.thumb
 528              		.thumb_func
 530              	CAN_TTComModeCmd:
 531              	.LFB62:
 509:c:/Dropbox/AV_SmartWatch/toolchain_v3/src/libstm32f2\stm32f2xx_can.c ****   }
 510:c:/Dropbox/AV_SmartWatch/toolchain_v3/src/libstm32f2\stm32f2xx_can.c **** }
 511:c:/Dropbox/AV_SmartWatch/toolchain_v3/src/libstm32f2\stm32f2xx_can.c **** 
 512:c:/Dropbox/AV_SmartWatch/toolchain_v3/src/libstm32f2\stm32f2xx_can.c **** 
 513:c:/Dropbox/AV_SmartWatch/toolchain_v3/src/libstm32f2\stm32f2xx_can.c **** /**
 514:c:/Dropbox/AV_SmartWatch/toolchain_v3/src/libstm32f2\stm32f2xx_can.c ****   * @brief  Enables or disables the CAN Time TriggerOperation communication mode.
 515:c:/Dropbox/AV_SmartWatch/toolchain_v3/src/libstm32f2\stm32f2xx_can.c ****   * @note   DLC must be programmed as 8 in order Time Stamp (2 bytes) to be 
 516:c:/Dropbox/AV_SmartWatch/toolchain_v3/src/libstm32f2\stm32f2xx_can.c ****   *         sent over the CAN bus.  
 517:c:/Dropbox/AV_SmartWatch/toolchain_v3/src/libstm32f2\stm32f2xx_can.c ****   * @param  CANx: where x can be 1 or 2 to to select the CAN peripheral.
 518:c:/Dropbox/AV_SmartWatch/toolchain_v3/src/libstm32f2\stm32f2xx_can.c ****   * @param  NewState: Mode new state. This parameter can be: ENABLE or DISABLE.
 519:c:/Dropbox/AV_SmartWatch/toolchain_v3/src/libstm32f2\stm32f2xx_can.c ****   *         When enabled, Time stamp (TIME[15:0]) value is  sent in the last two
 520:c:/Dropbox/AV_SmartWatch/toolchain_v3/src/libstm32f2\stm32f2xx_can.c ****   *         data bytes of the 8-byte message: TIME[7:0] in data byte 6 and TIME[15:8] 
 521:c:/Dropbox/AV_SmartWatch/toolchain_v3/src/libstm32f2\stm32f2xx_can.c ****   *         in data byte 7. 
 522:c:/Dropbox/AV_SmartWatch/toolchain_v3/src/libstm32f2\stm32f2xx_can.c ****   * @retval None
 523:c:/Dropbox/AV_SmartWatch/toolchain_v3/src/libstm32f2\stm32f2xx_can.c ****   */
 524:c:/Dropbox/AV_SmartWatch/toolchain_v3/src/libstm32f2\stm32f2xx_can.c **** void CAN_TTComModeCmd(CAN_TypeDef* CANx, FunctionalState NewState)
 525:c:/Dropbox/AV_SmartWatch/toolchain_v3/src/libstm32f2\stm32f2xx_can.c **** {
 532              		.loc 1 525 0
 533              		.cfi_startproc
 534              		@ args = 0, pretend = 0, frame = 0
 535              		@ frame_needed = 0, uses_anonymous_args = 0
 536              		@ link register save eliminated.
 537              	.LVL26:
 526:c:/Dropbox/AV_SmartWatch/toolchain_v3/src/libstm32f2\stm32f2xx_can.c ****   /* Check the parameters */
 527:c:/Dropbox/AV_SmartWatch/toolchain_v3/src/libstm32f2\stm32f2xx_can.c ****   assert_param(IS_CAN_ALL_PERIPH(CANx));
 528:c:/Dropbox/AV_SmartWatch/toolchain_v3/src/libstm32f2\stm32f2xx_can.c ****   assert_param(IS_FUNCTIONAL_STATE(NewState));
 529:c:/Dropbox/AV_SmartWatch/toolchain_v3/src/libstm32f2\stm32f2xx_can.c ****   if (NewState != DISABLE)
 530:c:/Dropbox/AV_SmartWatch/toolchain_v3/src/libstm32f2\stm32f2xx_can.c ****   {
 531:c:/Dropbox/AV_SmartWatch/toolchain_v3/src/libstm32f2\stm32f2xx_can.c ****     /* Enable the TTCM mode */
 532:c:/Dropbox/AV_SmartWatch/toolchain_v3/src/libstm32f2\stm32f2xx_can.c ****     CANx->MCR |= CAN_MCR_TTCM;
 538              		.loc 1 532 0
 539 0000 0368     		ldr	r3, [r0, #0]
 529:c:/Dropbox/AV_SmartWatch/toolchain_v3/src/libstm32f2\stm32f2xx_can.c ****   if (NewState != DISABLE)
 540              		.loc 1 529 0
 541 0002 99B1     		cbz	r1, .L57
 542              		.loc 1 532 0
 543 0004 43F08002 		orr	r2, r3, #128
 544 0008 0260     		str	r2, [r0, #0]
 533:c:/Dropbox/AV_SmartWatch/toolchain_v3/src/libstm32f2\stm32f2xx_can.c **** 
 534:c:/Dropbox/AV_SmartWatch/toolchain_v3/src/libstm32f2\stm32f2xx_can.c ****     /* Set TGT bits */
 535:c:/Dropbox/AV_SmartWatch/toolchain_v3/src/libstm32f2\stm32f2xx_can.c ****     CANx->sTxMailBox[0].TDTR |= ((uint32_t)CAN_TDT0R_TGT);
 545              		.loc 1 535 0
 546 000a D0F88431 		ldr	r3, [r0, #388]
 547 000e 43F48071 		orr	r1, r3, #256
 548              	.LVL27:
 549 0012 C0F88411 		str	r1, [r0, #388]
 536:c:/Dropbox/AV_SmartWatch/toolchain_v3/src/libstm32f2\stm32f2xx_can.c ****     CANx->sTxMailBox[1].TDTR |= ((uint32_t)CAN_TDT1R_TGT);
 550              		.loc 1 536 0
 551 0016 D0F89421 		ldr	r2, [r0, #404]
 552 001a 42F48073 		orr	r3, r2, #256
 553 001e C0F89431 		str	r3, [r0, #404]
 537:c:/Dropbox/AV_SmartWatch/toolchain_v3/src/libstm32f2\stm32f2xx_can.c ****     CANx->sTxMailBox[2].TDTR |= ((uint32_t)CAN_TDT2R_TGT);
 554              		.loc 1 537 0
 555 0022 D0F8A411 		ldr	r1, [r0, #420]
 556 0026 41F48071 		orr	r1, r1, #256
 557 002a 12E0     		b	.L59
 558              	.LVL28:
 559              	.L57:
 538:c:/Dropbox/AV_SmartWatch/toolchain_v3/src/libstm32f2\stm32f2xx_can.c ****   }
 539:c:/Dropbox/AV_SmartWatch/toolchain_v3/src/libstm32f2\stm32f2xx_can.c ****   else
 540:c:/Dropbox/AV_SmartWatch/toolchain_v3/src/libstm32f2\stm32f2xx_can.c ****   {
 541:c:/Dropbox/AV_SmartWatch/toolchain_v3/src/libstm32f2\stm32f2xx_can.c ****     /* Disable the TTCM mode */
 542:c:/Dropbox/AV_SmartWatch/toolchain_v3/src/libstm32f2\stm32f2xx_can.c ****     CANx->MCR &= (uint32_t)(~(uint32_t)CAN_MCR_TTCM);
 560              		.loc 1 542 0
 561 002c 23F08001 		bic	r1, r3, #128
 562              	.LVL29:
 563 0030 0160     		str	r1, [r0, #0]
 543:c:/Dropbox/AV_SmartWatch/toolchain_v3/src/libstm32f2\stm32f2xx_can.c **** 
 544:c:/Dropbox/AV_SmartWatch/toolchain_v3/src/libstm32f2\stm32f2xx_can.c ****     /* Reset TGT bits */
 545:c:/Dropbox/AV_SmartWatch/toolchain_v3/src/libstm32f2\stm32f2xx_can.c ****     CANx->sTxMailBox[0].TDTR &= ((uint32_t)~CAN_TDT0R_TGT);
 564              		.loc 1 545 0
 565 0032 D0F88421 		ldr	r2, [r0, #388]
 566 0036 22F48073 		bic	r3, r2, #256
 567 003a C0F88431 		str	r3, [r0, #388]
 546:c:/Dropbox/AV_SmartWatch/toolchain_v3/src/libstm32f2\stm32f2xx_can.c ****     CANx->sTxMailBox[1].TDTR &= ((uint32_t)~CAN_TDT1R_TGT);
 568              		.loc 1 546 0
 569 003e D0F89411 		ldr	r1, [r0, #404]
 570 0042 21F48072 		bic	r2, r1, #256
 571 0046 C0F89421 		str	r2, [r0, #404]
 547:c:/Dropbox/AV_SmartWatch/toolchain_v3/src/libstm32f2\stm32f2xx_can.c ****     CANx->sTxMailBox[2].TDTR &= ((uint32_t)~CAN_TDT2R_TGT);
 572              		.loc 1 547 0
 573 004a D0F8A431 		ldr	r3, [r0, #420]
 574 004e 23F48071 		bic	r1, r3, #256
 575              	.L59:
 576 0052 C0F8A411 		str	r1, [r0, #420]
 577 0056 7047     		bx	lr
 578              		.cfi_endproc
 579              	.LFE62:
 581              		.section	.text.CAN_Transmit,"ax",%progbits
 582              		.align	1
 583              		.global	CAN_Transmit
 584              		.thumb
 585              		.thumb_func
 587              	CAN_Transmit:
 588              	.LFB63:
 548:c:/Dropbox/AV_SmartWatch/toolchain_v3/src/libstm32f2\stm32f2xx_can.c ****   }
 549:c:/Dropbox/AV_SmartWatch/toolchain_v3/src/libstm32f2\stm32f2xx_can.c **** }
 550:c:/Dropbox/AV_SmartWatch/toolchain_v3/src/libstm32f2\stm32f2xx_can.c **** /**
 551:c:/Dropbox/AV_SmartWatch/toolchain_v3/src/libstm32f2\stm32f2xx_can.c ****   * @}
 552:c:/Dropbox/AV_SmartWatch/toolchain_v3/src/libstm32f2\stm32f2xx_can.c ****   */
 553:c:/Dropbox/AV_SmartWatch/toolchain_v3/src/libstm32f2\stm32f2xx_can.c **** 
 554:c:/Dropbox/AV_SmartWatch/toolchain_v3/src/libstm32f2\stm32f2xx_can.c **** 
 555:c:/Dropbox/AV_SmartWatch/toolchain_v3/src/libstm32f2\stm32f2xx_can.c **** /** @defgroup CAN_Group2 CAN Frames Transmission functions
 556:c:/Dropbox/AV_SmartWatch/toolchain_v3/src/libstm32f2\stm32f2xx_can.c ****  *  @brief    CAN Frames Transmission functions 
 557:c:/Dropbox/AV_SmartWatch/toolchain_v3/src/libstm32f2\stm32f2xx_can.c ****  *
 558:c:/Dropbox/AV_SmartWatch/toolchain_v3/src/libstm32f2\stm32f2xx_can.c **** @verbatim    
 559:c:/Dropbox/AV_SmartWatch/toolchain_v3/src/libstm32f2\stm32f2xx_can.c ****  ===============================================================================
 560:c:/Dropbox/AV_SmartWatch/toolchain_v3/src/libstm32f2\stm32f2xx_can.c ****                       CAN Frames Transmission functions
 561:c:/Dropbox/AV_SmartWatch/toolchain_v3/src/libstm32f2\stm32f2xx_can.c ****  ===============================================================================  
 562:c:/Dropbox/AV_SmartWatch/toolchain_v3/src/libstm32f2\stm32f2xx_can.c ****   This section provides functions allowing to 
 563:c:/Dropbox/AV_SmartWatch/toolchain_v3/src/libstm32f2\stm32f2xx_can.c ****    - Initiate and transmit a CAN frame message (if there is an empty mailbox).
 564:c:/Dropbox/AV_SmartWatch/toolchain_v3/src/libstm32f2\stm32f2xx_can.c ****    - Check the transmission status of a CAN Frame
 565:c:/Dropbox/AV_SmartWatch/toolchain_v3/src/libstm32f2\stm32f2xx_can.c ****    - Cancel a transmit request
 566:c:/Dropbox/AV_SmartWatch/toolchain_v3/src/libstm32f2\stm32f2xx_can.c ****    
 567:c:/Dropbox/AV_SmartWatch/toolchain_v3/src/libstm32f2\stm32f2xx_can.c **** @endverbatim
 568:c:/Dropbox/AV_SmartWatch/toolchain_v3/src/libstm32f2\stm32f2xx_can.c ****   * @{
 569:c:/Dropbox/AV_SmartWatch/toolchain_v3/src/libstm32f2\stm32f2xx_can.c ****   */
 570:c:/Dropbox/AV_SmartWatch/toolchain_v3/src/libstm32f2\stm32f2xx_can.c **** 
 571:c:/Dropbox/AV_SmartWatch/toolchain_v3/src/libstm32f2\stm32f2xx_can.c **** /**
 572:c:/Dropbox/AV_SmartWatch/toolchain_v3/src/libstm32f2\stm32f2xx_can.c ****   * @brief  Initiates and transmits a CAN frame message.
 573:c:/Dropbox/AV_SmartWatch/toolchain_v3/src/libstm32f2\stm32f2xx_can.c ****   * @param  CANx: where x can be 1 or 2 to to select the CAN peripheral.
 574:c:/Dropbox/AV_SmartWatch/toolchain_v3/src/libstm32f2\stm32f2xx_can.c ****   * @param  TxMessage: pointer to a structure which contains CAN Id, CAN DLC and CAN data.
 575:c:/Dropbox/AV_SmartWatch/toolchain_v3/src/libstm32f2\stm32f2xx_can.c ****   * @retval The number of the mailbox that is used for transmission or
 576:c:/Dropbox/AV_SmartWatch/toolchain_v3/src/libstm32f2\stm32f2xx_can.c ****   *         CAN_TxStatus_NoMailBox if there is no empty mailbox.
 577:c:/Dropbox/AV_SmartWatch/toolchain_v3/src/libstm32f2\stm32f2xx_can.c ****   */
 578:c:/Dropbox/AV_SmartWatch/toolchain_v3/src/libstm32f2\stm32f2xx_can.c **** uint8_t CAN_Transmit(CAN_TypeDef* CANx, CanTxMsg* TxMessage)
 579:c:/Dropbox/AV_SmartWatch/toolchain_v3/src/libstm32f2\stm32f2xx_can.c **** {
 589              		.loc 1 579 0
 590              		.cfi_startproc
 591              		@ args = 0, pretend = 0, frame = 0
 592              		@ frame_needed = 0, uses_anonymous_args = 0
 593              	.LVL30:
 580:c:/Dropbox/AV_SmartWatch/toolchain_v3/src/libstm32f2\stm32f2xx_can.c ****   uint8_t transmit_mailbox = 0;
 581:c:/Dropbox/AV_SmartWatch/toolchain_v3/src/libstm32f2\stm32f2xx_can.c ****   /* Check the parameters */
 582:c:/Dropbox/AV_SmartWatch/toolchain_v3/src/libstm32f2\stm32f2xx_can.c ****   assert_param(IS_CAN_ALL_PERIPH(CANx));
 583:c:/Dropbox/AV_SmartWatch/toolchain_v3/src/libstm32f2\stm32f2xx_can.c ****   assert_param(IS_CAN_IDTYPE(TxMessage->IDE));
 584:c:/Dropbox/AV_SmartWatch/toolchain_v3/src/libstm32f2\stm32f2xx_can.c ****   assert_param(IS_CAN_RTR(TxMessage->RTR));
 585:c:/Dropbox/AV_SmartWatch/toolchain_v3/src/libstm32f2\stm32f2xx_can.c ****   assert_param(IS_CAN_DLC(TxMessage->DLC));
 586:c:/Dropbox/AV_SmartWatch/toolchain_v3/src/libstm32f2\stm32f2xx_can.c **** 
 587:c:/Dropbox/AV_SmartWatch/toolchain_v3/src/libstm32f2\stm32f2xx_can.c ****   /* Select one empty transmit mailbox */
 588:c:/Dropbox/AV_SmartWatch/toolchain_v3/src/libstm32f2\stm32f2xx_can.c ****   if ((CANx->TSR&CAN_TSR_TME0) == CAN_TSR_TME0)
 594              		.loc 1 588 0
 595 0000 8268     		ldr	r2, [r0, #8]
 579:c:/Dropbox/AV_SmartWatch/toolchain_v3/src/libstm32f2\stm32f2xx_can.c **** {
 596              		.loc 1 579 0
 597 0002 0346     		mov	r3, r0
 598              		.loc 1 588 0
 599 0004 5001     		lsls	r0, r2, #5
 600              	.LVL31:
 579:c:/Dropbox/AV_SmartWatch/toolchain_v3/src/libstm32f2\stm32f2xx_can.c **** {
 601              		.loc 1 579 0
 602 0006 70B5     		push	{r4, r5, r6, lr}
 603              	.LCFI2:
 604              		.cfi_def_cfa_offset 16
 605              		.cfi_offset 4, -16
 606              		.cfi_offset 5, -12
 607              		.cfi_offset 6, -8
 608              		.cfi_offset 14, -4
 609              		.loc 1 588 0
 610 0008 07D4     		bmi	.L66
 589:c:/Dropbox/AV_SmartWatch/toolchain_v3/src/libstm32f2\stm32f2xx_can.c ****   {
 590:c:/Dropbox/AV_SmartWatch/toolchain_v3/src/libstm32f2\stm32f2xx_can.c ****     transmit_mailbox = 0;
 591:c:/Dropbox/AV_SmartWatch/toolchain_v3/src/libstm32f2\stm32f2xx_can.c ****   }
 592:c:/Dropbox/AV_SmartWatch/toolchain_v3/src/libstm32f2\stm32f2xx_can.c ****   else if ((CANx->TSR&CAN_TSR_TME1) == CAN_TSR_TME1)
 611              		.loc 1 592 0
 612 000a 9868     		ldr	r0, [r3, #8]
 613 000c 0201     		lsls	r2, r0, #4
 614 000e 06D4     		bmi	.L67
 593:c:/Dropbox/AV_SmartWatch/toolchain_v3/src/libstm32f2\stm32f2xx_can.c ****   {
 594:c:/Dropbox/AV_SmartWatch/toolchain_v3/src/libstm32f2\stm32f2xx_can.c ****     transmit_mailbox = 1;
 595:c:/Dropbox/AV_SmartWatch/toolchain_v3/src/libstm32f2\stm32f2xx_can.c ****   }
 596:c:/Dropbox/AV_SmartWatch/toolchain_v3/src/libstm32f2\stm32f2xx_can.c ****   else if ((CANx->TSR&CAN_TSR_TME2) == CAN_TSR_TME2)
 615              		.loc 1 596 0
 616 0010 9A68     		ldr	r2, [r3, #8]
 617 0012 D000     		lsls	r0, r2, #3
 618 0014 05D4     		bmi	.L68
 597:c:/Dropbox/AV_SmartWatch/toolchain_v3/src/libstm32f2\stm32f2xx_can.c ****   {
 598:c:/Dropbox/AV_SmartWatch/toolchain_v3/src/libstm32f2\stm32f2xx_can.c ****     transmit_mailbox = 2;
 599:c:/Dropbox/AV_SmartWatch/toolchain_v3/src/libstm32f2\stm32f2xx_can.c ****   }
 600:c:/Dropbox/AV_SmartWatch/toolchain_v3/src/libstm32f2\stm32f2xx_can.c ****   else
 601:c:/Dropbox/AV_SmartWatch/toolchain_v3/src/libstm32f2\stm32f2xx_can.c ****   {
 602:c:/Dropbox/AV_SmartWatch/toolchain_v3/src/libstm32f2\stm32f2xx_can.c ****     transmit_mailbox = CAN_TxStatus_NoMailBox;
 619              		.loc 1 602 0
 620 0016 0420     		movs	r0, #4
 621 0018 70BD     		pop	{r4, r5, r6, pc}
 622              	.L66:
 590:c:/Dropbox/AV_SmartWatch/toolchain_v3/src/libstm32f2\stm32f2xx_can.c ****     transmit_mailbox = 0;
 623              		.loc 1 590 0
 624 001a 0020     		movs	r0, #0
 625 001c 02E0     		b	.L61
 626              	.L67:
 594:c:/Dropbox/AV_SmartWatch/toolchain_v3/src/libstm32f2\stm32f2xx_can.c ****     transmit_mailbox = 1;
 627              		.loc 1 594 0
 628 001e 0120     		movs	r0, #1
 629 0020 00E0     		b	.L61
 630              	.L68:
 598:c:/Dropbox/AV_SmartWatch/toolchain_v3/src/libstm32f2\stm32f2xx_can.c ****     transmit_mailbox = 2;
 631              		.loc 1 598 0
 632 0022 0220     		movs	r0, #2
 633              	.L61:
 634              	.LVL32:
 603:c:/Dropbox/AV_SmartWatch/toolchain_v3/src/libstm32f2\stm32f2xx_can.c ****   }
 604:c:/Dropbox/AV_SmartWatch/toolchain_v3/src/libstm32f2\stm32f2xx_can.c **** 
 605:c:/Dropbox/AV_SmartWatch/toolchain_v3/src/libstm32f2\stm32f2xx_can.c ****   if (transmit_mailbox != CAN_TxStatus_NoMailBox)
 606:c:/Dropbox/AV_SmartWatch/toolchain_v3/src/libstm32f2\stm32f2xx_can.c ****   {
 607:c:/Dropbox/AV_SmartWatch/toolchain_v3/src/libstm32f2\stm32f2xx_can.c ****     /* Set up the Id */
 608:c:/Dropbox/AV_SmartWatch/toolchain_v3/src/libstm32f2\stm32f2xx_can.c ****     CANx->sTxMailBox[transmit_mailbox].TIR &= TMIDxR_TXRQ;
 635              		.loc 1 608 0
 636 0024 00F11804 		add	r4, r0, #24
 637 0028 2201     		lsls	r2, r4, #4
 638 002a 9D58     		ldr	r5, [r3, r2]
 639 002c 05F00106 		and	r6, r5, #1
 640 0030 9E50     		str	r6, [r3, r2]
 609:c:/Dropbox/AV_SmartWatch/toolchain_v3/src/libstm32f2\stm32f2xx_can.c ****     if (TxMessage->IDE == CAN_Id_Standard)
 641              		.loc 1 609 0
 642 0032 0C7A     		ldrb	r4, [r1, #8]	@ zero_extendqisi2
 643 0034 34B9     		cbnz	r4, .L72
 644              	.L64:
 610:c:/Dropbox/AV_SmartWatch/toolchain_v3/src/libstm32f2\stm32f2xx_can.c ****     {
 611:c:/Dropbox/AV_SmartWatch/toolchain_v3/src/libstm32f2\stm32f2xx_can.c ****       assert_param(IS_CAN_STDID(TxMessage->StdId));  
 612:c:/Dropbox/AV_SmartWatch/toolchain_v3/src/libstm32f2\stm32f2xx_can.c ****       CANx->sTxMailBox[transmit_mailbox].TIR |= ((TxMessage->StdId << 21) | \
 645              		.loc 1 612 0
 646 0036 0C68     		ldr	r4, [r1, #0]
 647 0038 4E7A     		ldrb	r6, [r1, #9]	@ zero_extendqisi2
 648 003a 9D58     		ldr	r5, [r3, r2]
 649 003c 46EA4454 		orr	r4, r6, r4, lsl #21
 650 0040 2C43     		orrs	r4, r4, r5
 651 0042 06E0     		b	.L71
 652              	.L72:
 613:c:/Dropbox/AV_SmartWatch/toolchain_v3/src/libstm32f2\stm32f2xx_can.c ****                                                   TxMessage->RTR);
 614:c:/Dropbox/AV_SmartWatch/toolchain_v3/src/libstm32f2\stm32f2xx_can.c ****     }
 615:c:/Dropbox/AV_SmartWatch/toolchain_v3/src/libstm32f2\stm32f2xx_can.c ****     else
 616:c:/Dropbox/AV_SmartWatch/toolchain_v3/src/libstm32f2\stm32f2xx_can.c ****     {
 617:c:/Dropbox/AV_SmartWatch/toolchain_v3/src/libstm32f2\stm32f2xx_can.c ****       assert_param(IS_CAN_EXTID(TxMessage->ExtId));
 618:c:/Dropbox/AV_SmartWatch/toolchain_v3/src/libstm32f2\stm32f2xx_can.c ****       CANx->sTxMailBox[transmit_mailbox].TIR |= ((TxMessage->ExtId << 3) | \
 653              		.loc 1 618 0
 654 0044 4D68     		ldr	r5, [r1, #4]
 655 0046 9E58     		ldr	r6, [r3, r2]
 656 0048 44EAC504 		orr	r4, r4, r5, lsl #3
 619:c:/Dropbox/AV_SmartWatch/toolchain_v3/src/libstm32f2\stm32f2xx_can.c ****                                                   TxMessage->IDE | \
 657              		.loc 1 619 0
 658 004c 3443     		orrs	r4, r4, r6
 659 004e 4E7A     		ldrb	r6, [r1, #9]	@ zero_extendqisi2
 618:c:/Dropbox/AV_SmartWatch/toolchain_v3/src/libstm32f2\stm32f2xx_can.c ****       CANx->sTxMailBox[transmit_mailbox].TIR |= ((TxMessage->ExtId << 3) | \
 660              		.loc 1 618 0
 661 0050 3443     		orrs	r4, r4, r6
 662              	.L71:
 663 0052 9C50     		str	r4, [r3, r2]
 620:c:/Dropbox/AV_SmartWatch/toolchain_v3/src/libstm32f2\stm32f2xx_can.c ****                                                   TxMessage->RTR);
 621:c:/Dropbox/AV_SmartWatch/toolchain_v3/src/libstm32f2\stm32f2xx_can.c ****     }
 622:c:/Dropbox/AV_SmartWatch/toolchain_v3/src/libstm32f2\stm32f2xx_can.c ****     
 623:c:/Dropbox/AV_SmartWatch/toolchain_v3/src/libstm32f2\stm32f2xx_can.c ****     /* Set up the DLC */
 624:c:/Dropbox/AV_SmartWatch/toolchain_v3/src/libstm32f2\stm32f2xx_can.c ****     TxMessage->DLC &= (uint8_t)0x0000000F;
 664              		.loc 1 624 0
 665 0054 8A7A     		ldrb	r2, [r1, #10]	@ zero_extendqisi2
 625:c:/Dropbox/AV_SmartWatch/toolchain_v3/src/libstm32f2\stm32f2xx_can.c ****     CANx->sTxMailBox[transmit_mailbox].TDTR &= (uint32_t)0xFFFFFFF0;
 666              		.loc 1 625 0
 667 0056 00F11804 		add	r4, r0, #24
 668 005a 2401     		lsls	r4, r4, #4
 624:c:/Dropbox/AV_SmartWatch/toolchain_v3/src/libstm32f2\stm32f2xx_can.c ****     TxMessage->DLC &= (uint8_t)0x0000000F;
 669              		.loc 1 624 0
 670 005c 02F00F05 		and	r5, r2, #15
 671 0060 8D72     		strb	r5, [r1, #10]
 672              		.loc 1 625 0
 673 0062 1A19     		adds	r2, r3, r4
 674 0064 5668     		ldr	r6, [r2, #4]
 675 0066 26F00F05 		bic	r5, r6, #15
 676 006a 5560     		str	r5, [r2, #4]
 626:c:/Dropbox/AV_SmartWatch/toolchain_v3/src/libstm32f2\stm32f2xx_can.c ****     CANx->sTxMailBox[transmit_mailbox].TDTR |= TxMessage->DLC;
 677              		.loc 1 626 0
 678 006c 5568     		ldr	r5, [r2, #4]
 679 006e 8E7A     		ldrb	r6, [r1, #10]	@ zero_extendqisi2
 680 0070 3543     		orrs	r5, r5, r6
 681 0072 5560     		str	r5, [r2, #4]
 627:c:/Dropbox/AV_SmartWatch/toolchain_v3/src/libstm32f2\stm32f2xx_can.c **** 
 628:c:/Dropbox/AV_SmartWatch/toolchain_v3/src/libstm32f2\stm32f2xx_can.c ****     /* Set up the data field */
 629:c:/Dropbox/AV_SmartWatch/toolchain_v3/src/libstm32f2\stm32f2xx_can.c ****     CANx->sTxMailBox[transmit_mailbox].TDLR = (((uint32_t)TxMessage->Data[3] << 24) | 
 630:c:/Dropbox/AV_SmartWatch/toolchain_v3/src/libstm32f2\stm32f2xx_can.c ****                                              ((uint32_t)TxMessage->Data[2] << 16) |
 682              		.loc 1 630 0
 683 0074 4E7B     		ldrb	r6, [r1, #13]	@ zero_extendqisi2
 629:c:/Dropbox/AV_SmartWatch/toolchain_v3/src/libstm32f2\stm32f2xx_can.c ****     CANx->sTxMailBox[transmit_mailbox].TDLR = (((uint32_t)TxMessage->Data[3] << 24) | 
 684              		.loc 1 629 0
 685 0076 8A7B     		ldrb	r2, [r1, #14]	@ zero_extendqisi2
 686              		.loc 1 630 0
 687 0078 3504     		lsls	r5, r6, #16
 629:c:/Dropbox/AV_SmartWatch/toolchain_v3/src/libstm32f2\stm32f2xx_can.c ****     CANx->sTxMailBox[transmit_mailbox].TDLR = (((uint32_t)TxMessage->Data[3] << 24) | 
 688              		.loc 1 629 0
 689 007a 45EA0266 		orr	r6, r5, r2, lsl #24
 631:c:/Dropbox/AV_SmartWatch/toolchain_v3/src/libstm32f2\stm32f2xx_can.c ****                                              ((uint32_t)TxMessage->Data[1] << 8) | 
 632:c:/Dropbox/AV_SmartWatch/toolchain_v3/src/libstm32f2\stm32f2xx_can.c ****                                              ((uint32_t)TxMessage->Data[0]));
 690              		.loc 1 632 0
 691 007e CA7A     		ldrb	r2, [r1, #11]	@ zero_extendqisi2
 631:c:/Dropbox/AV_SmartWatch/toolchain_v3/src/libstm32f2\stm32f2xx_can.c ****                                              ((uint32_t)TxMessage->Data[1] << 8) | 
 692              		.loc 1 631 0
 693 0080 0D7B     		ldrb	r5, [r1, #12]	@ zero_extendqisi2
 630:c:/Dropbox/AV_SmartWatch/toolchain_v3/src/libstm32f2\stm32f2xx_can.c ****                                              ((uint32_t)TxMessage->Data[2] << 16) |
 694              		.loc 1 630 0
 695 0082 1643     		orrs	r6, r6, r2
 631:c:/Dropbox/AV_SmartWatch/toolchain_v3/src/libstm32f2\stm32f2xx_can.c ****                                              ((uint32_t)TxMessage->Data[1] << 8) | 
 696              		.loc 1 631 0
 697 0084 46EA0526 		orr	r6, r6, r5, lsl #8
 629:c:/Dropbox/AV_SmartWatch/toolchain_v3/src/libstm32f2\stm32f2xx_can.c ****     CANx->sTxMailBox[transmit_mailbox].TDLR = (((uint32_t)TxMessage->Data[3] << 24) | 
 698              		.loc 1 629 0
 699 0088 03EB0012 		add	r2, r3, r0, lsl #4
 700 008c C2F88861 		str	r6, [r2, #392]
 701 0090 02F5C475 		add	r5, r2, #392
 633:c:/Dropbox/AV_SmartWatch/toolchain_v3/src/libstm32f2\stm32f2xx_can.c ****     CANx->sTxMailBox[transmit_mailbox].TDHR = (((uint32_t)TxMessage->Data[7] << 24) | 
 634:c:/Dropbox/AV_SmartWatch/toolchain_v3/src/libstm32f2\stm32f2xx_can.c ****                                              ((uint32_t)TxMessage->Data[6] << 16) |
 702              		.loc 1 634 0
 703 0094 4A7C     		ldrb	r2, [r1, #17]	@ zero_extendqisi2
 633:c:/Dropbox/AV_SmartWatch/toolchain_v3/src/libstm32f2\stm32f2xx_can.c ****     CANx->sTxMailBox[transmit_mailbox].TDHR = (((uint32_t)TxMessage->Data[7] << 24) | 
 704              		.loc 1 633 0
 705 0096 8E7C     		ldrb	r6, [r1, #18]	@ zero_extendqisi2
 706              		.loc 1 634 0
 707 0098 1204     		lsls	r2, r2, #16
 633:c:/Dropbox/AV_SmartWatch/toolchain_v3/src/libstm32f2\stm32f2xx_can.c ****     CANx->sTxMailBox[transmit_mailbox].TDHR = (((uint32_t)TxMessage->Data[7] << 24) | 
 708              		.loc 1 633 0
 709 009a 42EA0662 		orr	r2, r2, r6, lsl #24
 635:c:/Dropbox/AV_SmartWatch/toolchain_v3/src/libstm32f2\stm32f2xx_can.c ****                                              ((uint32_t)TxMessage->Data[5] << 8) |
 636:c:/Dropbox/AV_SmartWatch/toolchain_v3/src/libstm32f2\stm32f2xx_can.c ****                                              ((uint32_t)TxMessage->Data[4]));
 710              		.loc 1 636 0
 711 009e CE7B     		ldrb	r6, [r1, #15]	@ zero_extendqisi2
 635:c:/Dropbox/AV_SmartWatch/toolchain_v3/src/libstm32f2\stm32f2xx_can.c ****                                              ((uint32_t)TxMessage->Data[5] << 8) |
 712              		.loc 1 635 0
 713 00a0 097C     		ldrb	r1, [r1, #16]	@ zero_extendqisi2
 714              	.LVL33:
 634:c:/Dropbox/AV_SmartWatch/toolchain_v3/src/libstm32f2\stm32f2xx_can.c ****                                              ((uint32_t)TxMessage->Data[6] << 16) |
 715              		.loc 1 634 0
 716 00a2 3243     		orrs	r2, r2, r6
 635:c:/Dropbox/AV_SmartWatch/toolchain_v3/src/libstm32f2\stm32f2xx_can.c ****                                              ((uint32_t)TxMessage->Data[5] << 8) |
 717              		.loc 1 635 0
 718 00a4 42EA0122 		orr	r2, r2, r1, lsl #8
 633:c:/Dropbox/AV_SmartWatch/toolchain_v3/src/libstm32f2\stm32f2xx_can.c ****     CANx->sTxMailBox[transmit_mailbox].TDHR = (((uint32_t)TxMessage->Data[7] << 24) | 
 719              		.loc 1 633 0
 720 00a8 6A60     		str	r2, [r5, #4]
 637:c:/Dropbox/AV_SmartWatch/toolchain_v3/src/libstm32f2\stm32f2xx_can.c ****     /* Request transmission */
 638:c:/Dropbox/AV_SmartWatch/toolchain_v3/src/libstm32f2\stm32f2xx_can.c ****     CANx->sTxMailBox[transmit_mailbox].TIR |= TMIDxR_TXRQ;
 721              		.loc 1 638 0
 722 00aa 1959     		ldr	r1, [r3, r4]
 723 00ac 41F00102 		orr	r2, r1, #1
 724 00b0 1A51     		str	r2, [r3, r4]
 725 00b2 70BD     		pop	{r4, r5, r6, pc}
 726              		.cfi_endproc
 727              	.LFE63:
 729              		.section	.text.CAN_TransmitStatus,"ax",%progbits
 730              		.align	1
 731              		.global	CAN_TransmitStatus
 732              		.thumb
 733              		.thumb_func
 735              	CAN_TransmitStatus:
 736              	.LFB64:
 639:c:/Dropbox/AV_SmartWatch/toolchain_v3/src/libstm32f2\stm32f2xx_can.c ****   }
 640:c:/Dropbox/AV_SmartWatch/toolchain_v3/src/libstm32f2\stm32f2xx_can.c ****   return transmit_mailbox;
 641:c:/Dropbox/AV_SmartWatch/toolchain_v3/src/libstm32f2\stm32f2xx_can.c **** }
 642:c:/Dropbox/AV_SmartWatch/toolchain_v3/src/libstm32f2\stm32f2xx_can.c **** 
 643:c:/Dropbox/AV_SmartWatch/toolchain_v3/src/libstm32f2\stm32f2xx_can.c **** /**
 644:c:/Dropbox/AV_SmartWatch/toolchain_v3/src/libstm32f2\stm32f2xx_can.c ****   * @brief  Checks the transmission status of a CAN Frame.
 645:c:/Dropbox/AV_SmartWatch/toolchain_v3/src/libstm32f2\stm32f2xx_can.c ****   * @param  CANx: where x can be 1 or 2 to select the CAN peripheral.
 646:c:/Dropbox/AV_SmartWatch/toolchain_v3/src/libstm32f2\stm32f2xx_can.c ****   * @param  TransmitMailbox: the number of the mailbox that is used for transmission.
 647:c:/Dropbox/AV_SmartWatch/toolchain_v3/src/libstm32f2\stm32f2xx_can.c ****   * @retval CAN_TxStatus_Ok if the CAN driver transmits the message, 
 648:c:/Dropbox/AV_SmartWatch/toolchain_v3/src/libstm32f2\stm32f2xx_can.c ****   *         CAN_TxStatus_Failed in an other case.
 649:c:/Dropbox/AV_SmartWatch/toolchain_v3/src/libstm32f2\stm32f2xx_can.c ****   */
 650:c:/Dropbox/AV_SmartWatch/toolchain_v3/src/libstm32f2\stm32f2xx_can.c **** uint8_t CAN_TransmitStatus(CAN_TypeDef* CANx, uint8_t TransmitMailbox)
 651:c:/Dropbox/AV_SmartWatch/toolchain_v3/src/libstm32f2\stm32f2xx_can.c **** {
 737              		.loc 1 651 0
 738              		.cfi_startproc
 739              		@ args = 0, pretend = 0, frame = 0
 740              		@ frame_needed = 0, uses_anonymous_args = 0
 741              		@ link register save eliminated.
 742              	.LVL34:
 652:c:/Dropbox/AV_SmartWatch/toolchain_v3/src/libstm32f2\stm32f2xx_can.c ****   uint32_t state = 0;
 653:c:/Dropbox/AV_SmartWatch/toolchain_v3/src/libstm32f2\stm32f2xx_can.c **** 
 654:c:/Dropbox/AV_SmartWatch/toolchain_v3/src/libstm32f2\stm32f2xx_can.c ****   /* Check the parameters */
 655:c:/Dropbox/AV_SmartWatch/toolchain_v3/src/libstm32f2\stm32f2xx_can.c ****   assert_param(IS_CAN_ALL_PERIPH(CANx));
 656:c:/Dropbox/AV_SmartWatch/toolchain_v3/src/libstm32f2\stm32f2xx_can.c ****   assert_param(IS_CAN_TRANSMITMAILBOX(TransmitMailbox));
 657:c:/Dropbox/AV_SmartWatch/toolchain_v3/src/libstm32f2\stm32f2xx_can.c ****  
 658:c:/Dropbox/AV_SmartWatch/toolchain_v3/src/libstm32f2\stm32f2xx_can.c ****   switch (TransmitMailbox)
 743              		.loc 1 658 0
 744 0000 0129     		cmp	r1, #1
 745 0002 08D0     		beq	.L76
 746 0004 04D3     		bcc	.L75
 747 0006 0229     		cmp	r1, #2
 748 0008 16D1     		bne	.L86
 659:c:/Dropbox/AV_SmartWatch/toolchain_v3/src/libstm32f2\stm32f2xx_can.c ****   {
 660:c:/Dropbox/AV_SmartWatch/toolchain_v3/src/libstm32f2\stm32f2xx_can.c ****     case (CAN_TXMAILBOX_0): 
 661:c:/Dropbox/AV_SmartWatch/toolchain_v3/src/libstm32f2\stm32f2xx_can.c ****       state =   CANx->TSR &  (CAN_TSR_RQCP0 | CAN_TSR_TXOK0 | CAN_TSR_TME0);
 662:c:/Dropbox/AV_SmartWatch/toolchain_v3/src/libstm32f2\stm32f2xx_can.c ****       break;
 663:c:/Dropbox/AV_SmartWatch/toolchain_v3/src/libstm32f2\stm32f2xx_can.c ****     case (CAN_TXMAILBOX_1): 
 664:c:/Dropbox/AV_SmartWatch/toolchain_v3/src/libstm32f2\stm32f2xx_can.c ****       state =   CANx->TSR &  (CAN_TSR_RQCP1 | CAN_TSR_TXOK1 | CAN_TSR_TME1);
 665:c:/Dropbox/AV_SmartWatch/toolchain_v3/src/libstm32f2\stm32f2xx_can.c ****       break;
 666:c:/Dropbox/AV_SmartWatch/toolchain_v3/src/libstm32f2\stm32f2xx_can.c ****     case (CAN_TXMAILBOX_2): 
 667:c:/Dropbox/AV_SmartWatch/toolchain_v3/src/libstm32f2\stm32f2xx_can.c ****       state =   CANx->TSR &  (CAN_TSR_RQCP2 | CAN_TSR_TXOK2 | CAN_TSR_TME2);
 749              		.loc 1 667 0
 750 000a 8268     		ldr	r2, [r0, #8]
 751 000c 0C4B     		ldr	r3, .L88
 752 000e 04E0     		b	.L87
 753              	.L75:
 661:c:/Dropbox/AV_SmartWatch/toolchain_v3/src/libstm32f2\stm32f2xx_can.c ****       state =   CANx->TSR &  (CAN_TSR_RQCP0 | CAN_TSR_TXOK0 | CAN_TSR_TME0);
 754              		.loc 1 661 0
 755 0010 8268     		ldr	r2, [r0, #8]
 756 0012 0C4B     		ldr	r3, .L88+4
 757 0014 01E0     		b	.L87
 758              	.L76:
 664:c:/Dropbox/AV_SmartWatch/toolchain_v3/src/libstm32f2\stm32f2xx_can.c ****       state =   CANx->TSR &  (CAN_TSR_RQCP1 | CAN_TSR_TXOK1 | CAN_TSR_TME1);
 759              		.loc 1 664 0
 760 0016 8268     		ldr	r2, [r0, #8]
 761 0018 0B4B     		ldr	r3, .L88+8
 762              	.L87:
 668:c:/Dropbox/AV_SmartWatch/toolchain_v3/src/libstm32f2\stm32f2xx_can.c ****       break;
 669:c:/Dropbox/AV_SmartWatch/toolchain_v3/src/libstm32f2\stm32f2xx_can.c ****     default:
 670:c:/Dropbox/AV_SmartWatch/toolchain_v3/src/libstm32f2\stm32f2xx_can.c ****       state = CAN_TxStatus_Failed;
 671:c:/Dropbox/AV_SmartWatch/toolchain_v3/src/libstm32f2\stm32f2xx_can.c ****       break;
 672:c:/Dropbox/AV_SmartWatch/toolchain_v3/src/libstm32f2\stm32f2xx_can.c ****   }
 673:c:/Dropbox/AV_SmartWatch/toolchain_v3/src/libstm32f2\stm32f2xx_can.c ****   switch (state)
 763              		.loc 1 673 0
 764 001a 0A48     		ldr	r0, .L88+4
 765              	.LVL35:
 667:c:/Dropbox/AV_SmartWatch/toolchain_v3/src/libstm32f2\stm32f2xx_can.c ****       state =   CANx->TSR &  (CAN_TSR_RQCP2 | CAN_TSR_TXOK2 | CAN_TSR_TME2);
 766              		.loc 1 667 0
 767 001c 1340     		ands	r3, r3, r2
 768              	.LVL36:
 769              		.loc 1 673 0
 770 001e 8342     		cmp	r3, r0
 771 0020 08D0     		beq	.L82
 772 0022 01D8     		bhi	.L83
 773 0024 43B1     		cbz	r3, .L86
 774 0026 09E0     		b	.L85
 775              	.L83:
 776 0028 0749     		ldr	r1, .L88+8
 777              	.LVL37:
 778 002a 8B42     		cmp	r3, r1
 779 002c 02D0     		beq	.L82
 780 002e 044A     		ldr	r2, .L88
 781 0030 9342     		cmp	r3, r2
 782 0032 03D1     		bne	.L85
 783              	.L82:
 784              	.LVL38:
 674:c:/Dropbox/AV_SmartWatch/toolchain_v3/src/libstm32f2\stm32f2xx_can.c ****   {
 675:c:/Dropbox/AV_SmartWatch/toolchain_v3/src/libstm32f2\stm32f2xx_can.c ****       /* transmit pending  */
 676:c:/Dropbox/AV_SmartWatch/toolchain_v3/src/libstm32f2\stm32f2xx_can.c ****     case (0x0): state = CAN_TxStatus_Pending;
 677:c:/Dropbox/AV_SmartWatch/toolchain_v3/src/libstm32f2\stm32f2xx_can.c ****       break;
 678:c:/Dropbox/AV_SmartWatch/toolchain_v3/src/libstm32f2\stm32f2xx_can.c ****       /* transmit failed  */
 679:c:/Dropbox/AV_SmartWatch/toolchain_v3/src/libstm32f2\stm32f2xx_can.c ****      case (CAN_TSR_RQCP0 | CAN_TSR_TME0): state = CAN_TxStatus_Failed;
 680:c:/Dropbox/AV_SmartWatch/toolchain_v3/src/libstm32f2\stm32f2xx_can.c ****       break;
 681:c:/Dropbox/AV_SmartWatch/toolchain_v3/src/libstm32f2\stm32f2xx_can.c ****      case (CAN_TSR_RQCP1 | CAN_TSR_TME1): state = CAN_TxStatus_Failed;
 682:c:/Dropbox/AV_SmartWatch/toolchain_v3/src/libstm32f2\stm32f2xx_can.c ****       break;
 683:c:/Dropbox/AV_SmartWatch/toolchain_v3/src/libstm32f2\stm32f2xx_can.c ****      case (CAN_TSR_RQCP2 | CAN_TSR_TME2): state = CAN_TxStatus_Failed;
 684:c:/Dropbox/AV_SmartWatch/toolchain_v3/src/libstm32f2\stm32f2xx_can.c ****       break;
 685:c:/Dropbox/AV_SmartWatch/toolchain_v3/src/libstm32f2\stm32f2xx_can.c ****       /* transmit succeeded  */
 686:c:/Dropbox/AV_SmartWatch/toolchain_v3/src/libstm32f2\stm32f2xx_can.c ****     case (CAN_TSR_RQCP0 | CAN_TSR_TXOK0 | CAN_TSR_TME0):state = CAN_TxStatus_Ok;
 687:c:/Dropbox/AV_SmartWatch/toolchain_v3/src/libstm32f2\stm32f2xx_can.c ****       break;
 688:c:/Dropbox/AV_SmartWatch/toolchain_v3/src/libstm32f2\stm32f2xx_can.c ****     case (CAN_TSR_RQCP1 | CAN_TSR_TXOK1 | CAN_TSR_TME1):state = CAN_TxStatus_Ok;
 689:c:/Dropbox/AV_SmartWatch/toolchain_v3/src/libstm32f2\stm32f2xx_can.c ****       break;
 690:c:/Dropbox/AV_SmartWatch/toolchain_v3/src/libstm32f2\stm32f2xx_can.c ****     case (CAN_TSR_RQCP2 | CAN_TSR_TXOK2 | CAN_TSR_TME2):state = CAN_TxStatus_Ok;
 785              		.loc 1 690 0
 786 0034 0120     		movs	r0, #1
 691:c:/Dropbox/AV_SmartWatch/toolchain_v3/src/libstm32f2\stm32f2xx_can.c ****       break;
 787              		.loc 1 691 0
 788 0036 7047     		bx	lr
 789              	.LVL39:
 790              	.L86:
 676:c:/Dropbox/AV_SmartWatch/toolchain_v3/src/libstm32f2\stm32f2xx_can.c ****     case (0x0): state = CAN_TxStatus_Pending;
 791              		.loc 1 676 0
 792 0038 0220     		movs	r0, #2
 793 003a 7047     		bx	lr
 794              	.LVL40:
 795              	.L85:
 679:c:/Dropbox/AV_SmartWatch/toolchain_v3/src/libstm32f2\stm32f2xx_can.c ****      case (CAN_TSR_RQCP0 | CAN_TSR_TME0): state = CAN_TxStatus_Failed;
 796              		.loc 1 679 0
 797 003c 0020     		movs	r0, #0
 798              	.LVL41:
 692:c:/Dropbox/AV_SmartWatch/toolchain_v3/src/libstm32f2\stm32f2xx_can.c ****     default: state = CAN_TxStatus_Failed;
 693:c:/Dropbox/AV_SmartWatch/toolchain_v3/src/libstm32f2\stm32f2xx_can.c ****       break;
 694:c:/Dropbox/AV_SmartWatch/toolchain_v3/src/libstm32f2\stm32f2xx_can.c ****   }
 695:c:/Dropbox/AV_SmartWatch/toolchain_v3/src/libstm32f2\stm32f2xx_can.c ****   return (uint8_t) state;
 696:c:/Dropbox/AV_SmartWatch/toolchain_v3/src/libstm32f2\stm32f2xx_can.c **** }
 799              		.loc 1 696 0
 800 003e 7047     		bx	lr
 801              	.L89:
 802              		.align	2
 803              	.L88:
 804 0040 00000310 		.word	268632064
 805 0044 03000004 		.word	67108867
 806 0048 00030008 		.word	134218496
 807              		.cfi_endproc
 808              	.LFE64:
 810              		.section	.text.CAN_CancelTransmit,"ax",%progbits
 811              		.align	1
 812              		.global	CAN_CancelTransmit
 813              		.thumb
 814              		.thumb_func
 816              	CAN_CancelTransmit:
 817              	.LFB65:
 697:c:/Dropbox/AV_SmartWatch/toolchain_v3/src/libstm32f2\stm32f2xx_can.c **** 
 698:c:/Dropbox/AV_SmartWatch/toolchain_v3/src/libstm32f2\stm32f2xx_can.c **** /**
 699:c:/Dropbox/AV_SmartWatch/toolchain_v3/src/libstm32f2\stm32f2xx_can.c ****   * @brief  Cancels a transmit request.
 700:c:/Dropbox/AV_SmartWatch/toolchain_v3/src/libstm32f2\stm32f2xx_can.c ****   * @param  CANx: where x can be 1 or 2 to select the CAN peripheral.
 701:c:/Dropbox/AV_SmartWatch/toolchain_v3/src/libstm32f2\stm32f2xx_can.c ****   * @param  Mailbox: Mailbox number.
 702:c:/Dropbox/AV_SmartWatch/toolchain_v3/src/libstm32f2\stm32f2xx_can.c ****   * @retval None
 703:c:/Dropbox/AV_SmartWatch/toolchain_v3/src/libstm32f2\stm32f2xx_can.c ****   */
 704:c:/Dropbox/AV_SmartWatch/toolchain_v3/src/libstm32f2\stm32f2xx_can.c **** void CAN_CancelTransmit(CAN_TypeDef* CANx, uint8_t Mailbox)
 705:c:/Dropbox/AV_SmartWatch/toolchain_v3/src/libstm32f2\stm32f2xx_can.c **** {
 818              		.loc 1 705 0
 819              		.cfi_startproc
 820              		@ args = 0, pretend = 0, frame = 0
 821              		@ frame_needed = 0, uses_anonymous_args = 0
 822              		@ link register save eliminated.
 823              	.LVL42:
 706:c:/Dropbox/AV_SmartWatch/toolchain_v3/src/libstm32f2\stm32f2xx_can.c ****   /* Check the parameters */
 707:c:/Dropbox/AV_SmartWatch/toolchain_v3/src/libstm32f2\stm32f2xx_can.c ****   assert_param(IS_CAN_ALL_PERIPH(CANx));
 708:c:/Dropbox/AV_SmartWatch/toolchain_v3/src/libstm32f2\stm32f2xx_can.c ****   assert_param(IS_CAN_TRANSMITMAILBOX(Mailbox));
 709:c:/Dropbox/AV_SmartWatch/toolchain_v3/src/libstm32f2\stm32f2xx_can.c ****   /* abort transmission */
 710:c:/Dropbox/AV_SmartWatch/toolchain_v3/src/libstm32f2\stm32f2xx_can.c ****   switch (Mailbox)
 824              		.loc 1 710 0
 825 0000 0129     		cmp	r1, #1
 826 0002 0AD0     		beq	.L93
 827 0004 05D3     		bcc	.L92
 828 0006 0229     		cmp	r1, #2
 829 0008 0BD1     		bne	.L90
 711:c:/Dropbox/AV_SmartWatch/toolchain_v3/src/libstm32f2\stm32f2xx_can.c ****   {
 712:c:/Dropbox/AV_SmartWatch/toolchain_v3/src/libstm32f2\stm32f2xx_can.c ****     case (CAN_TXMAILBOX_0): CANx->TSR |= CAN_TSR_ABRQ0;
 713:c:/Dropbox/AV_SmartWatch/toolchain_v3/src/libstm32f2\stm32f2xx_can.c ****       break;
 714:c:/Dropbox/AV_SmartWatch/toolchain_v3/src/libstm32f2\stm32f2xx_can.c ****     case (CAN_TXMAILBOX_1): CANx->TSR |= CAN_TSR_ABRQ1;
 715:c:/Dropbox/AV_SmartWatch/toolchain_v3/src/libstm32f2\stm32f2xx_can.c ****       break;
 716:c:/Dropbox/AV_SmartWatch/toolchain_v3/src/libstm32f2\stm32f2xx_can.c ****     case (CAN_TXMAILBOX_2): CANx->TSR |= CAN_TSR_ABRQ2;
 830              		.loc 1 716 0
 831 000a 8368     		ldr	r3, [r0, #8]
 832 000c 43F40001 		orr	r1, r3, #8388608
 833              	.LVL43:
 834 0010 06E0     		b	.L95
 835              	.LVL44:
 836              	.L92:
 712:c:/Dropbox/AV_SmartWatch/toolchain_v3/src/libstm32f2\stm32f2xx_can.c ****     case (CAN_TXMAILBOX_0): CANx->TSR |= CAN_TSR_ABRQ0;
 837              		.loc 1 712 0
 838 0012 8268     		ldr	r2, [r0, #8]
 839 0014 42F08001 		orr	r1, r2, #128
 840              	.LVL45:
 841 0018 02E0     		b	.L95
 842              	.LVL46:
 843              	.L93:
 714:c:/Dropbox/AV_SmartWatch/toolchain_v3/src/libstm32f2\stm32f2xx_can.c ****     case (CAN_TXMAILBOX_1): CANx->TSR |= CAN_TSR_ABRQ1;
 844              		.loc 1 714 0
 845 001a 8368     		ldr	r3, [r0, #8]
 846 001c 43F40041 		orr	r1, r3, #32768
 847              	.LVL47:
 848              	.L95:
 849              		.loc 1 716 0
 850 0020 8160     		str	r1, [r0, #8]
 851              	.L90:
 852 0022 7047     		bx	lr
 853              		.cfi_endproc
 854              	.LFE65:
 856              		.section	.text.CAN_Receive,"ax",%progbits
 857              		.align	1
 858              		.global	CAN_Receive
 859              		.thumb
 860              		.thumb_func
 862              	CAN_Receive:
 863              	.LFB66:
 717:c:/Dropbox/AV_SmartWatch/toolchain_v3/src/libstm32f2\stm32f2xx_can.c ****       break;
 718:c:/Dropbox/AV_SmartWatch/toolchain_v3/src/libstm32f2\stm32f2xx_can.c ****     default:
 719:c:/Dropbox/AV_SmartWatch/toolchain_v3/src/libstm32f2\stm32f2xx_can.c ****       break;
 720:c:/Dropbox/AV_SmartWatch/toolchain_v3/src/libstm32f2\stm32f2xx_can.c ****   }
 721:c:/Dropbox/AV_SmartWatch/toolchain_v3/src/libstm32f2\stm32f2xx_can.c **** }
 722:c:/Dropbox/AV_SmartWatch/toolchain_v3/src/libstm32f2\stm32f2xx_can.c **** /**
 723:c:/Dropbox/AV_SmartWatch/toolchain_v3/src/libstm32f2\stm32f2xx_can.c ****   * @}
 724:c:/Dropbox/AV_SmartWatch/toolchain_v3/src/libstm32f2\stm32f2xx_can.c ****   */
 725:c:/Dropbox/AV_SmartWatch/toolchain_v3/src/libstm32f2\stm32f2xx_can.c **** 
 726:c:/Dropbox/AV_SmartWatch/toolchain_v3/src/libstm32f2\stm32f2xx_can.c **** 
 727:c:/Dropbox/AV_SmartWatch/toolchain_v3/src/libstm32f2\stm32f2xx_can.c **** /** @defgroup CAN_Group3 CAN Frames Reception functions
 728:c:/Dropbox/AV_SmartWatch/toolchain_v3/src/libstm32f2\stm32f2xx_can.c ****  *  @brief    CAN Frames Reception functions 
 729:c:/Dropbox/AV_SmartWatch/toolchain_v3/src/libstm32f2\stm32f2xx_can.c ****  *
 730:c:/Dropbox/AV_SmartWatch/toolchain_v3/src/libstm32f2\stm32f2xx_can.c **** @verbatim    
 731:c:/Dropbox/AV_SmartWatch/toolchain_v3/src/libstm32f2\stm32f2xx_can.c ****  ===============================================================================
 732:c:/Dropbox/AV_SmartWatch/toolchain_v3/src/libstm32f2\stm32f2xx_can.c ****                       CAN Frames Reception functions
 733:c:/Dropbox/AV_SmartWatch/toolchain_v3/src/libstm32f2\stm32f2xx_can.c ****  ===============================================================================  
 734:c:/Dropbox/AV_SmartWatch/toolchain_v3/src/libstm32f2\stm32f2xx_can.c ****   This section provides functions allowing to 
 735:c:/Dropbox/AV_SmartWatch/toolchain_v3/src/libstm32f2\stm32f2xx_can.c ****    -  Receive a correct CAN frame
 736:c:/Dropbox/AV_SmartWatch/toolchain_v3/src/libstm32f2\stm32f2xx_can.c ****    -  Release a specified receive FIFO (2 FIFOs are available)
 737:c:/Dropbox/AV_SmartWatch/toolchain_v3/src/libstm32f2\stm32f2xx_can.c ****    -  Return the number of the pending received CAN frames
 738:c:/Dropbox/AV_SmartWatch/toolchain_v3/src/libstm32f2\stm32f2xx_can.c ****    
 739:c:/Dropbox/AV_SmartWatch/toolchain_v3/src/libstm32f2\stm32f2xx_can.c **** @endverbatim
 740:c:/Dropbox/AV_SmartWatch/toolchain_v3/src/libstm32f2\stm32f2xx_can.c ****   * @{
 741:c:/Dropbox/AV_SmartWatch/toolchain_v3/src/libstm32f2\stm32f2xx_can.c ****   */
 742:c:/Dropbox/AV_SmartWatch/toolchain_v3/src/libstm32f2\stm32f2xx_can.c **** 
 743:c:/Dropbox/AV_SmartWatch/toolchain_v3/src/libstm32f2\stm32f2xx_can.c **** /**
 744:c:/Dropbox/AV_SmartWatch/toolchain_v3/src/libstm32f2\stm32f2xx_can.c ****   * @brief  Receives a correct CAN frame.
 745:c:/Dropbox/AV_SmartWatch/toolchain_v3/src/libstm32f2\stm32f2xx_can.c ****   * @param  CANx: where x can be 1 or 2 to select the CAN peripheral.
 746:c:/Dropbox/AV_SmartWatch/toolchain_v3/src/libstm32f2\stm32f2xx_can.c ****   * @param  FIFONumber: Receive FIFO number, CAN_FIFO0 or CAN_FIFO1.
 747:c:/Dropbox/AV_SmartWatch/toolchain_v3/src/libstm32f2\stm32f2xx_can.c ****   * @param  RxMessage: pointer to a structure receive frame which contains CAN Id,
 748:c:/Dropbox/AV_SmartWatch/toolchain_v3/src/libstm32f2\stm32f2xx_can.c ****   *         CAN DLC, CAN data and FMI number.
 749:c:/Dropbox/AV_SmartWatch/toolchain_v3/src/libstm32f2\stm32f2xx_can.c ****   * @retval None
 750:c:/Dropbox/AV_SmartWatch/toolchain_v3/src/libstm32f2\stm32f2xx_can.c ****   */
 751:c:/Dropbox/AV_SmartWatch/toolchain_v3/src/libstm32f2\stm32f2xx_can.c **** void CAN_Receive(CAN_TypeDef* CANx, uint8_t FIFONumber, CanRxMsg* RxMessage)
 752:c:/Dropbox/AV_SmartWatch/toolchain_v3/src/libstm32f2\stm32f2xx_can.c **** {
 864              		.loc 1 752 0
 865              		.cfi_startproc
 866              		@ args = 0, pretend = 0, frame = 0
 867              		@ frame_needed = 0, uses_anonymous_args = 0
 868              	.LVL48:
 869 0000 30B5     		push	{r4, r5, lr}
 870              	.LCFI3:
 871              		.cfi_def_cfa_offset 12
 872              		.cfi_offset 4, -12
 873              		.cfi_offset 5, -8
 874              		.cfi_offset 14, -4
 753:c:/Dropbox/AV_SmartWatch/toolchain_v3/src/libstm32f2\stm32f2xx_can.c ****   /* Check the parameters */
 754:c:/Dropbox/AV_SmartWatch/toolchain_v3/src/libstm32f2\stm32f2xx_can.c ****   assert_param(IS_CAN_ALL_PERIPH(CANx));
 755:c:/Dropbox/AV_SmartWatch/toolchain_v3/src/libstm32f2\stm32f2xx_can.c ****   assert_param(IS_CAN_FIFO(FIFONumber));
 756:c:/Dropbox/AV_SmartWatch/toolchain_v3/src/libstm32f2\stm32f2xx_can.c ****   /* Get the Id */
 757:c:/Dropbox/AV_SmartWatch/toolchain_v3/src/libstm32f2\stm32f2xx_can.c ****   RxMessage->IDE = (uint8_t)0x04 & CANx->sFIFOMailBox[FIFONumber].RIR;
 875              		.loc 1 757 0
 876 0002 01F11B04 		add	r4, r1, #27
 877 0006 2301     		lsls	r3, r4, #4
 878 0008 C558     		ldr	r5, [r0, r3]
 879 000a 05F00405 		and	r5, r5, #4
 880 000e EDB2     		uxtb	r5, r5
 881 0010 1572     		strb	r5, [r2, #8]
 758:c:/Dropbox/AV_SmartWatch/toolchain_v3/src/libstm32f2\stm32f2xx_can.c ****   if (RxMessage->IDE == CAN_Id_Standard)
 759:c:/Dropbox/AV_SmartWatch/toolchain_v3/src/libstm32f2\stm32f2xx_can.c ****   {
 760:c:/Dropbox/AV_SmartWatch/toolchain_v3/src/libstm32f2\stm32f2xx_can.c ****     RxMessage->StdId = (uint32_t)0x000007FF & (CANx->sFIFOMailBox[FIFONumber].RIR >> 21);
 882              		.loc 1 760 0
 883 0012 C358     		ldr	r3, [r0, r3]
 758:c:/Dropbox/AV_SmartWatch/toolchain_v3/src/libstm32f2\stm32f2xx_can.c ****   if (RxMessage->IDE == CAN_Id_Standard)
 884              		.loc 1 758 0
 885 0014 15B9     		cbnz	r5, .L97
 886              		.loc 1 760 0
 887 0016 5B0D     		lsrs	r3, r3, #21
 888 0018 1360     		str	r3, [r2, #0]
 889 001a 01E0     		b	.L98
 890              	.L97:
 761:c:/Dropbox/AV_SmartWatch/toolchain_v3/src/libstm32f2\stm32f2xx_can.c ****   }
 762:c:/Dropbox/AV_SmartWatch/toolchain_v3/src/libstm32f2\stm32f2xx_can.c ****   else
 763:c:/Dropbox/AV_SmartWatch/toolchain_v3/src/libstm32f2\stm32f2xx_can.c ****   {
 764:c:/Dropbox/AV_SmartWatch/toolchain_v3/src/libstm32f2\stm32f2xx_can.c ****     RxMessage->ExtId = (uint32_t)0x1FFFFFFF & (CANx->sFIFOMailBox[FIFONumber].RIR >> 3);
 891              		.loc 1 764 0
 892 001c DD08     		lsrs	r5, r3, #3
 893 001e 5560     		str	r5, [r2, #4]
 894              	.L98:
 765:c:/Dropbox/AV_SmartWatch/toolchain_v3/src/libstm32f2\stm32f2xx_can.c ****   }
 766:c:/Dropbox/AV_SmartWatch/toolchain_v3/src/libstm32f2\stm32f2xx_can.c ****   
 767:c:/Dropbox/AV_SmartWatch/toolchain_v3/src/libstm32f2\stm32f2xx_can.c ****   RxMessage->RTR = (uint8_t)0x02 & CANx->sFIFOMailBox[FIFONumber].RIR;
 895              		.loc 1 767 0
 896 0020 2401     		lsls	r4, r4, #4
 897 0022 0359     		ldr	r3, [r0, r4]
 898 0024 0519     		adds	r5, r0, r4
 899 0026 03F00204 		and	r4, r3, #2
 900 002a 5472     		strb	r4, [r2, #9]
 768:c:/Dropbox/AV_SmartWatch/toolchain_v3/src/libstm32f2\stm32f2xx_can.c ****   /* Get the DLC */
 769:c:/Dropbox/AV_SmartWatch/toolchain_v3/src/libstm32f2\stm32f2xx_can.c ****   RxMessage->DLC = (uint8_t)0x0F & CANx->sFIFOMailBox[FIFONumber].RDTR;
 901              		.loc 1 769 0
 902 002c 6B68     		ldr	r3, [r5, #4]
 903 002e 03F00F04 		and	r4, r3, #15
 904 0032 9472     		strb	r4, [r2, #10]
 770:c:/Dropbox/AV_SmartWatch/toolchain_v3/src/libstm32f2\stm32f2xx_can.c ****   /* Get the FMI */
 771:c:/Dropbox/AV_SmartWatch/toolchain_v3/src/libstm32f2\stm32f2xx_can.c ****   RxMessage->FMI = (uint8_t)0xFF & (CANx->sFIFOMailBox[FIFONumber].RDTR >> 8);
 905              		.loc 1 771 0
 906 0034 6D68     		ldr	r5, [r5, #4]
 907 0036 2B0A     		lsrs	r3, r5, #8
 908 0038 D374     		strb	r3, [r2, #19]
 772:c:/Dropbox/AV_SmartWatch/toolchain_v3/src/libstm32f2\stm32f2xx_can.c ****   /* Get the data field */
 773:c:/Dropbox/AV_SmartWatch/toolchain_v3/src/libstm32f2\stm32f2xx_can.c ****   RxMessage->Data[0] = (uint8_t)0xFF & CANx->sFIFOMailBox[FIFONumber].RDLR;
 909              		.loc 1 773 0
 910 003a 00EB0113 		add	r3, r0, r1, lsl #4
 911 003e D3F8B851 		ldr	r5, [r3, #440]
 912 0042 03F5DC74 		add	r4, r3, #440
 913 0046 D572     		strb	r5, [r2, #11]
 774:c:/Dropbox/AV_SmartWatch/toolchain_v3/src/libstm32f2\stm32f2xx_can.c ****   RxMessage->Data[1] = (uint8_t)0xFF & (CANx->sFIFOMailBox[FIFONumber].RDLR >> 8);
 914              		.loc 1 774 0
 915 0048 D3F8B851 		ldr	r5, [r3, #440]
 916 004c 2D0A     		lsrs	r5, r5, #8
 917 004e 1573     		strb	r5, [r2, #12]
 775:c:/Dropbox/AV_SmartWatch/toolchain_v3/src/libstm32f2\stm32f2xx_can.c ****   RxMessage->Data[2] = (uint8_t)0xFF & (CANx->sFIFOMailBox[FIFONumber].RDLR >> 16);
 918              		.loc 1 775 0
 919 0050 D3F8B851 		ldr	r5, [r3, #440]
 920 0054 2D0C     		lsrs	r5, r5, #16
 921 0056 5573     		strb	r5, [r2, #13]
 776:c:/Dropbox/AV_SmartWatch/toolchain_v3/src/libstm32f2\stm32f2xx_can.c ****   RxMessage->Data[3] = (uint8_t)0xFF & (CANx->sFIFOMailBox[FIFONumber].RDLR >> 24);
 922              		.loc 1 776 0
 923 0058 D3F8B831 		ldr	r3, [r3, #440]
 924 005c 1B0E     		lsrs	r3, r3, #24
 925 005e 9373     		strb	r3, [r2, #14]
 777:c:/Dropbox/AV_SmartWatch/toolchain_v3/src/libstm32f2\stm32f2xx_can.c ****   RxMessage->Data[4] = (uint8_t)0xFF & CANx->sFIFOMailBox[FIFONumber].RDHR;
 926              		.loc 1 777 0
 927 0060 6368     		ldr	r3, [r4, #4]
 928 0062 D373     		strb	r3, [r2, #15]
 778:c:/Dropbox/AV_SmartWatch/toolchain_v3/src/libstm32f2\stm32f2xx_can.c ****   RxMessage->Data[5] = (uint8_t)0xFF & (CANx->sFIFOMailBox[FIFONumber].RDHR >> 8);
 929              		.loc 1 778 0
 930 0064 6368     		ldr	r3, [r4, #4]
 931 0066 1B0A     		lsrs	r3, r3, #8
 932 0068 1374     		strb	r3, [r2, #16]
 779:c:/Dropbox/AV_SmartWatch/toolchain_v3/src/libstm32f2\stm32f2xx_can.c ****   RxMessage->Data[6] = (uint8_t)0xFF & (CANx->sFIFOMailBox[FIFONumber].RDHR >> 16);
 933              		.loc 1 779 0
 934 006a 6368     		ldr	r3, [r4, #4]
 935 006c 1B0C     		lsrs	r3, r3, #16
 936 006e 5374     		strb	r3, [r2, #17]
 780:c:/Dropbox/AV_SmartWatch/toolchain_v3/src/libstm32f2\stm32f2xx_can.c ****   RxMessage->Data[7] = (uint8_t)0xFF & (CANx->sFIFOMailBox[FIFONumber].RDHR >> 24);
 937              		.loc 1 780 0
 938 0070 6368     		ldr	r3, [r4, #4]
 939 0072 1B0E     		lsrs	r3, r3, #24
 940 0074 9374     		strb	r3, [r2, #18]
 781:c:/Dropbox/AV_SmartWatch/toolchain_v3/src/libstm32f2\stm32f2xx_can.c ****   /* Release the FIFO */
 782:c:/Dropbox/AV_SmartWatch/toolchain_v3/src/libstm32f2\stm32f2xx_can.c ****   /* Release FIFO0 */
 783:c:/Dropbox/AV_SmartWatch/toolchain_v3/src/libstm32f2\stm32f2xx_can.c ****   if (FIFONumber == CAN_FIFO0)
 941              		.loc 1 783 0
 942 0076 21B9     		cbnz	r1, .L99
 784:c:/Dropbox/AV_SmartWatch/toolchain_v3/src/libstm32f2\stm32f2xx_can.c ****   {
 785:c:/Dropbox/AV_SmartWatch/toolchain_v3/src/libstm32f2\stm32f2xx_can.c ****     CANx->RF0R |= CAN_RF0R_RFOM0;
 943              		.loc 1 785 0
 944 0078 C368     		ldr	r3, [r0, #12]
 945 007a 43F02001 		orr	r1, r3, #32
 946              	.LVL49:
 947 007e C160     		str	r1, [r0, #12]
 948 0080 30BD     		pop	{r4, r5, pc}
 949              	.LVL50:
 950              	.L99:
 786:c:/Dropbox/AV_SmartWatch/toolchain_v3/src/libstm32f2\stm32f2xx_can.c ****   }
 787:c:/Dropbox/AV_SmartWatch/toolchain_v3/src/libstm32f2\stm32f2xx_can.c ****   /* Release FIFO1 */
 788:c:/Dropbox/AV_SmartWatch/toolchain_v3/src/libstm32f2\stm32f2xx_can.c ****   else /* FIFONumber == CAN_FIFO1 */
 789:c:/Dropbox/AV_SmartWatch/toolchain_v3/src/libstm32f2\stm32f2xx_can.c ****   {
 790:c:/Dropbox/AV_SmartWatch/toolchain_v3/src/libstm32f2\stm32f2xx_can.c ****     CANx->RF1R |= CAN_RF1R_RFOM1;
 951              		.loc 1 790 0
 952 0082 0169     		ldr	r1, [r0, #16]
 953              	.LVL51:
 954 0084 41F02002 		orr	r2, r1, #32
 955              	.LVL52:
 956 0088 0261     		str	r2, [r0, #16]
 957 008a 30BD     		pop	{r4, r5, pc}
 958              		.cfi_endproc
 959              	.LFE66:
 961              		.section	.text.CAN_FIFORelease,"ax",%progbits
 962              		.align	1
 963              		.global	CAN_FIFORelease
 964              		.thumb
 965              		.thumb_func
 967              	CAN_FIFORelease:
 968              	.LFB67:
 791:c:/Dropbox/AV_SmartWatch/toolchain_v3/src/libstm32f2\stm32f2xx_can.c ****   }
 792:c:/Dropbox/AV_SmartWatch/toolchain_v3/src/libstm32f2\stm32f2xx_can.c **** }
 793:c:/Dropbox/AV_SmartWatch/toolchain_v3/src/libstm32f2\stm32f2xx_can.c **** 
 794:c:/Dropbox/AV_SmartWatch/toolchain_v3/src/libstm32f2\stm32f2xx_can.c **** /**
 795:c:/Dropbox/AV_SmartWatch/toolchain_v3/src/libstm32f2\stm32f2xx_can.c ****   * @brief  Releases the specified receive FIFO.
 796:c:/Dropbox/AV_SmartWatch/toolchain_v3/src/libstm32f2\stm32f2xx_can.c ****   * @param  CANx: where x can be 1 or 2 to select the CAN peripheral.
 797:c:/Dropbox/AV_SmartWatch/toolchain_v3/src/libstm32f2\stm32f2xx_can.c ****   * @param  FIFONumber: FIFO to release, CAN_FIFO0 or CAN_FIFO1.
 798:c:/Dropbox/AV_SmartWatch/toolchain_v3/src/libstm32f2\stm32f2xx_can.c ****   * @retval None
 799:c:/Dropbox/AV_SmartWatch/toolchain_v3/src/libstm32f2\stm32f2xx_can.c ****   */
 800:c:/Dropbox/AV_SmartWatch/toolchain_v3/src/libstm32f2\stm32f2xx_can.c **** void CAN_FIFORelease(CAN_TypeDef* CANx, uint8_t FIFONumber)
 801:c:/Dropbox/AV_SmartWatch/toolchain_v3/src/libstm32f2\stm32f2xx_can.c **** {
 969              		.loc 1 801 0
 970              		.cfi_startproc
 971              		@ args = 0, pretend = 0, frame = 0
 972              		@ frame_needed = 0, uses_anonymous_args = 0
 973              		@ link register save eliminated.
 974              	.LVL53:
 802:c:/Dropbox/AV_SmartWatch/toolchain_v3/src/libstm32f2\stm32f2xx_can.c ****   /* Check the parameters */
 803:c:/Dropbox/AV_SmartWatch/toolchain_v3/src/libstm32f2\stm32f2xx_can.c ****   assert_param(IS_CAN_ALL_PERIPH(CANx));
 804:c:/Dropbox/AV_SmartWatch/toolchain_v3/src/libstm32f2\stm32f2xx_can.c ****   assert_param(IS_CAN_FIFO(FIFONumber));
 805:c:/Dropbox/AV_SmartWatch/toolchain_v3/src/libstm32f2\stm32f2xx_can.c ****   /* Release FIFO0 */
 806:c:/Dropbox/AV_SmartWatch/toolchain_v3/src/libstm32f2\stm32f2xx_can.c ****   if (FIFONumber == CAN_FIFO0)
 975              		.loc 1 806 0
 976 0000 21B9     		cbnz	r1, .L102
 807:c:/Dropbox/AV_SmartWatch/toolchain_v3/src/libstm32f2\stm32f2xx_can.c ****   {
 808:c:/Dropbox/AV_SmartWatch/toolchain_v3/src/libstm32f2\stm32f2xx_can.c ****     CANx->RF0R |= CAN_RF0R_RFOM0;
 977              		.loc 1 808 0
 978 0002 C268     		ldr	r2, [r0, #12]
 979 0004 42F02003 		orr	r3, r2, #32
 980 0008 C360     		str	r3, [r0, #12]
 981 000a 7047     		bx	lr
 982              	.L102:
 809:c:/Dropbox/AV_SmartWatch/toolchain_v3/src/libstm32f2\stm32f2xx_can.c ****   }
 810:c:/Dropbox/AV_SmartWatch/toolchain_v3/src/libstm32f2\stm32f2xx_can.c ****   /* Release FIFO1 */
 811:c:/Dropbox/AV_SmartWatch/toolchain_v3/src/libstm32f2\stm32f2xx_can.c ****   else /* FIFONumber == CAN_FIFO1 */
 812:c:/Dropbox/AV_SmartWatch/toolchain_v3/src/libstm32f2\stm32f2xx_can.c ****   {
 813:c:/Dropbox/AV_SmartWatch/toolchain_v3/src/libstm32f2\stm32f2xx_can.c ****     CANx->RF1R |= CAN_RF1R_RFOM1;
 983              		.loc 1 813 0
 984 000c 0369     		ldr	r3, [r0, #16]
 985 000e 43F02001 		orr	r1, r3, #32
 986              	.LVL54:
 987 0012 0161     		str	r1, [r0, #16]
 988 0014 7047     		bx	lr
 989              		.cfi_endproc
 990              	.LFE67:
 992              		.section	.text.CAN_MessagePending,"ax",%progbits
 993              		.align	1
 994              		.global	CAN_MessagePending
 995              		.thumb
 996              		.thumb_func
 998              	CAN_MessagePending:
 999              	.LFB68:
 814:c:/Dropbox/AV_SmartWatch/toolchain_v3/src/libstm32f2\stm32f2xx_can.c ****   }
 815:c:/Dropbox/AV_SmartWatch/toolchain_v3/src/libstm32f2\stm32f2xx_can.c **** }
 816:c:/Dropbox/AV_SmartWatch/toolchain_v3/src/libstm32f2\stm32f2xx_can.c **** 
 817:c:/Dropbox/AV_SmartWatch/toolchain_v3/src/libstm32f2\stm32f2xx_can.c **** /**
 818:c:/Dropbox/AV_SmartWatch/toolchain_v3/src/libstm32f2\stm32f2xx_can.c ****   * @brief  Returns the number of pending received messages.
 819:c:/Dropbox/AV_SmartWatch/toolchain_v3/src/libstm32f2\stm32f2xx_can.c ****   * @param  CANx: where x can be 1 or 2 to select the CAN peripheral.
 820:c:/Dropbox/AV_SmartWatch/toolchain_v3/src/libstm32f2\stm32f2xx_can.c ****   * @param  FIFONumber: Receive FIFO number, CAN_FIFO0 or CAN_FIFO1.
 821:c:/Dropbox/AV_SmartWatch/toolchain_v3/src/libstm32f2\stm32f2xx_can.c ****   * @retval NbMessage : which is the number of pending message.
 822:c:/Dropbox/AV_SmartWatch/toolchain_v3/src/libstm32f2\stm32f2xx_can.c ****   */
 823:c:/Dropbox/AV_SmartWatch/toolchain_v3/src/libstm32f2\stm32f2xx_can.c **** uint8_t CAN_MessagePending(CAN_TypeDef* CANx, uint8_t FIFONumber)
 824:c:/Dropbox/AV_SmartWatch/toolchain_v3/src/libstm32f2\stm32f2xx_can.c **** {
 1000              		.loc 1 824 0
 1001              		.cfi_startproc
 1002              		@ args = 0, pretend = 0, frame = 0
 1003              		@ frame_needed = 0, uses_anonymous_args = 0
 1004              		@ link register save eliminated.
 1005              	.LVL55:
 825:c:/Dropbox/AV_SmartWatch/toolchain_v3/src/libstm32f2\stm32f2xx_can.c ****   uint8_t message_pending=0;
 826:c:/Dropbox/AV_SmartWatch/toolchain_v3/src/libstm32f2\stm32f2xx_can.c ****   /* Check the parameters */
 827:c:/Dropbox/AV_SmartWatch/toolchain_v3/src/libstm32f2\stm32f2xx_can.c ****   assert_param(IS_CAN_ALL_PERIPH(CANx));
 828:c:/Dropbox/AV_SmartWatch/toolchain_v3/src/libstm32f2\stm32f2xx_can.c ****   assert_param(IS_CAN_FIFO(FIFONumber));
 829:c:/Dropbox/AV_SmartWatch/toolchain_v3/src/libstm32f2\stm32f2xx_can.c ****   if (FIFONumber == CAN_FIFO0)
 1006              		.loc 1 829 0
 1007 0000 09B9     		cbnz	r1, .L105
 830:c:/Dropbox/AV_SmartWatch/toolchain_v3/src/libstm32f2\stm32f2xx_can.c ****   {
 831:c:/Dropbox/AV_SmartWatch/toolchain_v3/src/libstm32f2\stm32f2xx_can.c ****     message_pending = (uint8_t)(CANx->RF0R&(uint32_t)0x03);
 1008              		.loc 1 831 0
 1009 0002 C068     		ldr	r0, [r0, #12]
 1010              	.LVL56:
 1011 0004 02E0     		b	.L108
 1012              	.LVL57:
 1013              	.L105:
 832:c:/Dropbox/AV_SmartWatch/toolchain_v3/src/libstm32f2\stm32f2xx_can.c ****   }
 833:c:/Dropbox/AV_SmartWatch/toolchain_v3/src/libstm32f2\stm32f2xx_can.c ****   else if (FIFONumber == CAN_FIFO1)
 1014              		.loc 1 833 0
 1015 0006 0129     		cmp	r1, #1
 1016 0008 03D1     		bne	.L107
 834:c:/Dropbox/AV_SmartWatch/toolchain_v3/src/libstm32f2\stm32f2xx_can.c ****   {
 835:c:/Dropbox/AV_SmartWatch/toolchain_v3/src/libstm32f2\stm32f2xx_can.c ****     message_pending = (uint8_t)(CANx->RF1R&(uint32_t)0x03);
 1017              		.loc 1 835 0
 1018 000a 0069     		ldr	r0, [r0, #16]
 1019              	.LVL58:
 1020              	.L108:
 1021 000c 00F00300 		and	r0, r0, #3
 1022              	.LVL59:
 1023 0010 7047     		bx	lr
 1024              	.LVL60:
 1025              	.L107:
 836:c:/Dropbox/AV_SmartWatch/toolchain_v3/src/libstm32f2\stm32f2xx_can.c ****   }
 837:c:/Dropbox/AV_SmartWatch/toolchain_v3/src/libstm32f2\stm32f2xx_can.c ****   else
 838:c:/Dropbox/AV_SmartWatch/toolchain_v3/src/libstm32f2\stm32f2xx_can.c ****   {
 839:c:/Dropbox/AV_SmartWatch/toolchain_v3/src/libstm32f2\stm32f2xx_can.c ****     message_pending = 0;
 1026              		.loc 1 839 0
 1027 0012 0020     		movs	r0, #0
 1028              	.LVL61:
 840:c:/Dropbox/AV_SmartWatch/toolchain_v3/src/libstm32f2\stm32f2xx_can.c ****   }
 841:c:/Dropbox/AV_SmartWatch/toolchain_v3/src/libstm32f2\stm32f2xx_can.c ****   return message_pending;
 842:c:/Dropbox/AV_SmartWatch/toolchain_v3/src/libstm32f2\stm32f2xx_can.c **** }
 1029              		.loc 1 842 0
 1030 0014 7047     		bx	lr
 1031              		.cfi_endproc
 1032              	.LFE68:
 1034              		.section	.text.CAN_OperatingModeRequest,"ax",%progbits
 1035              		.align	1
 1036              		.global	CAN_OperatingModeRequest
 1037              		.thumb
 1038              		.thumb_func
 1040              	CAN_OperatingModeRequest:
 1041              	.LFB69:
 843:c:/Dropbox/AV_SmartWatch/toolchain_v3/src/libstm32f2\stm32f2xx_can.c **** /**
 844:c:/Dropbox/AV_SmartWatch/toolchain_v3/src/libstm32f2\stm32f2xx_can.c ****   * @}
 845:c:/Dropbox/AV_SmartWatch/toolchain_v3/src/libstm32f2\stm32f2xx_can.c ****   */
 846:c:/Dropbox/AV_SmartWatch/toolchain_v3/src/libstm32f2\stm32f2xx_can.c **** 
 847:c:/Dropbox/AV_SmartWatch/toolchain_v3/src/libstm32f2\stm32f2xx_can.c **** 
 848:c:/Dropbox/AV_SmartWatch/toolchain_v3/src/libstm32f2\stm32f2xx_can.c **** /** @defgroup CAN_Group4 CAN Operation modes functions
 849:c:/Dropbox/AV_SmartWatch/toolchain_v3/src/libstm32f2\stm32f2xx_can.c ****  *  @brief    CAN Operation modes functions 
 850:c:/Dropbox/AV_SmartWatch/toolchain_v3/src/libstm32f2\stm32f2xx_can.c ****  *
 851:c:/Dropbox/AV_SmartWatch/toolchain_v3/src/libstm32f2\stm32f2xx_can.c **** @verbatim    
 852:c:/Dropbox/AV_SmartWatch/toolchain_v3/src/libstm32f2\stm32f2xx_can.c ****  ===============================================================================
 853:c:/Dropbox/AV_SmartWatch/toolchain_v3/src/libstm32f2\stm32f2xx_can.c ****                       CAN Operation modes functions
 854:c:/Dropbox/AV_SmartWatch/toolchain_v3/src/libstm32f2\stm32f2xx_can.c ****  ===============================================================================  
 855:c:/Dropbox/AV_SmartWatch/toolchain_v3/src/libstm32f2\stm32f2xx_can.c ****   This section provides functions allowing to select the CAN Operation modes
 856:c:/Dropbox/AV_SmartWatch/toolchain_v3/src/libstm32f2\stm32f2xx_can.c ****   - sleep mode
 857:c:/Dropbox/AV_SmartWatch/toolchain_v3/src/libstm32f2\stm32f2xx_can.c ****   - normal mode 
 858:c:/Dropbox/AV_SmartWatch/toolchain_v3/src/libstm32f2\stm32f2xx_can.c ****   - initialization mode
 859:c:/Dropbox/AV_SmartWatch/toolchain_v3/src/libstm32f2\stm32f2xx_can.c ****    
 860:c:/Dropbox/AV_SmartWatch/toolchain_v3/src/libstm32f2\stm32f2xx_can.c **** @endverbatim
 861:c:/Dropbox/AV_SmartWatch/toolchain_v3/src/libstm32f2\stm32f2xx_can.c ****   * @{
 862:c:/Dropbox/AV_SmartWatch/toolchain_v3/src/libstm32f2\stm32f2xx_can.c ****   */
 863:c:/Dropbox/AV_SmartWatch/toolchain_v3/src/libstm32f2\stm32f2xx_can.c ****   
 864:c:/Dropbox/AV_SmartWatch/toolchain_v3/src/libstm32f2\stm32f2xx_can.c ****   
 865:c:/Dropbox/AV_SmartWatch/toolchain_v3/src/libstm32f2\stm32f2xx_can.c **** /**
 866:c:/Dropbox/AV_SmartWatch/toolchain_v3/src/libstm32f2\stm32f2xx_can.c ****   * @brief  Selects the CAN Operation mode.
 867:c:/Dropbox/AV_SmartWatch/toolchain_v3/src/libstm32f2\stm32f2xx_can.c ****   * @param  CAN_OperatingMode: CAN Operating Mode.
 868:c:/Dropbox/AV_SmartWatch/toolchain_v3/src/libstm32f2\stm32f2xx_can.c ****   *         This parameter can be one of @ref CAN_OperatingMode_TypeDef enumeration.
 869:c:/Dropbox/AV_SmartWatch/toolchain_v3/src/libstm32f2\stm32f2xx_can.c ****   * @retval status of the requested mode which can be 
 870:c:/Dropbox/AV_SmartWatch/toolchain_v3/src/libstm32f2\stm32f2xx_can.c ****   *         - CAN_ModeStatus_Failed:  CAN failed entering the specific mode 
 871:c:/Dropbox/AV_SmartWatch/toolchain_v3/src/libstm32f2\stm32f2xx_can.c ****   *         - CAN_ModeStatus_Success: CAN Succeed entering the specific mode 
 872:c:/Dropbox/AV_SmartWatch/toolchain_v3/src/libstm32f2\stm32f2xx_can.c ****   */
 873:c:/Dropbox/AV_SmartWatch/toolchain_v3/src/libstm32f2\stm32f2xx_can.c **** uint8_t CAN_OperatingModeRequest(CAN_TypeDef* CANx, uint8_t CAN_OperatingMode)
 874:c:/Dropbox/AV_SmartWatch/toolchain_v3/src/libstm32f2\stm32f2xx_can.c **** {
 1042              		.loc 1 874 0
 1043              		.cfi_startproc
 1044              		@ args = 0, pretend = 0, frame = 0
 1045              		@ frame_needed = 0, uses_anonymous_args = 0
 1046              		@ link register save eliminated.
 1047              	.LVL62:
 875:c:/Dropbox/AV_SmartWatch/toolchain_v3/src/libstm32f2\stm32f2xx_can.c ****   uint8_t status = CAN_ModeStatus_Failed;
 876:c:/Dropbox/AV_SmartWatch/toolchain_v3/src/libstm32f2\stm32f2xx_can.c ****   
 877:c:/Dropbox/AV_SmartWatch/toolchain_v3/src/libstm32f2\stm32f2xx_can.c ****   /* Timeout for INAK or also for SLAK bits*/
 878:c:/Dropbox/AV_SmartWatch/toolchain_v3/src/libstm32f2\stm32f2xx_can.c ****   uint32_t timeout = INAK_TIMEOUT; 
 879:c:/Dropbox/AV_SmartWatch/toolchain_v3/src/libstm32f2\stm32f2xx_can.c **** 
 880:c:/Dropbox/AV_SmartWatch/toolchain_v3/src/libstm32f2\stm32f2xx_can.c ****   /* Check the parameters */
 881:c:/Dropbox/AV_SmartWatch/toolchain_v3/src/libstm32f2\stm32f2xx_can.c ****   assert_param(IS_CAN_ALL_PERIPH(CANx));
 882:c:/Dropbox/AV_SmartWatch/toolchain_v3/src/libstm32f2\stm32f2xx_can.c ****   assert_param(IS_CAN_OPERATING_MODE(CAN_OperatingMode));
 883:c:/Dropbox/AV_SmartWatch/toolchain_v3/src/libstm32f2\stm32f2xx_can.c **** 
 884:c:/Dropbox/AV_SmartWatch/toolchain_v3/src/libstm32f2\stm32f2xx_can.c ****   if (CAN_OperatingMode == CAN_OperatingMode_Initialization)
 1048              		.loc 1 884 0
 1049 0000 99B9     		cbnz	r1, .L110
 885:c:/Dropbox/AV_SmartWatch/toolchain_v3/src/libstm32f2\stm32f2xx_can.c ****   {
 886:c:/Dropbox/AV_SmartWatch/toolchain_v3/src/libstm32f2\stm32f2xx_can.c ****     /* Request initialisation */
 887:c:/Dropbox/AV_SmartWatch/toolchain_v3/src/libstm32f2\stm32f2xx_can.c ****     CANx->MCR = (uint32_t)((CANx->MCR & (uint32_t)(~(uint32_t)CAN_MCR_SLEEP)) | CAN_MCR_INRQ);
 1050              		.loc 1 887 0
 1051 0002 0268     		ldr	r2, [r0, #0]
 1052 0004 22F00301 		bic	r1, r2, #3
 1053              	.LVL63:
 1054 0008 41F00103 		orr	r3, r1, #1
 1055 000c 0360     		str	r3, [r0, #0]
 888:c:/Dropbox/AV_SmartWatch/toolchain_v3/src/libstm32f2\stm32f2xx_can.c **** 
 889:c:/Dropbox/AV_SmartWatch/toolchain_v3/src/libstm32f2\stm32f2xx_can.c ****     /* Wait the acknowledge */
 890:c:/Dropbox/AV_SmartWatch/toolchain_v3/src/libstm32f2\stm32f2xx_can.c ****     while (((CANx->MSR & CAN_MODE_MASK) != CAN_MSR_INAK) && (timeout != 0))
 1056              		.loc 1 890 0
 1057 000e 4FF48033 		mov	r3, #65536
 1058              	.LVL64:
 1059              	.L112:
 1060              		.loc 1 890 0 is_stmt 0 discriminator 1
 1061 0012 4268     		ldr	r2, [r0, #4]
 1062 0014 02F00301 		and	r1, r2, #3
 1063 0018 0129     		cmp	r1, #1
 1064 001a 01D0     		beq	.L111
 1065              		.loc 1 890 0 discriminator 2
 1066 001c 013B     		subs	r3, r3, #1
 1067 001e F8D1     		bne	.L112
 1068              	.L111:
 891:c:/Dropbox/AV_SmartWatch/toolchain_v3/src/libstm32f2\stm32f2xx_can.c ****     {
 892:c:/Dropbox/AV_SmartWatch/toolchain_v3/src/libstm32f2\stm32f2xx_can.c ****       timeout--;
 893:c:/Dropbox/AV_SmartWatch/toolchain_v3/src/libstm32f2\stm32f2xx_can.c ****     }
 894:c:/Dropbox/AV_SmartWatch/toolchain_v3/src/libstm32f2\stm32f2xx_can.c ****     if ((CANx->MSR & CAN_MODE_MASK) != CAN_MSR_INAK)
 1069              		.loc 1 894 0 is_stmt 1
 1070 0020 4068     		ldr	r0, [r0, #4]
 1071              	.LVL65:
 1072 0022 00F00300 		and	r0, r0, #3
 895:c:/Dropbox/AV_SmartWatch/toolchain_v3/src/libstm32f2\stm32f2xx_can.c ****     {
 896:c:/Dropbox/AV_SmartWatch/toolchain_v3/src/libstm32f2\stm32f2xx_can.c ****       status = CAN_ModeStatus_Failed;
 897:c:/Dropbox/AV_SmartWatch/toolchain_v3/src/libstm32f2\stm32f2xx_can.c ****     }
 898:c:/Dropbox/AV_SmartWatch/toolchain_v3/src/libstm32f2\stm32f2xx_can.c ****     else
 899:c:/Dropbox/AV_SmartWatch/toolchain_v3/src/libstm32f2\stm32f2xx_can.c ****     {
 900:c:/Dropbox/AV_SmartWatch/toolchain_v3/src/libstm32f2\stm32f2xx_can.c ****       status = CAN_ModeStatus_Success;
 1073              		.loc 1 900 0
 1074 0026 0128     		cmp	r0, #1
 1075 0028 28E0     		b	.L132
 1076              	.LVL66:
 1077              	.L110:
 901:c:/Dropbox/AV_SmartWatch/toolchain_v3/src/libstm32f2\stm32f2xx_can.c ****     }
 902:c:/Dropbox/AV_SmartWatch/toolchain_v3/src/libstm32f2\stm32f2xx_can.c ****   }
 903:c:/Dropbox/AV_SmartWatch/toolchain_v3/src/libstm32f2\stm32f2xx_can.c ****   else  if (CAN_OperatingMode == CAN_OperatingMode_Normal)
 1078              		.loc 1 903 0
 1079 002a 0129     		cmp	r1, #1
 1080 002c 11D1     		bne	.L114
 904:c:/Dropbox/AV_SmartWatch/toolchain_v3/src/libstm32f2\stm32f2xx_can.c ****   {
 905:c:/Dropbox/AV_SmartWatch/toolchain_v3/src/libstm32f2\stm32f2xx_can.c ****     /* Request leave initialisation and sleep mode  and enter Normal mode */
 906:c:/Dropbox/AV_SmartWatch/toolchain_v3/src/libstm32f2\stm32f2xx_can.c ****     CANx->MCR &= (uint32_t)(~(CAN_MCR_SLEEP|CAN_MCR_INRQ));
 1081              		.loc 1 906 0
 1082 002e 0168     		ldr	r1, [r0, #0]
 1083              	.LVL67:
 907:c:/Dropbox/AV_SmartWatch/toolchain_v3/src/libstm32f2\stm32f2xx_can.c **** 
 908:c:/Dropbox/AV_SmartWatch/toolchain_v3/src/libstm32f2\stm32f2xx_can.c ****     /* Wait the acknowledge */
 909:c:/Dropbox/AV_SmartWatch/toolchain_v3/src/libstm32f2\stm32f2xx_can.c ****     while (((CANx->MSR & CAN_MODE_MASK) != 0) && (timeout!=0))
 1084              		.loc 1 909 0
 1085 0030 4FF48033 		mov	r3, #65536
 906:c:/Dropbox/AV_SmartWatch/toolchain_v3/src/libstm32f2\stm32f2xx_can.c ****     CANx->MCR &= (uint32_t)(~(CAN_MCR_SLEEP|CAN_MCR_INRQ));
 1086              		.loc 1 906 0
 1087 0034 21F00302 		bic	r2, r1, #3
 1088 0038 0260     		str	r2, [r0, #0]
 1089              	.LVL68:
 1090              	.L116:
 1091              		.loc 1 909 0 discriminator 1
 1092 003a 4168     		ldr	r1, [r0, #4]
 1093 003c 8A07     		lsls	r2, r1, #30
 1094 003e 01D0     		beq	.L115
 1095              		.loc 1 909 0 is_stmt 0 discriminator 2
 1096 0040 013B     		subs	r3, r3, #1
 1097 0042 FAD1     		bne	.L116
 1098              	.L115:
 910:c:/Dropbox/AV_SmartWatch/toolchain_v3/src/libstm32f2\stm32f2xx_can.c ****     {
 911:c:/Dropbox/AV_SmartWatch/toolchain_v3/src/libstm32f2\stm32f2xx_can.c ****       timeout--;
 912:c:/Dropbox/AV_SmartWatch/toolchain_v3/src/libstm32f2\stm32f2xx_can.c ****     }
 913:c:/Dropbox/AV_SmartWatch/toolchain_v3/src/libstm32f2\stm32f2xx_can.c ****     if ((CANx->MSR & CAN_MODE_MASK) != 0)
 1099              		.loc 1 913 0 is_stmt 1
 1100 0044 4068     		ldr	r0, [r0, #4]
 1101              	.LVL69:
 1102 0046 10F0030F 		tst	r0, #3
 900:c:/Dropbox/AV_SmartWatch/toolchain_v3/src/libstm32f2\stm32f2xx_can.c ****       status = CAN_ModeStatus_Success;
 1103              		.loc 1 900 0
 1104 004a 14BF     		ite	ne
 1105 004c 0020     		movne	r0, #0
 1106 004e 0120     		moveq	r0, #1
 1107 0050 7047     		bx	lr
 1108              	.LVL70:
 1109              	.L114:
 914:c:/Dropbox/AV_SmartWatch/toolchain_v3/src/libstm32f2\stm32f2xx_can.c ****     {
 915:c:/Dropbox/AV_SmartWatch/toolchain_v3/src/libstm32f2\stm32f2xx_can.c ****       status = CAN_ModeStatus_Failed;
 916:c:/Dropbox/AV_SmartWatch/toolchain_v3/src/libstm32f2\stm32f2xx_can.c ****     }
 917:c:/Dropbox/AV_SmartWatch/toolchain_v3/src/libstm32f2\stm32f2xx_can.c ****     else
 918:c:/Dropbox/AV_SmartWatch/toolchain_v3/src/libstm32f2\stm32f2xx_can.c ****     {
 919:c:/Dropbox/AV_SmartWatch/toolchain_v3/src/libstm32f2\stm32f2xx_can.c ****       status = CAN_ModeStatus_Success;
 920:c:/Dropbox/AV_SmartWatch/toolchain_v3/src/libstm32f2\stm32f2xx_can.c ****     }
 921:c:/Dropbox/AV_SmartWatch/toolchain_v3/src/libstm32f2\stm32f2xx_can.c ****   }
 922:c:/Dropbox/AV_SmartWatch/toolchain_v3/src/libstm32f2\stm32f2xx_can.c ****   else  if (CAN_OperatingMode == CAN_OperatingMode_Sleep)
 1110              		.loc 1 922 0
 1111 0052 0229     		cmp	r1, #2
 1112 0054 16D1     		bne	.L119
 923:c:/Dropbox/AV_SmartWatch/toolchain_v3/src/libstm32f2\stm32f2xx_can.c ****   {
 924:c:/Dropbox/AV_SmartWatch/toolchain_v3/src/libstm32f2\stm32f2xx_can.c ****     /* Request Sleep mode */
 925:c:/Dropbox/AV_SmartWatch/toolchain_v3/src/libstm32f2\stm32f2xx_can.c ****     CANx->MCR = (uint32_t)((CANx->MCR & (uint32_t)(~(uint32_t)CAN_MCR_INRQ)) | CAN_MCR_SLEEP);
 1113              		.loc 1 925 0
 1114 0056 0368     		ldr	r3, [r0, #0]
 1115 0058 23F00301 		bic	r1, r3, #3
 1116              	.LVL71:
 1117 005c 41F00202 		orr	r2, r1, #2
 1118 0060 0260     		str	r2, [r0, #0]
 926:c:/Dropbox/AV_SmartWatch/toolchain_v3/src/libstm32f2\stm32f2xx_can.c **** 
 927:c:/Dropbox/AV_SmartWatch/toolchain_v3/src/libstm32f2\stm32f2xx_can.c ****     /* Wait the acknowledge */
 928:c:/Dropbox/AV_SmartWatch/toolchain_v3/src/libstm32f2\stm32f2xx_can.c ****     while (((CANx->MSR & CAN_MODE_MASK) != CAN_MSR_SLAK) && (timeout!=0))
 1119              		.loc 1 928 0
 1120 0062 4FF48033 		mov	r3, #65536
 1121              	.LVL72:
 1122              	.L118:
 1123              		.loc 1 928 0 is_stmt 0 discriminator 1
 1124 0066 4168     		ldr	r1, [r0, #4]
 1125 0068 01F00302 		and	r2, r1, #3
 1126 006c 022A     		cmp	r2, #2
 1127 006e 01D0     		beq	.L117
 1128              		.loc 1 928 0 discriminator 2
 1129 0070 013B     		subs	r3, r3, #1
 1130 0072 F8D1     		bne	.L118
 1131              	.L117:
 929:c:/Dropbox/AV_SmartWatch/toolchain_v3/src/libstm32f2\stm32f2xx_can.c ****     {
 930:c:/Dropbox/AV_SmartWatch/toolchain_v3/src/libstm32f2\stm32f2xx_can.c ****       timeout--;
 931:c:/Dropbox/AV_SmartWatch/toolchain_v3/src/libstm32f2\stm32f2xx_can.c ****     }
 932:c:/Dropbox/AV_SmartWatch/toolchain_v3/src/libstm32f2\stm32f2xx_can.c ****     if ((CANx->MSR & CAN_MODE_MASK) != CAN_MSR_SLAK)
 1132              		.loc 1 932 0 is_stmt 1
 1133 0074 4068     		ldr	r0, [r0, #4]
 1134              	.LVL73:
 1135 0076 00F00300 		and	r0, r0, #3
 900:c:/Dropbox/AV_SmartWatch/toolchain_v3/src/libstm32f2\stm32f2xx_can.c ****       status = CAN_ModeStatus_Success;
 1136              		.loc 1 900 0
 1137 007a 0228     		cmp	r0, #2
 1138              	.L132:
 1139 007c 14BF     		ite	ne
 1140 007e 0020     		movne	r0, #0
 1141 0080 0120     		moveq	r0, #1
 1142 0082 7047     		bx	lr
 1143              	.LVL74:
 1144              	.L119:
 933:c:/Dropbox/AV_SmartWatch/toolchain_v3/src/libstm32f2\stm32f2xx_can.c ****     {
 934:c:/Dropbox/AV_SmartWatch/toolchain_v3/src/libstm32f2\stm32f2xx_can.c ****       status = CAN_ModeStatus_Failed;
 935:c:/Dropbox/AV_SmartWatch/toolchain_v3/src/libstm32f2\stm32f2xx_can.c ****     }
 936:c:/Dropbox/AV_SmartWatch/toolchain_v3/src/libstm32f2\stm32f2xx_can.c ****     else
 937:c:/Dropbox/AV_SmartWatch/toolchain_v3/src/libstm32f2\stm32f2xx_can.c ****     {
 938:c:/Dropbox/AV_SmartWatch/toolchain_v3/src/libstm32f2\stm32f2xx_can.c ****       status = CAN_ModeStatus_Success;
 939:c:/Dropbox/AV_SmartWatch/toolchain_v3/src/libstm32f2\stm32f2xx_can.c ****     }
 940:c:/Dropbox/AV_SmartWatch/toolchain_v3/src/libstm32f2\stm32f2xx_can.c ****   }
 941:c:/Dropbox/AV_SmartWatch/toolchain_v3/src/libstm32f2\stm32f2xx_can.c ****   else
 942:c:/Dropbox/AV_SmartWatch/toolchain_v3/src/libstm32f2\stm32f2xx_can.c ****   {
 943:c:/Dropbox/AV_SmartWatch/toolchain_v3/src/libstm32f2\stm32f2xx_can.c ****     status = CAN_ModeStatus_Failed;
 1145              		.loc 1 943 0
 1146 0084 0020     		movs	r0, #0
 1147              	.LVL75:
 944:c:/Dropbox/AV_SmartWatch/toolchain_v3/src/libstm32f2\stm32f2xx_can.c ****   }
 945:c:/Dropbox/AV_SmartWatch/toolchain_v3/src/libstm32f2\stm32f2xx_can.c **** 
 946:c:/Dropbox/AV_SmartWatch/toolchain_v3/src/libstm32f2\stm32f2xx_can.c ****   return  (uint8_t) status;
 947:c:/Dropbox/AV_SmartWatch/toolchain_v3/src/libstm32f2\stm32f2xx_can.c **** }
 1148              		.loc 1 947 0
 1149 0086 7047     		bx	lr
 1150              		.cfi_endproc
 1151              	.LFE69:
 1153              		.section	.text.CAN_Sleep,"ax",%progbits
 1154              		.align	1
 1155              		.global	CAN_Sleep
 1156              		.thumb
 1157              		.thumb_func
 1159              	CAN_Sleep:
 1160              	.LFB70:
 948:c:/Dropbox/AV_SmartWatch/toolchain_v3/src/libstm32f2\stm32f2xx_can.c **** 
 949:c:/Dropbox/AV_SmartWatch/toolchain_v3/src/libstm32f2\stm32f2xx_can.c **** /**
 950:c:/Dropbox/AV_SmartWatch/toolchain_v3/src/libstm32f2\stm32f2xx_can.c ****   * @brief  Enters the Sleep (low power) mode.
 951:c:/Dropbox/AV_SmartWatch/toolchain_v3/src/libstm32f2\stm32f2xx_can.c ****   * @param  CANx: where x can be 1 or 2 to select the CAN peripheral.
 952:c:/Dropbox/AV_SmartWatch/toolchain_v3/src/libstm32f2\stm32f2xx_can.c ****   * @retval CAN_Sleep_Ok if sleep entered, CAN_Sleep_Failed otherwise.
 953:c:/Dropbox/AV_SmartWatch/toolchain_v3/src/libstm32f2\stm32f2xx_can.c ****   */
 954:c:/Dropbox/AV_SmartWatch/toolchain_v3/src/libstm32f2\stm32f2xx_can.c **** uint8_t CAN_Sleep(CAN_TypeDef* CANx)
 955:c:/Dropbox/AV_SmartWatch/toolchain_v3/src/libstm32f2\stm32f2xx_can.c **** {
 1161              		.loc 1 955 0
 1162              		.cfi_startproc
 1163              		@ args = 0, pretend = 0, frame = 0
 1164              		@ frame_needed = 0, uses_anonymous_args = 0
 1165              		@ link register save eliminated.
 1166              	.LVL76:
 956:c:/Dropbox/AV_SmartWatch/toolchain_v3/src/libstm32f2\stm32f2xx_can.c ****   uint8_t sleepstatus = CAN_Sleep_Failed;
 957:c:/Dropbox/AV_SmartWatch/toolchain_v3/src/libstm32f2\stm32f2xx_can.c ****   
 958:c:/Dropbox/AV_SmartWatch/toolchain_v3/src/libstm32f2\stm32f2xx_can.c ****   /* Check the parameters */
 959:c:/Dropbox/AV_SmartWatch/toolchain_v3/src/libstm32f2\stm32f2xx_can.c ****   assert_param(IS_CAN_ALL_PERIPH(CANx));
 960:c:/Dropbox/AV_SmartWatch/toolchain_v3/src/libstm32f2\stm32f2xx_can.c ****     
 961:c:/Dropbox/AV_SmartWatch/toolchain_v3/src/libstm32f2\stm32f2xx_can.c ****   /* Request Sleep mode */
 962:c:/Dropbox/AV_SmartWatch/toolchain_v3/src/libstm32f2\stm32f2xx_can.c ****    CANx->MCR = (((CANx->MCR) & (uint32_t)(~(uint32_t)CAN_MCR_INRQ)) | CAN_MCR_SLEEP);
 1167              		.loc 1 962 0
 1168 0000 0368     		ldr	r3, [r0, #0]
 1169 0002 23F00301 		bic	r1, r3, #3
 1170 0006 41F00202 		orr	r2, r1, #2
 1171 000a 0260     		str	r2, [r0, #0]
 963:c:/Dropbox/AV_SmartWatch/toolchain_v3/src/libstm32f2\stm32f2xx_can.c ****    
 964:c:/Dropbox/AV_SmartWatch/toolchain_v3/src/libstm32f2\stm32f2xx_can.c ****   /* Sleep mode status */
 965:c:/Dropbox/AV_SmartWatch/toolchain_v3/src/libstm32f2\stm32f2xx_can.c ****   if ((CANx->MSR & (CAN_MSR_SLAK|CAN_MSR_INAK)) == CAN_MSR_SLAK)
 1172              		.loc 1 965 0
 1173 000c 4068     		ldr	r0, [r0, #4]
 1174              	.LVL77:
 1175 000e 00F00303 		and	r3, r0, #3
 966:c:/Dropbox/AV_SmartWatch/toolchain_v3/src/libstm32f2\stm32f2xx_can.c ****   {
 967:c:/Dropbox/AV_SmartWatch/toolchain_v3/src/libstm32f2\stm32f2xx_can.c ****     /* Sleep mode not entered */
 968:c:/Dropbox/AV_SmartWatch/toolchain_v3/src/libstm32f2\stm32f2xx_can.c ****     sleepstatus =  CAN_Sleep_Ok;
 969:c:/Dropbox/AV_SmartWatch/toolchain_v3/src/libstm32f2\stm32f2xx_can.c ****   }
 970:c:/Dropbox/AV_SmartWatch/toolchain_v3/src/libstm32f2\stm32f2xx_can.c ****   /* return sleep mode status */
 971:c:/Dropbox/AV_SmartWatch/toolchain_v3/src/libstm32f2\stm32f2xx_can.c ****    return (uint8_t)sleepstatus;
 972:c:/Dropbox/AV_SmartWatch/toolchain_v3/src/libstm32f2\stm32f2xx_can.c **** }
 1176              		.loc 1 972 0
 1177 0012 991E     		subs	r1, r3, #2
 1178 0014 4A42     		rsbs	r2, r1, #0
 1179 0016 52EB0100 		adcs	r0, r2, r1
 1180              	.LVL78:
 1181 001a 7047     		bx	lr
 1182              		.cfi_endproc
 1183              	.LFE70:
 1185              		.section	.text.CAN_WakeUp,"ax",%progbits
 1186              		.align	1
 1187              		.global	CAN_WakeUp
 1188              		.thumb
 1189              		.thumb_func
 1191              	CAN_WakeUp:
 1192              	.LFB71:
 973:c:/Dropbox/AV_SmartWatch/toolchain_v3/src/libstm32f2\stm32f2xx_can.c **** 
 974:c:/Dropbox/AV_SmartWatch/toolchain_v3/src/libstm32f2\stm32f2xx_can.c **** /**
 975:c:/Dropbox/AV_SmartWatch/toolchain_v3/src/libstm32f2\stm32f2xx_can.c ****   * @brief  Wakes up the CAN peripheral from sleep mode .
 976:c:/Dropbox/AV_SmartWatch/toolchain_v3/src/libstm32f2\stm32f2xx_can.c ****   * @param  CANx: where x can be 1 or 2 to select the CAN peripheral.
 977:c:/Dropbox/AV_SmartWatch/toolchain_v3/src/libstm32f2\stm32f2xx_can.c ****   * @retval CAN_WakeUp_Ok if sleep mode left, CAN_WakeUp_Failed otherwise.
 978:c:/Dropbox/AV_SmartWatch/toolchain_v3/src/libstm32f2\stm32f2xx_can.c ****   */
 979:c:/Dropbox/AV_SmartWatch/toolchain_v3/src/libstm32f2\stm32f2xx_can.c **** uint8_t CAN_WakeUp(CAN_TypeDef* CANx)
 980:c:/Dropbox/AV_SmartWatch/toolchain_v3/src/libstm32f2\stm32f2xx_can.c **** {
 1193              		.loc 1 980 0
 1194              		.cfi_startproc
 1195              		@ args = 0, pretend = 0, frame = 0
 1196              		@ frame_needed = 0, uses_anonymous_args = 0
 1197              		@ link register save eliminated.
 1198              	.LVL79:
 981:c:/Dropbox/AV_SmartWatch/toolchain_v3/src/libstm32f2\stm32f2xx_can.c ****   uint32_t wait_slak = SLAK_TIMEOUT;
 982:c:/Dropbox/AV_SmartWatch/toolchain_v3/src/libstm32f2\stm32f2xx_can.c ****   uint8_t wakeupstatus = CAN_WakeUp_Failed;
 983:c:/Dropbox/AV_SmartWatch/toolchain_v3/src/libstm32f2\stm32f2xx_can.c ****   
 984:c:/Dropbox/AV_SmartWatch/toolchain_v3/src/libstm32f2\stm32f2xx_can.c ****   /* Check the parameters */
 985:c:/Dropbox/AV_SmartWatch/toolchain_v3/src/libstm32f2\stm32f2xx_can.c ****   assert_param(IS_CAN_ALL_PERIPH(CANx));
 986:c:/Dropbox/AV_SmartWatch/toolchain_v3/src/libstm32f2\stm32f2xx_can.c ****     
 987:c:/Dropbox/AV_SmartWatch/toolchain_v3/src/libstm32f2\stm32f2xx_can.c ****   /* Wake up request */
 988:c:/Dropbox/AV_SmartWatch/toolchain_v3/src/libstm32f2\stm32f2xx_can.c ****   CANx->MCR &= ~(uint32_t)CAN_MCR_SLEEP;
 1199              		.loc 1 988 0
 1200 0000 0368     		ldr	r3, [r0, #0]
 1201 0002 23F00201 		bic	r1, r3, #2
 1202 0006 0160     		str	r1, [r0, #0]
 989:c:/Dropbox/AV_SmartWatch/toolchain_v3/src/libstm32f2\stm32f2xx_can.c ****     
 990:c:/Dropbox/AV_SmartWatch/toolchain_v3/src/libstm32f2\stm32f2xx_can.c ****   /* Sleep mode status */
 991:c:/Dropbox/AV_SmartWatch/toolchain_v3/src/libstm32f2\stm32f2xx_can.c ****   while(((CANx->MSR & CAN_MSR_SLAK) == CAN_MSR_SLAK)&&(wait_slak!=0x00))
 1203              		.loc 1 991 0
 1204 0008 4FF48033 		mov	r3, #65536
 1205              	.LVL80:
 1206              	.L136:
 1207              		.loc 1 991 0 is_stmt 0 discriminator 1
 1208 000c 4268     		ldr	r2, [r0, #4]
 1209 000e 9207     		lsls	r2, r2, #30
 1210 0010 01D5     		bpl	.L135
 1211              		.loc 1 991 0 discriminator 2
 1212 0012 013B     		subs	r3, r3, #1
 1213 0014 FAD1     		bne	.L136
 1214              	.L135:
 992:c:/Dropbox/AV_SmartWatch/toolchain_v3/src/libstm32f2\stm32f2xx_can.c ****   {
 993:c:/Dropbox/AV_SmartWatch/toolchain_v3/src/libstm32f2\stm32f2xx_can.c ****    wait_slak--;
 994:c:/Dropbox/AV_SmartWatch/toolchain_v3/src/libstm32f2\stm32f2xx_can.c ****   }
 995:c:/Dropbox/AV_SmartWatch/toolchain_v3/src/libstm32f2\stm32f2xx_can.c ****   if((CANx->MSR & CAN_MSR_SLAK) != CAN_MSR_SLAK)
 1215              		.loc 1 995 0 is_stmt 1
 1216 0016 4068     		ldr	r0, [r0, #4]
 1217              	.LVL81:
 1218 0018 80F00201 		eor	r1, r0, #2
 996:c:/Dropbox/AV_SmartWatch/toolchain_v3/src/libstm32f2\stm32f2xx_can.c ****   {
 997:c:/Dropbox/AV_SmartWatch/toolchain_v3/src/libstm32f2\stm32f2xx_can.c ****    /* wake up done : Sleep mode exited */
 998:c:/Dropbox/AV_SmartWatch/toolchain_v3/src/libstm32f2\stm32f2xx_can.c ****     wakeupstatus = CAN_WakeUp_Ok;
 999:c:/Dropbox/AV_SmartWatch/toolchain_v3/src/libstm32f2\stm32f2xx_can.c ****   }
1000:c:/Dropbox/AV_SmartWatch/toolchain_v3/src/libstm32f2\stm32f2xx_can.c ****   /* return wakeup status */
1001:c:/Dropbox/AV_SmartWatch/toolchain_v3/src/libstm32f2\stm32f2xx_can.c ****   return (uint8_t)wakeupstatus;
1002:c:/Dropbox/AV_SmartWatch/toolchain_v3/src/libstm32f2\stm32f2xx_can.c **** }
 1219              		.loc 1 1002 0
 1220 001c C1F34000 		ubfx	r0, r1, #1, #1
 1221              	.LVL82:
 1222 0020 7047     		bx	lr
 1223              		.cfi_endproc
 1224              	.LFE71:
 1226              		.section	.text.CAN_GetLastErrorCode,"ax",%progbits
 1227              		.align	1
 1228              		.global	CAN_GetLastErrorCode
 1229              		.thumb
 1230              		.thumb_func
 1232              	CAN_GetLastErrorCode:
 1233              	.LFB72:
1003:c:/Dropbox/AV_SmartWatch/toolchain_v3/src/libstm32f2\stm32f2xx_can.c **** /**
1004:c:/Dropbox/AV_SmartWatch/toolchain_v3/src/libstm32f2\stm32f2xx_can.c ****   * @}
1005:c:/Dropbox/AV_SmartWatch/toolchain_v3/src/libstm32f2\stm32f2xx_can.c ****   */
1006:c:/Dropbox/AV_SmartWatch/toolchain_v3/src/libstm32f2\stm32f2xx_can.c **** 
1007:c:/Dropbox/AV_SmartWatch/toolchain_v3/src/libstm32f2\stm32f2xx_can.c **** 
1008:c:/Dropbox/AV_SmartWatch/toolchain_v3/src/libstm32f2\stm32f2xx_can.c **** /** @defgroup CAN_Group5 CAN Bus Error management functions
1009:c:/Dropbox/AV_SmartWatch/toolchain_v3/src/libstm32f2\stm32f2xx_can.c ****  *  @brief    CAN Bus Error management functions 
1010:c:/Dropbox/AV_SmartWatch/toolchain_v3/src/libstm32f2\stm32f2xx_can.c ****  *
1011:c:/Dropbox/AV_SmartWatch/toolchain_v3/src/libstm32f2\stm32f2xx_can.c **** @verbatim    
1012:c:/Dropbox/AV_SmartWatch/toolchain_v3/src/libstm32f2\stm32f2xx_can.c ****  ===============================================================================
1013:c:/Dropbox/AV_SmartWatch/toolchain_v3/src/libstm32f2\stm32f2xx_can.c ****                       CAN Bus Error management functions
1014:c:/Dropbox/AV_SmartWatch/toolchain_v3/src/libstm32f2\stm32f2xx_can.c ****  ===============================================================================  
1015:c:/Dropbox/AV_SmartWatch/toolchain_v3/src/libstm32f2\stm32f2xx_can.c ****   This section provides functions allowing to 
1016:c:/Dropbox/AV_SmartWatch/toolchain_v3/src/libstm32f2\stm32f2xx_can.c ****    -  Return the CANx's last error code (LEC)
1017:c:/Dropbox/AV_SmartWatch/toolchain_v3/src/libstm32f2\stm32f2xx_can.c ****    -  Return the CANx Receive Error Counter (REC)
1018:c:/Dropbox/AV_SmartWatch/toolchain_v3/src/libstm32f2\stm32f2xx_can.c ****    -  Return the LSB of the 9-bit CANx Transmit Error Counter(TEC).
1019:c:/Dropbox/AV_SmartWatch/toolchain_v3/src/libstm32f2\stm32f2xx_can.c ****    
1020:c:/Dropbox/AV_SmartWatch/toolchain_v3/src/libstm32f2\stm32f2xx_can.c ****    @note If TEC is greater than 255, The CAN is in bus-off state.
1021:c:/Dropbox/AV_SmartWatch/toolchain_v3/src/libstm32f2\stm32f2xx_can.c ****    @note if REC or TEC are greater than 96, an Error warning flag occurs.
1022:c:/Dropbox/AV_SmartWatch/toolchain_v3/src/libstm32f2\stm32f2xx_can.c ****    @note if REC or TEC are greater than 127, an Error Passive Flag occurs.
1023:c:/Dropbox/AV_SmartWatch/toolchain_v3/src/libstm32f2\stm32f2xx_can.c ****                         
1024:c:/Dropbox/AV_SmartWatch/toolchain_v3/src/libstm32f2\stm32f2xx_can.c **** @endverbatim
1025:c:/Dropbox/AV_SmartWatch/toolchain_v3/src/libstm32f2\stm32f2xx_can.c ****   * @{
1026:c:/Dropbox/AV_SmartWatch/toolchain_v3/src/libstm32f2\stm32f2xx_can.c ****   */
1027:c:/Dropbox/AV_SmartWatch/toolchain_v3/src/libstm32f2\stm32f2xx_can.c ****   
1028:c:/Dropbox/AV_SmartWatch/toolchain_v3/src/libstm32f2\stm32f2xx_can.c **** /**
1029:c:/Dropbox/AV_SmartWatch/toolchain_v3/src/libstm32f2\stm32f2xx_can.c ****   * @brief  Returns the CANx's last error code (LEC).
1030:c:/Dropbox/AV_SmartWatch/toolchain_v3/src/libstm32f2\stm32f2xx_can.c ****   * @param  CANx: where x can be 1 or 2 to select the CAN peripheral.
1031:c:/Dropbox/AV_SmartWatch/toolchain_v3/src/libstm32f2\stm32f2xx_can.c ****   * @retval Error code: 
1032:c:/Dropbox/AV_SmartWatch/toolchain_v3/src/libstm32f2\stm32f2xx_can.c ****   *          - CAN_ERRORCODE_NoErr: No Error  
1033:c:/Dropbox/AV_SmartWatch/toolchain_v3/src/libstm32f2\stm32f2xx_can.c ****   *          - CAN_ERRORCODE_StuffErr: Stuff Error
1034:c:/Dropbox/AV_SmartWatch/toolchain_v3/src/libstm32f2\stm32f2xx_can.c ****   *          - CAN_ERRORCODE_FormErr: Form Error
1035:c:/Dropbox/AV_SmartWatch/toolchain_v3/src/libstm32f2\stm32f2xx_can.c ****   *          - CAN_ERRORCODE_ACKErr : Acknowledgment Error
1036:c:/Dropbox/AV_SmartWatch/toolchain_v3/src/libstm32f2\stm32f2xx_can.c ****   *          - CAN_ERRORCODE_BitRecessiveErr: Bit Recessive Error
1037:c:/Dropbox/AV_SmartWatch/toolchain_v3/src/libstm32f2\stm32f2xx_can.c ****   *          - CAN_ERRORCODE_BitDominantErr: Bit Dominant Error
1038:c:/Dropbox/AV_SmartWatch/toolchain_v3/src/libstm32f2\stm32f2xx_can.c ****   *          - CAN_ERRORCODE_CRCErr: CRC Error
1039:c:/Dropbox/AV_SmartWatch/toolchain_v3/src/libstm32f2\stm32f2xx_can.c ****   *          - CAN_ERRORCODE_SoftwareSetErr: Software Set Error  
1040:c:/Dropbox/AV_SmartWatch/toolchain_v3/src/libstm32f2\stm32f2xx_can.c ****   */
1041:c:/Dropbox/AV_SmartWatch/toolchain_v3/src/libstm32f2\stm32f2xx_can.c **** uint8_t CAN_GetLastErrorCode(CAN_TypeDef* CANx)
1042:c:/Dropbox/AV_SmartWatch/toolchain_v3/src/libstm32f2\stm32f2xx_can.c **** {
 1234              		.loc 1 1042 0
 1235              		.cfi_startproc
 1236              		@ args = 0, pretend = 0, frame = 0
 1237              		@ frame_needed = 0, uses_anonymous_args = 0
 1238              		@ link register save eliminated.
 1239              	.LVL83:
1043:c:/Dropbox/AV_SmartWatch/toolchain_v3/src/libstm32f2\stm32f2xx_can.c ****   uint8_t errorcode=0;
1044:c:/Dropbox/AV_SmartWatch/toolchain_v3/src/libstm32f2\stm32f2xx_can.c ****   
1045:c:/Dropbox/AV_SmartWatch/toolchain_v3/src/libstm32f2\stm32f2xx_can.c ****   /* Check the parameters */
1046:c:/Dropbox/AV_SmartWatch/toolchain_v3/src/libstm32f2\stm32f2xx_can.c ****   assert_param(IS_CAN_ALL_PERIPH(CANx));
1047:c:/Dropbox/AV_SmartWatch/toolchain_v3/src/libstm32f2\stm32f2xx_can.c ****   
1048:c:/Dropbox/AV_SmartWatch/toolchain_v3/src/libstm32f2\stm32f2xx_can.c ****   /* Get the error code*/
1049:c:/Dropbox/AV_SmartWatch/toolchain_v3/src/libstm32f2\stm32f2xx_can.c ****   errorcode = (((uint8_t)CANx->ESR) & (uint8_t)CAN_ESR_LEC);
 1240              		.loc 1 1049 0
 1241 0000 8069     		ldr	r0, [r0, #24]
 1242              	.LVL84:
1050:c:/Dropbox/AV_SmartWatch/toolchain_v3/src/libstm32f2\stm32f2xx_can.c ****   
1051:c:/Dropbox/AV_SmartWatch/toolchain_v3/src/libstm32f2\stm32f2xx_can.c ****   /* Return the error code*/
1052:c:/Dropbox/AV_SmartWatch/toolchain_v3/src/libstm32f2\stm32f2xx_can.c ****   return errorcode;
1053:c:/Dropbox/AV_SmartWatch/toolchain_v3/src/libstm32f2\stm32f2xx_can.c **** }
 1243              		.loc 1 1053 0
 1244 0002 00F07000 		and	r0, r0, #112
 1245              	.LVL85:
 1246 0006 7047     		bx	lr
 1247              		.cfi_endproc
 1248              	.LFE72:
 1250              		.section	.text.CAN_GetReceiveErrorCounter,"ax",%progbits
 1251              		.align	1
 1252              		.global	CAN_GetReceiveErrorCounter
 1253              		.thumb
 1254              		.thumb_func
 1256              	CAN_GetReceiveErrorCounter:
 1257              	.LFB73:
1054:c:/Dropbox/AV_SmartWatch/toolchain_v3/src/libstm32f2\stm32f2xx_can.c **** 
1055:c:/Dropbox/AV_SmartWatch/toolchain_v3/src/libstm32f2\stm32f2xx_can.c **** /**
1056:c:/Dropbox/AV_SmartWatch/toolchain_v3/src/libstm32f2\stm32f2xx_can.c ****   * @brief  Returns the CANx Receive Error Counter (REC).
1057:c:/Dropbox/AV_SmartWatch/toolchain_v3/src/libstm32f2\stm32f2xx_can.c ****   * @note   In case of an error during reception, this counter is incremented 
1058:c:/Dropbox/AV_SmartWatch/toolchain_v3/src/libstm32f2\stm32f2xx_can.c ****   *         by 1 or by 8 depending on the error condition as defined by the CAN 
1059:c:/Dropbox/AV_SmartWatch/toolchain_v3/src/libstm32f2\stm32f2xx_can.c ****   *         standard. After every successful reception, the counter is 
1060:c:/Dropbox/AV_SmartWatch/toolchain_v3/src/libstm32f2\stm32f2xx_can.c ****   *         decremented by 1 or reset to 120 if its value was higher than 128. 
1061:c:/Dropbox/AV_SmartWatch/toolchain_v3/src/libstm32f2\stm32f2xx_can.c ****   *         When the counter value exceeds 127, the CAN controller enters the 
1062:c:/Dropbox/AV_SmartWatch/toolchain_v3/src/libstm32f2\stm32f2xx_can.c ****   *         error passive state.  
1063:c:/Dropbox/AV_SmartWatch/toolchain_v3/src/libstm32f2\stm32f2xx_can.c ****   * @param  CANx: where x can be 1 or 2 to to select the CAN peripheral.  
1064:c:/Dropbox/AV_SmartWatch/toolchain_v3/src/libstm32f2\stm32f2xx_can.c ****   * @retval CAN Receive Error Counter. 
1065:c:/Dropbox/AV_SmartWatch/toolchain_v3/src/libstm32f2\stm32f2xx_can.c ****   */
1066:c:/Dropbox/AV_SmartWatch/toolchain_v3/src/libstm32f2\stm32f2xx_can.c **** uint8_t CAN_GetReceiveErrorCounter(CAN_TypeDef* CANx)
1067:c:/Dropbox/AV_SmartWatch/toolchain_v3/src/libstm32f2\stm32f2xx_can.c **** {
 1258              		.loc 1 1067 0
 1259              		.cfi_startproc
 1260              		@ args = 0, pretend = 0, frame = 0
 1261              		@ frame_needed = 0, uses_anonymous_args = 0
 1262              		@ link register save eliminated.
 1263              	.LVL86:
1068:c:/Dropbox/AV_SmartWatch/toolchain_v3/src/libstm32f2\stm32f2xx_can.c ****   uint8_t counter=0;
1069:c:/Dropbox/AV_SmartWatch/toolchain_v3/src/libstm32f2\stm32f2xx_can.c ****   
1070:c:/Dropbox/AV_SmartWatch/toolchain_v3/src/libstm32f2\stm32f2xx_can.c ****   /* Check the parameters */
1071:c:/Dropbox/AV_SmartWatch/toolchain_v3/src/libstm32f2\stm32f2xx_can.c ****   assert_param(IS_CAN_ALL_PERIPH(CANx));
1072:c:/Dropbox/AV_SmartWatch/toolchain_v3/src/libstm32f2\stm32f2xx_can.c ****   
1073:c:/Dropbox/AV_SmartWatch/toolchain_v3/src/libstm32f2\stm32f2xx_can.c ****   /* Get the Receive Error Counter*/
1074:c:/Dropbox/AV_SmartWatch/toolchain_v3/src/libstm32f2\stm32f2xx_can.c ****   counter = (uint8_t)((CANx->ESR & CAN_ESR_REC)>> 24);
 1264              		.loc 1 1074 0
 1265 0000 8069     		ldr	r0, [r0, #24]
 1266              	.LVL87:
1075:c:/Dropbox/AV_SmartWatch/toolchain_v3/src/libstm32f2\stm32f2xx_can.c ****   
1076:c:/Dropbox/AV_SmartWatch/toolchain_v3/src/libstm32f2\stm32f2xx_can.c ****   /* Return the Receive Error Counter*/
1077:c:/Dropbox/AV_SmartWatch/toolchain_v3/src/libstm32f2\stm32f2xx_can.c ****   return counter;
1078:c:/Dropbox/AV_SmartWatch/toolchain_v3/src/libstm32f2\stm32f2xx_can.c **** }
 1267              		.loc 1 1078 0
 1268 0002 000E     		lsrs	r0, r0, #24
 1269              	.LVL88:
 1270 0004 7047     		bx	lr
 1271              		.cfi_endproc
 1272              	.LFE73:
 1274              		.section	.text.CAN_GetLSBTransmitErrorCounter,"ax",%progbits
 1275              		.align	1
 1276              		.global	CAN_GetLSBTransmitErrorCounter
 1277              		.thumb
 1278              		.thumb_func
 1280              	CAN_GetLSBTransmitErrorCounter:
 1281              	.LFB74:
1079:c:/Dropbox/AV_SmartWatch/toolchain_v3/src/libstm32f2\stm32f2xx_can.c **** 
1080:c:/Dropbox/AV_SmartWatch/toolchain_v3/src/libstm32f2\stm32f2xx_can.c **** 
1081:c:/Dropbox/AV_SmartWatch/toolchain_v3/src/libstm32f2\stm32f2xx_can.c **** /**
1082:c:/Dropbox/AV_SmartWatch/toolchain_v3/src/libstm32f2\stm32f2xx_can.c ****   * @brief  Returns the LSB of the 9-bit CANx Transmit Error Counter(TEC).
1083:c:/Dropbox/AV_SmartWatch/toolchain_v3/src/libstm32f2\stm32f2xx_can.c ****   * @param  CANx: where x can be 1 or 2 to to select the CAN peripheral.
1084:c:/Dropbox/AV_SmartWatch/toolchain_v3/src/libstm32f2\stm32f2xx_can.c ****   * @retval LSB of the 9-bit CAN Transmit Error Counter. 
1085:c:/Dropbox/AV_SmartWatch/toolchain_v3/src/libstm32f2\stm32f2xx_can.c ****   */
1086:c:/Dropbox/AV_SmartWatch/toolchain_v3/src/libstm32f2\stm32f2xx_can.c **** uint8_t CAN_GetLSBTransmitErrorCounter(CAN_TypeDef* CANx)
1087:c:/Dropbox/AV_SmartWatch/toolchain_v3/src/libstm32f2\stm32f2xx_can.c **** {
 1282              		.loc 1 1087 0
 1283              		.cfi_startproc
 1284              		@ args = 0, pretend = 0, frame = 0
 1285              		@ frame_needed = 0, uses_anonymous_args = 0
 1286              		@ link register save eliminated.
 1287              	.LVL89:
1088:c:/Dropbox/AV_SmartWatch/toolchain_v3/src/libstm32f2\stm32f2xx_can.c ****   uint8_t counter=0;
1089:c:/Dropbox/AV_SmartWatch/toolchain_v3/src/libstm32f2\stm32f2xx_can.c ****   
1090:c:/Dropbox/AV_SmartWatch/toolchain_v3/src/libstm32f2\stm32f2xx_can.c ****   /* Check the parameters */
1091:c:/Dropbox/AV_SmartWatch/toolchain_v3/src/libstm32f2\stm32f2xx_can.c ****   assert_param(IS_CAN_ALL_PERIPH(CANx));
1092:c:/Dropbox/AV_SmartWatch/toolchain_v3/src/libstm32f2\stm32f2xx_can.c ****   
1093:c:/Dropbox/AV_SmartWatch/toolchain_v3/src/libstm32f2\stm32f2xx_can.c ****   /* Get the LSB of the 9-bit CANx Transmit Error Counter(TEC) */
1094:c:/Dropbox/AV_SmartWatch/toolchain_v3/src/libstm32f2\stm32f2xx_can.c ****   counter = (uint8_t)((CANx->ESR & CAN_ESR_TEC)>> 16);
 1288              		.loc 1 1094 0
 1289 0000 8069     		ldr	r0, [r0, #24]
 1290              	.LVL90:
1095:c:/Dropbox/AV_SmartWatch/toolchain_v3/src/libstm32f2\stm32f2xx_can.c ****   
1096:c:/Dropbox/AV_SmartWatch/toolchain_v3/src/libstm32f2\stm32f2xx_can.c ****   /* Return the LSB of the 9-bit CANx Transmit Error Counter(TEC) */
1097:c:/Dropbox/AV_SmartWatch/toolchain_v3/src/libstm32f2\stm32f2xx_can.c ****   return counter;
1098:c:/Dropbox/AV_SmartWatch/toolchain_v3/src/libstm32f2\stm32f2xx_can.c **** }
 1291              		.loc 1 1098 0
 1292 0002 C0F30740 		ubfx	r0, r0, #16, #8
 1293              	.LVL91:
 1294 0006 7047     		bx	lr
 1295              		.cfi_endproc
 1296              	.LFE74:
 1298              		.section	.text.CAN_ITConfig,"ax",%progbits
 1299              		.align	1
 1300              		.global	CAN_ITConfig
 1301              		.thumb
 1302              		.thumb_func
 1304              	CAN_ITConfig:
 1305              	.LFB75:
1099:c:/Dropbox/AV_SmartWatch/toolchain_v3/src/libstm32f2\stm32f2xx_can.c **** /**
1100:c:/Dropbox/AV_SmartWatch/toolchain_v3/src/libstm32f2\stm32f2xx_can.c ****   * @}
1101:c:/Dropbox/AV_SmartWatch/toolchain_v3/src/libstm32f2\stm32f2xx_can.c ****   */
1102:c:/Dropbox/AV_SmartWatch/toolchain_v3/src/libstm32f2\stm32f2xx_can.c **** 
1103:c:/Dropbox/AV_SmartWatch/toolchain_v3/src/libstm32f2\stm32f2xx_can.c **** /** @defgroup CAN_Group6 Interrupts and flags management functions
1104:c:/Dropbox/AV_SmartWatch/toolchain_v3/src/libstm32f2\stm32f2xx_can.c ****  *  @brief   Interrupts and flags management functions
1105:c:/Dropbox/AV_SmartWatch/toolchain_v3/src/libstm32f2\stm32f2xx_can.c ****  *
1106:c:/Dropbox/AV_SmartWatch/toolchain_v3/src/libstm32f2\stm32f2xx_can.c **** @verbatim   
1107:c:/Dropbox/AV_SmartWatch/toolchain_v3/src/libstm32f2\stm32f2xx_can.c ****  ===============================================================================
1108:c:/Dropbox/AV_SmartWatch/toolchain_v3/src/libstm32f2\stm32f2xx_can.c ****                    Interrupts and flags management functions
1109:c:/Dropbox/AV_SmartWatch/toolchain_v3/src/libstm32f2\stm32f2xx_can.c ****  ===============================================================================  
1110:c:/Dropbox/AV_SmartWatch/toolchain_v3/src/libstm32f2\stm32f2xx_can.c **** 
1111:c:/Dropbox/AV_SmartWatch/toolchain_v3/src/libstm32f2\stm32f2xx_can.c ****   This section provides functions allowing to configure the CAN Interrupts and 
1112:c:/Dropbox/AV_SmartWatch/toolchain_v3/src/libstm32f2\stm32f2xx_can.c ****   to get the status and clear flags and Interrupts pending bits.
1113:c:/Dropbox/AV_SmartWatch/toolchain_v3/src/libstm32f2\stm32f2xx_can.c ****   
1114:c:/Dropbox/AV_SmartWatch/toolchain_v3/src/libstm32f2\stm32f2xx_can.c ****   The CAN provides 14 Interrupts sources and 15 Flags:
1115:c:/Dropbox/AV_SmartWatch/toolchain_v3/src/libstm32f2\stm32f2xx_can.c **** 
1116:c:/Dropbox/AV_SmartWatch/toolchain_v3/src/libstm32f2\stm32f2xx_can.c ****   ===============  
1117:c:/Dropbox/AV_SmartWatch/toolchain_v3/src/libstm32f2\stm32f2xx_can.c ****       Flags :
1118:c:/Dropbox/AV_SmartWatch/toolchain_v3/src/libstm32f2\stm32f2xx_can.c ****   ===============
1119:c:/Dropbox/AV_SmartWatch/toolchain_v3/src/libstm32f2\stm32f2xx_can.c ****   The 15 flags can be divided on 4 groups: 
1120:c:/Dropbox/AV_SmartWatch/toolchain_v3/src/libstm32f2\stm32f2xx_can.c **** 
1121:c:/Dropbox/AV_SmartWatch/toolchain_v3/src/libstm32f2\stm32f2xx_can.c ****    A. Transmit Flags
1122:c:/Dropbox/AV_SmartWatch/toolchain_v3/src/libstm32f2\stm32f2xx_can.c ****   -----------------------
1123:c:/Dropbox/AV_SmartWatch/toolchain_v3/src/libstm32f2\stm32f2xx_can.c ****         CAN_FLAG_RQCP0, 
1124:c:/Dropbox/AV_SmartWatch/toolchain_v3/src/libstm32f2\stm32f2xx_can.c ****         CAN_FLAG_RQCP1, 
1125:c:/Dropbox/AV_SmartWatch/toolchain_v3/src/libstm32f2\stm32f2xx_can.c ****         CAN_FLAG_RQCP2  : Request completed MailBoxes 0, 1 and 2  Flags
1126:c:/Dropbox/AV_SmartWatch/toolchain_v3/src/libstm32f2\stm32f2xx_can.c ****                           Set when when the last request (transmit or abort) has 
1127:c:/Dropbox/AV_SmartWatch/toolchain_v3/src/libstm32f2\stm32f2xx_can.c ****                           been performed. 
1128:c:/Dropbox/AV_SmartWatch/toolchain_v3/src/libstm32f2\stm32f2xx_can.c **** 
1129:c:/Dropbox/AV_SmartWatch/toolchain_v3/src/libstm32f2\stm32f2xx_can.c ****   B. Receive Flags
1130:c:/Dropbox/AV_SmartWatch/toolchain_v3/src/libstm32f2\stm32f2xx_can.c ****   -----------------------
1131:c:/Dropbox/AV_SmartWatch/toolchain_v3/src/libstm32f2\stm32f2xx_can.c **** 
1132:c:/Dropbox/AV_SmartWatch/toolchain_v3/src/libstm32f2\stm32f2xx_can.c ****         CAN_FLAG_FMP0,
1133:c:/Dropbox/AV_SmartWatch/toolchain_v3/src/libstm32f2\stm32f2xx_can.c ****         CAN_FLAG_FMP1   : FIFO 0 and 1 Message Pending Flags 
1134:c:/Dropbox/AV_SmartWatch/toolchain_v3/src/libstm32f2\stm32f2xx_can.c ****                           set to signal that messages are pending in the receive 
1135:c:/Dropbox/AV_SmartWatch/toolchain_v3/src/libstm32f2\stm32f2xx_can.c ****                           FIFO.
1136:c:/Dropbox/AV_SmartWatch/toolchain_v3/src/libstm32f2\stm32f2xx_can.c ****                           These Flags are cleared only by hardware. 
1137:c:/Dropbox/AV_SmartWatch/toolchain_v3/src/libstm32f2\stm32f2xx_can.c **** 
1138:c:/Dropbox/AV_SmartWatch/toolchain_v3/src/libstm32f2\stm32f2xx_can.c ****         CAN_FLAG_FF0,
1139:c:/Dropbox/AV_SmartWatch/toolchain_v3/src/libstm32f2\stm32f2xx_can.c ****         CAN_FLAG_FF1    : FIFO 0 and 1 Full Flags
1140:c:/Dropbox/AV_SmartWatch/toolchain_v3/src/libstm32f2\stm32f2xx_can.c ****                           set when three messages are stored in the selected 
1141:c:/Dropbox/AV_SmartWatch/toolchain_v3/src/libstm32f2\stm32f2xx_can.c ****                           FIFO.                        
1142:c:/Dropbox/AV_SmartWatch/toolchain_v3/src/libstm32f2\stm32f2xx_can.c **** 
1143:c:/Dropbox/AV_SmartWatch/toolchain_v3/src/libstm32f2\stm32f2xx_can.c ****         CAN_FLAG_FOV0              
1144:c:/Dropbox/AV_SmartWatch/toolchain_v3/src/libstm32f2\stm32f2xx_can.c ****         CAN_FLAG_FOV1   : FIFO 0 and 1 Overrun Flags
1145:c:/Dropbox/AV_SmartWatch/toolchain_v3/src/libstm32f2\stm32f2xx_can.c ****                           set when a new message has been received and passed 
1146:c:/Dropbox/AV_SmartWatch/toolchain_v3/src/libstm32f2\stm32f2xx_can.c ****                           the filter while the FIFO was full.         
1147:c:/Dropbox/AV_SmartWatch/toolchain_v3/src/libstm32f2\stm32f2xx_can.c **** 
1148:c:/Dropbox/AV_SmartWatch/toolchain_v3/src/libstm32f2\stm32f2xx_can.c ****   C. Operating Mode Flags
1149:c:/Dropbox/AV_SmartWatch/toolchain_v3/src/libstm32f2\stm32f2xx_can.c ****   ----------------------- 
1150:c:/Dropbox/AV_SmartWatch/toolchain_v3/src/libstm32f2\stm32f2xx_can.c ****         CAN_FLAG_WKU    : Wake up Flag
1151:c:/Dropbox/AV_SmartWatch/toolchain_v3/src/libstm32f2\stm32f2xx_can.c ****                           set to signal that a SOF bit has been detected while 
1152:c:/Dropbox/AV_SmartWatch/toolchain_v3/src/libstm32f2\stm32f2xx_can.c ****                           the CAN hardware was in Sleep mode. 
1153:c:/Dropbox/AV_SmartWatch/toolchain_v3/src/libstm32f2\stm32f2xx_can.c ****         
1154:c:/Dropbox/AV_SmartWatch/toolchain_v3/src/libstm32f2\stm32f2xx_can.c ****         CAN_FLAG_SLAK   : Sleep acknowledge Flag
1155:c:/Dropbox/AV_SmartWatch/toolchain_v3/src/libstm32f2\stm32f2xx_can.c ****                           Set to signal that the CAN has entered Sleep Mode. 
1156:c:/Dropbox/AV_SmartWatch/toolchain_v3/src/libstm32f2\stm32f2xx_can.c ****     
1157:c:/Dropbox/AV_SmartWatch/toolchain_v3/src/libstm32f2\stm32f2xx_can.c ****   D. Error Flags
1158:c:/Dropbox/AV_SmartWatch/toolchain_v3/src/libstm32f2\stm32f2xx_can.c ****   ----------------------- 
1159:c:/Dropbox/AV_SmartWatch/toolchain_v3/src/libstm32f2\stm32f2xx_can.c ****         CAN_FLAG_EWG    : Error Warning Flag
1160:c:/Dropbox/AV_SmartWatch/toolchain_v3/src/libstm32f2\stm32f2xx_can.c ****                           Set when the warning limit has been reached (Receive 
1161:c:/Dropbox/AV_SmartWatch/toolchain_v3/src/libstm32f2\stm32f2xx_can.c ****                           Error Counter or Transmit Error Counter greater than 96). 
1162:c:/Dropbox/AV_SmartWatch/toolchain_v3/src/libstm32f2\stm32f2xx_can.c ****                           This Flag is cleared only by hardware.
1163:c:/Dropbox/AV_SmartWatch/toolchain_v3/src/libstm32f2\stm32f2xx_can.c ****                             
1164:c:/Dropbox/AV_SmartWatch/toolchain_v3/src/libstm32f2\stm32f2xx_can.c ****         CAN_FLAG_EPV    : Error Passive Flag
1165:c:/Dropbox/AV_SmartWatch/toolchain_v3/src/libstm32f2\stm32f2xx_can.c ****                           Set when the Error Passive limit has been reached 
1166:c:/Dropbox/AV_SmartWatch/toolchain_v3/src/libstm32f2\stm32f2xx_can.c ****                           (Receive Error Counter or Transmit Error Counter 
1167:c:/Dropbox/AV_SmartWatch/toolchain_v3/src/libstm32f2\stm32f2xx_can.c ****                           greater than 127).
1168:c:/Dropbox/AV_SmartWatch/toolchain_v3/src/libstm32f2\stm32f2xx_can.c ****                           This Flag is cleared only by hardware.
1169:c:/Dropbox/AV_SmartWatch/toolchain_v3/src/libstm32f2\stm32f2xx_can.c ****                              
1170:c:/Dropbox/AV_SmartWatch/toolchain_v3/src/libstm32f2\stm32f2xx_can.c ****         CAN_FLAG_BOF    : Bus-Off Flag
1171:c:/Dropbox/AV_SmartWatch/toolchain_v3/src/libstm32f2\stm32f2xx_can.c ****                           set when CAN enters the bus-off state. The bus-off 
1172:c:/Dropbox/AV_SmartWatch/toolchain_v3/src/libstm32f2\stm32f2xx_can.c ****                           state is entered on TEC overflow, greater than 255.
1173:c:/Dropbox/AV_SmartWatch/toolchain_v3/src/libstm32f2\stm32f2xx_can.c ****                           This Flag is cleared only by hardware.
1174:c:/Dropbox/AV_SmartWatch/toolchain_v3/src/libstm32f2\stm32f2xx_can.c ****                                    
1175:c:/Dropbox/AV_SmartWatch/toolchain_v3/src/libstm32f2\stm32f2xx_can.c ****         CAN_FLAG_LEC    : Last error code Flag
1176:c:/Dropbox/AV_SmartWatch/toolchain_v3/src/libstm32f2\stm32f2xx_can.c ****                           set If a message has been transferred (reception or
1177:c:/Dropbox/AV_SmartWatch/toolchain_v3/src/libstm32f2\stm32f2xx_can.c ****                           transmission) with error, and the error code is hold.              
1178:c:/Dropbox/AV_SmartWatch/toolchain_v3/src/libstm32f2\stm32f2xx_can.c ****                           
1179:c:/Dropbox/AV_SmartWatch/toolchain_v3/src/libstm32f2\stm32f2xx_can.c ****   ===============  
1180:c:/Dropbox/AV_SmartWatch/toolchain_v3/src/libstm32f2\stm32f2xx_can.c ****    Interrupts :
1181:c:/Dropbox/AV_SmartWatch/toolchain_v3/src/libstm32f2\stm32f2xx_can.c ****   ===============
1182:c:/Dropbox/AV_SmartWatch/toolchain_v3/src/libstm32f2\stm32f2xx_can.c ****   The 14 interrupts can be divided on 4 groups: 
1183:c:/Dropbox/AV_SmartWatch/toolchain_v3/src/libstm32f2\stm32f2xx_can.c ****   
1184:c:/Dropbox/AV_SmartWatch/toolchain_v3/src/libstm32f2\stm32f2xx_can.c ****    A. Transmit interrupt
1185:c:/Dropbox/AV_SmartWatch/toolchain_v3/src/libstm32f2\stm32f2xx_can.c ****   -----------------------   
1186:c:/Dropbox/AV_SmartWatch/toolchain_v3/src/libstm32f2\stm32f2xx_can.c ****           CAN_IT_TME   :  Transmit mailbox empty Interrupt
1187:c:/Dropbox/AV_SmartWatch/toolchain_v3/src/libstm32f2\stm32f2xx_can.c ****                           if enabled, this interrupt source is pending when 
1188:c:/Dropbox/AV_SmartWatch/toolchain_v3/src/libstm32f2\stm32f2xx_can.c ****                           no transmit request are pending for Tx mailboxes.      
1189:c:/Dropbox/AV_SmartWatch/toolchain_v3/src/libstm32f2\stm32f2xx_can.c **** 
1190:c:/Dropbox/AV_SmartWatch/toolchain_v3/src/libstm32f2\stm32f2xx_can.c ****    B. Receive Interrupts
1191:c:/Dropbox/AV_SmartWatch/toolchain_v3/src/libstm32f2\stm32f2xx_can.c ****   -----------------------          
1192:c:/Dropbox/AV_SmartWatch/toolchain_v3/src/libstm32f2\stm32f2xx_can.c ****         CAN_IT_FMP0,
1193:c:/Dropbox/AV_SmartWatch/toolchain_v3/src/libstm32f2\stm32f2xx_can.c ****         CAN_IT_FMP1    :  FIFO 0 and FIFO1 message pending Interrupts
1194:c:/Dropbox/AV_SmartWatch/toolchain_v3/src/libstm32f2\stm32f2xx_can.c ****                           if enabled, these interrupt sources are pending when 
1195:c:/Dropbox/AV_SmartWatch/toolchain_v3/src/libstm32f2\stm32f2xx_can.c ****                           messages are pending in the receive FIFO.
1196:c:/Dropbox/AV_SmartWatch/toolchain_v3/src/libstm32f2\stm32f2xx_can.c ****                           The corresponding interrupt pending bits are cleared 
1197:c:/Dropbox/AV_SmartWatch/toolchain_v3/src/libstm32f2\stm32f2xx_can.c ****                           only by hardware.
1198:c:/Dropbox/AV_SmartWatch/toolchain_v3/src/libstm32f2\stm32f2xx_can.c ****                 
1199:c:/Dropbox/AV_SmartWatch/toolchain_v3/src/libstm32f2\stm32f2xx_can.c ****         CAN_IT_FF0,              
1200:c:/Dropbox/AV_SmartWatch/toolchain_v3/src/libstm32f2\stm32f2xx_can.c ****         CAN_IT_FF1     :  FIFO 0 and FIFO1 full Interrupts
1201:c:/Dropbox/AV_SmartWatch/toolchain_v3/src/libstm32f2\stm32f2xx_can.c ****                           if enabled, these interrupt sources are pending when
1202:c:/Dropbox/AV_SmartWatch/toolchain_v3/src/libstm32f2\stm32f2xx_can.c ****                           three messages are stored in the selected FIFO.
1203:c:/Dropbox/AV_SmartWatch/toolchain_v3/src/libstm32f2\stm32f2xx_can.c ****         
1204:c:/Dropbox/AV_SmartWatch/toolchain_v3/src/libstm32f2\stm32f2xx_can.c ****         CAN_IT_FOV0,        
1205:c:/Dropbox/AV_SmartWatch/toolchain_v3/src/libstm32f2\stm32f2xx_can.c ****         CAN_IT_FOV1    :  FIFO 0 and FIFO1 overrun Interrupts        
1206:c:/Dropbox/AV_SmartWatch/toolchain_v3/src/libstm32f2\stm32f2xx_can.c ****                           if enabled, these interrupt sources are pending when
1207:c:/Dropbox/AV_SmartWatch/toolchain_v3/src/libstm32f2\stm32f2xx_can.c ****                           a new message has been received and passed the filter
1208:c:/Dropbox/AV_SmartWatch/toolchain_v3/src/libstm32f2\stm32f2xx_can.c ****                           while the FIFO was full.
1209:c:/Dropbox/AV_SmartWatch/toolchain_v3/src/libstm32f2\stm32f2xx_can.c **** 
1210:c:/Dropbox/AV_SmartWatch/toolchain_v3/src/libstm32f2\stm32f2xx_can.c ****    C. Operating Mode Interrupts
1211:c:/Dropbox/AV_SmartWatch/toolchain_v3/src/libstm32f2\stm32f2xx_can.c ****   -------------------------------          
1212:c:/Dropbox/AV_SmartWatch/toolchain_v3/src/libstm32f2\stm32f2xx_can.c ****         CAN_IT_WKU     :  Wake-up Interrupt
1213:c:/Dropbox/AV_SmartWatch/toolchain_v3/src/libstm32f2\stm32f2xx_can.c ****                           if enabled, this interrupt source is pending when 
1214:c:/Dropbox/AV_SmartWatch/toolchain_v3/src/libstm32f2\stm32f2xx_can.c ****                           a SOF bit has been detected while the CAN hardware was 
1215:c:/Dropbox/AV_SmartWatch/toolchain_v3/src/libstm32f2\stm32f2xx_can.c ****                           in Sleep mode.
1216:c:/Dropbox/AV_SmartWatch/toolchain_v3/src/libstm32f2\stm32f2xx_can.c ****                                   
1217:c:/Dropbox/AV_SmartWatch/toolchain_v3/src/libstm32f2\stm32f2xx_can.c ****         CAN_IT_SLK     :  Sleep acknowledge Interrupt
1218:c:/Dropbox/AV_SmartWatch/toolchain_v3/src/libstm32f2\stm32f2xx_can.c ****                           if enabled, this interrupt source is pending when 
1219:c:/Dropbox/AV_SmartWatch/toolchain_v3/src/libstm32f2\stm32f2xx_can.c ****                           the CAN has entered Sleep Mode.       
1220:c:/Dropbox/AV_SmartWatch/toolchain_v3/src/libstm32f2\stm32f2xx_can.c **** 
1221:c:/Dropbox/AV_SmartWatch/toolchain_v3/src/libstm32f2\stm32f2xx_can.c ****    D. Error Interrupts 
1222:c:/Dropbox/AV_SmartWatch/toolchain_v3/src/libstm32f2\stm32f2xx_can.c ****   -----------------------         
1223:c:/Dropbox/AV_SmartWatch/toolchain_v3/src/libstm32f2\stm32f2xx_can.c ****         CAN_IT_EWG     :  Error warning Interrupt 
1224:c:/Dropbox/AV_SmartWatch/toolchain_v3/src/libstm32f2\stm32f2xx_can.c ****                           if enabled, this interrupt source is pending when
1225:c:/Dropbox/AV_SmartWatch/toolchain_v3/src/libstm32f2\stm32f2xx_can.c ****                           the warning limit has been reached (Receive Error 
1226:c:/Dropbox/AV_SmartWatch/toolchain_v3/src/libstm32f2\stm32f2xx_can.c ****                           Counter or Transmit Error Counter=96). 
1227:c:/Dropbox/AV_SmartWatch/toolchain_v3/src/libstm32f2\stm32f2xx_can.c ****                                
1228:c:/Dropbox/AV_SmartWatch/toolchain_v3/src/libstm32f2\stm32f2xx_can.c ****         CAN_IT_EPV     :  Error passive Interrupt        
1229:c:/Dropbox/AV_SmartWatch/toolchain_v3/src/libstm32f2\stm32f2xx_can.c ****                           if enabled, this interrupt source is pending when
1230:c:/Dropbox/AV_SmartWatch/toolchain_v3/src/libstm32f2\stm32f2xx_can.c ****                           the Error Passive limit has been reached (Receive 
1231:c:/Dropbox/AV_SmartWatch/toolchain_v3/src/libstm32f2\stm32f2xx_can.c ****                           Error Counter or Transmit Error Counter>127).
1232:c:/Dropbox/AV_SmartWatch/toolchain_v3/src/libstm32f2\stm32f2xx_can.c ****                           
1233:c:/Dropbox/AV_SmartWatch/toolchain_v3/src/libstm32f2\stm32f2xx_can.c ****         CAN_IT_BOF     :  Bus-off Interrupt
1234:c:/Dropbox/AV_SmartWatch/toolchain_v3/src/libstm32f2\stm32f2xx_can.c ****                           if enabled, this interrupt source is pending when
1235:c:/Dropbox/AV_SmartWatch/toolchain_v3/src/libstm32f2\stm32f2xx_can.c ****                           CAN enters the bus-off state. The bus-off state is 
1236:c:/Dropbox/AV_SmartWatch/toolchain_v3/src/libstm32f2\stm32f2xx_can.c ****                           entered on TEC overflow, greater than 255.
1237:c:/Dropbox/AV_SmartWatch/toolchain_v3/src/libstm32f2\stm32f2xx_can.c ****                           This Flag is cleared only by hardware.
1238:c:/Dropbox/AV_SmartWatch/toolchain_v3/src/libstm32f2\stm32f2xx_can.c ****                                   
1239:c:/Dropbox/AV_SmartWatch/toolchain_v3/src/libstm32f2\stm32f2xx_can.c ****         CAN_IT_LEC     :  Last error code Interrupt        
1240:c:/Dropbox/AV_SmartWatch/toolchain_v3/src/libstm32f2\stm32f2xx_can.c ****                           if enabled, this interrupt source is pending  when
1241:c:/Dropbox/AV_SmartWatch/toolchain_v3/src/libstm32f2\stm32f2xx_can.c ****                           a message has been transferred (reception or
1242:c:/Dropbox/AV_SmartWatch/toolchain_v3/src/libstm32f2\stm32f2xx_can.c ****                           transmission) with error, and the error code is hold.
1243:c:/Dropbox/AV_SmartWatch/toolchain_v3/src/libstm32f2\stm32f2xx_can.c ****                           
1244:c:/Dropbox/AV_SmartWatch/toolchain_v3/src/libstm32f2\stm32f2xx_can.c ****         CAN_IT_ERR     :  Error Interrupt
1245:c:/Dropbox/AV_SmartWatch/toolchain_v3/src/libstm32f2\stm32f2xx_can.c ****                           if enabled, this interrupt source is pending when 
1246:c:/Dropbox/AV_SmartWatch/toolchain_v3/src/libstm32f2\stm32f2xx_can.c ****                           an error condition is pending.      
1247:c:/Dropbox/AV_SmartWatch/toolchain_v3/src/libstm32f2\stm32f2xx_can.c ****                       
1248:c:/Dropbox/AV_SmartWatch/toolchain_v3/src/libstm32f2\stm32f2xx_can.c **** 
1249:c:/Dropbox/AV_SmartWatch/toolchain_v3/src/libstm32f2\stm32f2xx_can.c ****   Managing the CAN controller events :
1250:c:/Dropbox/AV_SmartWatch/toolchain_v3/src/libstm32f2\stm32f2xx_can.c ****   ------------------------------------ 
1251:c:/Dropbox/AV_SmartWatch/toolchain_v3/src/libstm32f2\stm32f2xx_can.c ****   The user should identify which mode will be used in his application to manage 
1252:c:/Dropbox/AV_SmartWatch/toolchain_v3/src/libstm32f2\stm32f2xx_can.c ****   the CAN controller events: Polling mode or Interrupt mode.
1253:c:/Dropbox/AV_SmartWatch/toolchain_v3/src/libstm32f2\stm32f2xx_can.c ****   
1254:c:/Dropbox/AV_SmartWatch/toolchain_v3/src/libstm32f2\stm32f2xx_can.c ****   1.  In the Polling Mode it is advised to use the following functions:
1255:c:/Dropbox/AV_SmartWatch/toolchain_v3/src/libstm32f2\stm32f2xx_can.c ****       - CAN_GetFlagStatus() : to check if flags events occur. 
1256:c:/Dropbox/AV_SmartWatch/toolchain_v3/src/libstm32f2\stm32f2xx_can.c ****       - CAN_ClearFlag()     : to clear the flags events.
1257:c:/Dropbox/AV_SmartWatch/toolchain_v3/src/libstm32f2\stm32f2xx_can.c ****   
1258:c:/Dropbox/AV_SmartWatch/toolchain_v3/src/libstm32f2\stm32f2xx_can.c **** 
1259:c:/Dropbox/AV_SmartWatch/toolchain_v3/src/libstm32f2\stm32f2xx_can.c ****   
1260:c:/Dropbox/AV_SmartWatch/toolchain_v3/src/libstm32f2\stm32f2xx_can.c ****   2.  In the Interrupt Mode it is advised to use the following functions:
1261:c:/Dropbox/AV_SmartWatch/toolchain_v3/src/libstm32f2\stm32f2xx_can.c ****       - CAN_ITConfig()       : to enable or disable the interrupt source.
1262:c:/Dropbox/AV_SmartWatch/toolchain_v3/src/libstm32f2\stm32f2xx_can.c ****       - CAN_GetITStatus()    : to check if Interrupt occurs.
1263:c:/Dropbox/AV_SmartWatch/toolchain_v3/src/libstm32f2\stm32f2xx_can.c ****       - CAN_ClearITPendingBit() : to clear the Interrupt pending Bit (corresponding Flag).
1264:c:/Dropbox/AV_SmartWatch/toolchain_v3/src/libstm32f2\stm32f2xx_can.c ****       @note  This function has no impact on CAN_IT_FMP0 and CAN_IT_FMP1 Interrupts 
1265:c:/Dropbox/AV_SmartWatch/toolchain_v3/src/libstm32f2\stm32f2xx_can.c ****              pending bits since there are cleared only by hardware. 
1266:c:/Dropbox/AV_SmartWatch/toolchain_v3/src/libstm32f2\stm32f2xx_can.c ****   
1267:c:/Dropbox/AV_SmartWatch/toolchain_v3/src/libstm32f2\stm32f2xx_can.c **** @endverbatim
1268:c:/Dropbox/AV_SmartWatch/toolchain_v3/src/libstm32f2\stm32f2xx_can.c ****   * @{
1269:c:/Dropbox/AV_SmartWatch/toolchain_v3/src/libstm32f2\stm32f2xx_can.c ****   */ 
1270:c:/Dropbox/AV_SmartWatch/toolchain_v3/src/libstm32f2\stm32f2xx_can.c **** /**
1271:c:/Dropbox/AV_SmartWatch/toolchain_v3/src/libstm32f2\stm32f2xx_can.c ****   * @brief  Enables or disables the specified CANx interrupts.
1272:c:/Dropbox/AV_SmartWatch/toolchain_v3/src/libstm32f2\stm32f2xx_can.c ****   * @param  CANx: where x can be 1 or 2 to to select the CAN peripheral.
1273:c:/Dropbox/AV_SmartWatch/toolchain_v3/src/libstm32f2\stm32f2xx_can.c ****   * @param  CAN_IT: specifies the CAN interrupt sources to be enabled or disabled.
1274:c:/Dropbox/AV_SmartWatch/toolchain_v3/src/libstm32f2\stm32f2xx_can.c ****   *          This parameter can be: 
1275:c:/Dropbox/AV_SmartWatch/toolchain_v3/src/libstm32f2\stm32f2xx_can.c ****   *            @arg CAN_IT_TME: Transmit mailbox empty Interrupt 
1276:c:/Dropbox/AV_SmartWatch/toolchain_v3/src/libstm32f2\stm32f2xx_can.c ****   *            @arg CAN_IT_FMP0: FIFO 0 message pending Interrupt 
1277:c:/Dropbox/AV_SmartWatch/toolchain_v3/src/libstm32f2\stm32f2xx_can.c ****   *            @arg CAN_IT_FF0: FIFO 0 full Interrupt
1278:c:/Dropbox/AV_SmartWatch/toolchain_v3/src/libstm32f2\stm32f2xx_can.c ****   *            @arg CAN_IT_FOV0: FIFO 0 overrun Interrupt
1279:c:/Dropbox/AV_SmartWatch/toolchain_v3/src/libstm32f2\stm32f2xx_can.c ****   *            @arg CAN_IT_FMP1: FIFO 1 message pending Interrupt 
1280:c:/Dropbox/AV_SmartWatch/toolchain_v3/src/libstm32f2\stm32f2xx_can.c ****   *            @arg CAN_IT_FF1: FIFO 1 full Interrupt
1281:c:/Dropbox/AV_SmartWatch/toolchain_v3/src/libstm32f2\stm32f2xx_can.c ****   *            @arg CAN_IT_FOV1: FIFO 1 overrun Interrupt
1282:c:/Dropbox/AV_SmartWatch/toolchain_v3/src/libstm32f2\stm32f2xx_can.c ****   *            @arg CAN_IT_WKU: Wake-up Interrupt
1283:c:/Dropbox/AV_SmartWatch/toolchain_v3/src/libstm32f2\stm32f2xx_can.c ****   *            @arg CAN_IT_SLK: Sleep acknowledge Interrupt  
1284:c:/Dropbox/AV_SmartWatch/toolchain_v3/src/libstm32f2\stm32f2xx_can.c ****   *            @arg CAN_IT_EWG: Error warning Interrupt
1285:c:/Dropbox/AV_SmartWatch/toolchain_v3/src/libstm32f2\stm32f2xx_can.c ****   *            @arg CAN_IT_EPV: Error passive Interrupt
1286:c:/Dropbox/AV_SmartWatch/toolchain_v3/src/libstm32f2\stm32f2xx_can.c ****   *            @arg CAN_IT_BOF: Bus-off Interrupt  
1287:c:/Dropbox/AV_SmartWatch/toolchain_v3/src/libstm32f2\stm32f2xx_can.c ****   *            @arg CAN_IT_LEC: Last error code Interrupt
1288:c:/Dropbox/AV_SmartWatch/toolchain_v3/src/libstm32f2\stm32f2xx_can.c ****   *            @arg CAN_IT_ERR: Error Interrupt
1289:c:/Dropbox/AV_SmartWatch/toolchain_v3/src/libstm32f2\stm32f2xx_can.c ****   * @param  NewState: new state of the CAN interrupts.
1290:c:/Dropbox/AV_SmartWatch/toolchain_v3/src/libstm32f2\stm32f2xx_can.c ****   *          This parameter can be: ENABLE or DISABLE.
1291:c:/Dropbox/AV_SmartWatch/toolchain_v3/src/libstm32f2\stm32f2xx_can.c ****   * @retval None
1292:c:/Dropbox/AV_SmartWatch/toolchain_v3/src/libstm32f2\stm32f2xx_can.c ****   */
1293:c:/Dropbox/AV_SmartWatch/toolchain_v3/src/libstm32f2\stm32f2xx_can.c **** void CAN_ITConfig(CAN_TypeDef* CANx, uint32_t CAN_IT, FunctionalState NewState)
1294:c:/Dropbox/AV_SmartWatch/toolchain_v3/src/libstm32f2\stm32f2xx_can.c **** {
 1306              		.loc 1 1294 0
 1307              		.cfi_startproc
 1308              		@ args = 0, pretend = 0, frame = 0
 1309              		@ frame_needed = 0, uses_anonymous_args = 0
 1310              		@ link register save eliminated.
 1311              	.LVL92:
1295:c:/Dropbox/AV_SmartWatch/toolchain_v3/src/libstm32f2\stm32f2xx_can.c ****   /* Check the parameters */
1296:c:/Dropbox/AV_SmartWatch/toolchain_v3/src/libstm32f2\stm32f2xx_can.c ****   assert_param(IS_CAN_ALL_PERIPH(CANx));
1297:c:/Dropbox/AV_SmartWatch/toolchain_v3/src/libstm32f2\stm32f2xx_can.c ****   assert_param(IS_CAN_IT(CAN_IT));
1298:c:/Dropbox/AV_SmartWatch/toolchain_v3/src/libstm32f2\stm32f2xx_can.c ****   assert_param(IS_FUNCTIONAL_STATE(NewState));
1299:c:/Dropbox/AV_SmartWatch/toolchain_v3/src/libstm32f2\stm32f2xx_can.c **** 
1300:c:/Dropbox/AV_SmartWatch/toolchain_v3/src/libstm32f2\stm32f2xx_can.c ****   if (NewState != DISABLE)
1301:c:/Dropbox/AV_SmartWatch/toolchain_v3/src/libstm32f2\stm32f2xx_can.c ****   {
1302:c:/Dropbox/AV_SmartWatch/toolchain_v3/src/libstm32f2\stm32f2xx_can.c ****     /* Enable the selected CANx interrupt */
1303:c:/Dropbox/AV_SmartWatch/toolchain_v3/src/libstm32f2\stm32f2xx_can.c ****     CANx->IER |= CAN_IT;
 1312              		.loc 1 1303 0
 1313 0000 4369     		ldr	r3, [r0, #20]
1300:c:/Dropbox/AV_SmartWatch/toolchain_v3/src/libstm32f2\stm32f2xx_can.c ****   if (NewState != DISABLE)
 1314              		.loc 1 1300 0
 1315 0002 0AB1     		cbz	r2, .L145
 1316              		.loc 1 1303 0
 1317 0004 1943     		orrs	r1, r1, r3
 1318              	.LVL93:
 1319 0006 01E0     		b	.L147
 1320              	.LVL94:
 1321              	.L145:
1304:c:/Dropbox/AV_SmartWatch/toolchain_v3/src/libstm32f2\stm32f2xx_can.c ****   }
1305:c:/Dropbox/AV_SmartWatch/toolchain_v3/src/libstm32f2\stm32f2xx_can.c ****   else
1306:c:/Dropbox/AV_SmartWatch/toolchain_v3/src/libstm32f2\stm32f2xx_can.c ****   {
1307:c:/Dropbox/AV_SmartWatch/toolchain_v3/src/libstm32f2\stm32f2xx_can.c ****     /* Disable the selected CANx interrupt */
1308:c:/Dropbox/AV_SmartWatch/toolchain_v3/src/libstm32f2\stm32f2xx_can.c ****     CANx->IER &= ~CAN_IT;
 1322              		.loc 1 1308 0
 1323 0008 23EA0101 		bic	r1, r3, r1
 1324              	.LVL95:
 1325              	.L147:
 1326 000c 4161     		str	r1, [r0, #20]
 1327 000e 7047     		bx	lr
 1328              		.cfi_endproc
 1329              	.LFE75:
 1331              		.section	.text.CAN_GetFlagStatus,"ax",%progbits
 1332              		.align	1
 1333              		.global	CAN_GetFlagStatus
 1334              		.thumb
 1335              		.thumb_func
 1337              	CAN_GetFlagStatus:
 1338              	.LFB76:
1309:c:/Dropbox/AV_SmartWatch/toolchain_v3/src/libstm32f2\stm32f2xx_can.c ****   }
1310:c:/Dropbox/AV_SmartWatch/toolchain_v3/src/libstm32f2\stm32f2xx_can.c **** }
1311:c:/Dropbox/AV_SmartWatch/toolchain_v3/src/libstm32f2\stm32f2xx_can.c **** /**
1312:c:/Dropbox/AV_SmartWatch/toolchain_v3/src/libstm32f2\stm32f2xx_can.c ****   * @brief  Checks whether the specified CAN flag is set or not.
1313:c:/Dropbox/AV_SmartWatch/toolchain_v3/src/libstm32f2\stm32f2xx_can.c ****   * @param  CANx: where x can be 1 or 2 to to select the CAN peripheral.
1314:c:/Dropbox/AV_SmartWatch/toolchain_v3/src/libstm32f2\stm32f2xx_can.c ****   * @param  CAN_FLAG: specifies the flag to check.
1315:c:/Dropbox/AV_SmartWatch/toolchain_v3/src/libstm32f2\stm32f2xx_can.c ****   *          This parameter can be one of the following values:
1316:c:/Dropbox/AV_SmartWatch/toolchain_v3/src/libstm32f2\stm32f2xx_can.c ****   *            @arg CAN_FLAG_RQCP0: Request MailBox0 Flag
1317:c:/Dropbox/AV_SmartWatch/toolchain_v3/src/libstm32f2\stm32f2xx_can.c ****   *            @arg CAN_FLAG_RQCP1: Request MailBox1 Flag
1318:c:/Dropbox/AV_SmartWatch/toolchain_v3/src/libstm32f2\stm32f2xx_can.c ****   *            @arg CAN_FLAG_RQCP2: Request MailBox2 Flag
1319:c:/Dropbox/AV_SmartWatch/toolchain_v3/src/libstm32f2\stm32f2xx_can.c ****   *            @arg CAN_FLAG_FMP0: FIFO 0 Message Pending Flag   
1320:c:/Dropbox/AV_SmartWatch/toolchain_v3/src/libstm32f2\stm32f2xx_can.c ****   *            @arg CAN_FLAG_FF0: FIFO 0 Full Flag       
1321:c:/Dropbox/AV_SmartWatch/toolchain_v3/src/libstm32f2\stm32f2xx_can.c ****   *            @arg CAN_FLAG_FOV0: FIFO 0 Overrun Flag 
1322:c:/Dropbox/AV_SmartWatch/toolchain_v3/src/libstm32f2\stm32f2xx_can.c ****   *            @arg CAN_FLAG_FMP1: FIFO 1 Message Pending Flag   
1323:c:/Dropbox/AV_SmartWatch/toolchain_v3/src/libstm32f2\stm32f2xx_can.c ****   *            @arg CAN_FLAG_FF1: FIFO 1 Full Flag        
1324:c:/Dropbox/AV_SmartWatch/toolchain_v3/src/libstm32f2\stm32f2xx_can.c ****   *            @arg CAN_FLAG_FOV1: FIFO 1 Overrun Flag     
1325:c:/Dropbox/AV_SmartWatch/toolchain_v3/src/libstm32f2\stm32f2xx_can.c ****   *            @arg CAN_FLAG_WKU: Wake up Flag
1326:c:/Dropbox/AV_SmartWatch/toolchain_v3/src/libstm32f2\stm32f2xx_can.c ****   *            @arg CAN_FLAG_SLAK: Sleep acknowledge Flag 
1327:c:/Dropbox/AV_SmartWatch/toolchain_v3/src/libstm32f2\stm32f2xx_can.c ****   *            @arg CAN_FLAG_EWG: Error Warning Flag
1328:c:/Dropbox/AV_SmartWatch/toolchain_v3/src/libstm32f2\stm32f2xx_can.c ****   *            @arg CAN_FLAG_EPV: Error Passive Flag  
1329:c:/Dropbox/AV_SmartWatch/toolchain_v3/src/libstm32f2\stm32f2xx_can.c ****   *            @arg CAN_FLAG_BOF: Bus-Off Flag    
1330:c:/Dropbox/AV_SmartWatch/toolchain_v3/src/libstm32f2\stm32f2xx_can.c ****   *            @arg CAN_FLAG_LEC: Last error code Flag      
1331:c:/Dropbox/AV_SmartWatch/toolchain_v3/src/libstm32f2\stm32f2xx_can.c ****   * @retval The new state of CAN_FLAG (SET or RESET).
1332:c:/Dropbox/AV_SmartWatch/toolchain_v3/src/libstm32f2\stm32f2xx_can.c ****   */
1333:c:/Dropbox/AV_SmartWatch/toolchain_v3/src/libstm32f2\stm32f2xx_can.c **** FlagStatus CAN_GetFlagStatus(CAN_TypeDef* CANx, uint32_t CAN_FLAG)
1334:c:/Dropbox/AV_SmartWatch/toolchain_v3/src/libstm32f2\stm32f2xx_can.c **** {
 1339              		.loc 1 1334 0
 1340              		.cfi_startproc
 1341              		@ args = 0, pretend = 0, frame = 0
 1342              		@ frame_needed = 0, uses_anonymous_args = 0
 1343              		@ link register save eliminated.
 1344              	.LVL96:
1335:c:/Dropbox/AV_SmartWatch/toolchain_v3/src/libstm32f2\stm32f2xx_can.c ****   FlagStatus bitstatus = RESET;
1336:c:/Dropbox/AV_SmartWatch/toolchain_v3/src/libstm32f2\stm32f2xx_can.c ****   
1337:c:/Dropbox/AV_SmartWatch/toolchain_v3/src/libstm32f2\stm32f2xx_can.c ****   /* Check the parameters */
1338:c:/Dropbox/AV_SmartWatch/toolchain_v3/src/libstm32f2\stm32f2xx_can.c ****   assert_param(IS_CAN_ALL_PERIPH(CANx));
1339:c:/Dropbox/AV_SmartWatch/toolchain_v3/src/libstm32f2\stm32f2xx_can.c ****   assert_param(IS_CAN_GET_FLAG(CAN_FLAG));
1340:c:/Dropbox/AV_SmartWatch/toolchain_v3/src/libstm32f2\stm32f2xx_can.c ****   
1341:c:/Dropbox/AV_SmartWatch/toolchain_v3/src/libstm32f2\stm32f2xx_can.c **** 
1342:c:/Dropbox/AV_SmartWatch/toolchain_v3/src/libstm32f2\stm32f2xx_can.c ****   if((CAN_FLAG & CAN_FLAGS_ESR) != (uint32_t)RESET)
 1345              		.loc 1 1342 0
 1346 0000 11F4700F 		tst	r1, #15728640
 1347 0004 01D0     		beq	.L149
1343:c:/Dropbox/AV_SmartWatch/toolchain_v3/src/libstm32f2\stm32f2xx_can.c ****   { 
1344:c:/Dropbox/AV_SmartWatch/toolchain_v3/src/libstm32f2\stm32f2xx_can.c ****     /* Check the status of the specified CAN flag */
1345:c:/Dropbox/AV_SmartWatch/toolchain_v3/src/libstm32f2\stm32f2xx_can.c ****     if ((CANx->ESR & (CAN_FLAG & 0x000FFFFF)) != (uint32_t)RESET)
 1348              		.loc 1 1345 0
 1349 0006 8369     		ldr	r3, [r0, #24]
 1350 0008 0BE0     		b	.L154
 1351              	.L149:
1346:c:/Dropbox/AV_SmartWatch/toolchain_v3/src/libstm32f2\stm32f2xx_can.c ****     { 
1347:c:/Dropbox/AV_SmartWatch/toolchain_v3/src/libstm32f2\stm32f2xx_can.c ****       /* CAN_FLAG is set */
1348:c:/Dropbox/AV_SmartWatch/toolchain_v3/src/libstm32f2\stm32f2xx_can.c ****       bitstatus = SET;
1349:c:/Dropbox/AV_SmartWatch/toolchain_v3/src/libstm32f2\stm32f2xx_can.c ****     }
1350:c:/Dropbox/AV_SmartWatch/toolchain_v3/src/libstm32f2\stm32f2xx_can.c ****     else
1351:c:/Dropbox/AV_SmartWatch/toolchain_v3/src/libstm32f2\stm32f2xx_can.c ****     { 
1352:c:/Dropbox/AV_SmartWatch/toolchain_v3/src/libstm32f2\stm32f2xx_can.c ****       /* CAN_FLAG is reset */
1353:c:/Dropbox/AV_SmartWatch/toolchain_v3/src/libstm32f2\stm32f2xx_can.c ****       bitstatus = RESET;
1354:c:/Dropbox/AV_SmartWatch/toolchain_v3/src/libstm32f2\stm32f2xx_can.c ****     }
1355:c:/Dropbox/AV_SmartWatch/toolchain_v3/src/libstm32f2\stm32f2xx_can.c ****   }
1356:c:/Dropbox/AV_SmartWatch/toolchain_v3/src/libstm32f2\stm32f2xx_can.c ****   else if((CAN_FLAG & CAN_FLAGS_MSR) != (uint32_t)RESET)
 1352              		.loc 1 1356 0
 1353 000a CB01     		lsls	r3, r1, #7
 1354 000c 01D5     		bpl	.L151
1357:c:/Dropbox/AV_SmartWatch/toolchain_v3/src/libstm32f2\stm32f2xx_can.c ****   { 
1358:c:/Dropbox/AV_SmartWatch/toolchain_v3/src/libstm32f2\stm32f2xx_can.c ****     /* Check the status of the specified CAN flag */
1359:c:/Dropbox/AV_SmartWatch/toolchain_v3/src/libstm32f2\stm32f2xx_can.c ****     if ((CANx->MSR & (CAN_FLAG & 0x000FFFFF)) != (uint32_t)RESET)
 1355              		.loc 1 1359 0
 1356 000e 4368     		ldr	r3, [r0, #4]
 1357 0010 07E0     		b	.L154
 1358              	.L151:
1360:c:/Dropbox/AV_SmartWatch/toolchain_v3/src/libstm32f2\stm32f2xx_can.c ****     { 
1361:c:/Dropbox/AV_SmartWatch/toolchain_v3/src/libstm32f2\stm32f2xx_can.c ****       /* CAN_FLAG is set */
1362:c:/Dropbox/AV_SmartWatch/toolchain_v3/src/libstm32f2\stm32f2xx_can.c ****       bitstatus = SET;
1363:c:/Dropbox/AV_SmartWatch/toolchain_v3/src/libstm32f2\stm32f2xx_can.c ****     }
1364:c:/Dropbox/AV_SmartWatch/toolchain_v3/src/libstm32f2\stm32f2xx_can.c ****     else
1365:c:/Dropbox/AV_SmartWatch/toolchain_v3/src/libstm32f2\stm32f2xx_can.c ****     { 
1366:c:/Dropbox/AV_SmartWatch/toolchain_v3/src/libstm32f2\stm32f2xx_can.c ****       /* CAN_FLAG is reset */
1367:c:/Dropbox/AV_SmartWatch/toolchain_v3/src/libstm32f2\stm32f2xx_can.c ****       bitstatus = RESET;
1368:c:/Dropbox/AV_SmartWatch/toolchain_v3/src/libstm32f2\stm32f2xx_can.c ****     }
1369:c:/Dropbox/AV_SmartWatch/toolchain_v3/src/libstm32f2\stm32f2xx_can.c ****   }
1370:c:/Dropbox/AV_SmartWatch/toolchain_v3/src/libstm32f2\stm32f2xx_can.c ****   else if((CAN_FLAG & CAN_FLAGS_TSR) != (uint32_t)RESET)
 1359              		.loc 1 1370 0
 1360 0012 0A01     		lsls	r2, r1, #4
 1361 0014 01D5     		bpl	.L152
1371:c:/Dropbox/AV_SmartWatch/toolchain_v3/src/libstm32f2\stm32f2xx_can.c ****   { 
1372:c:/Dropbox/AV_SmartWatch/toolchain_v3/src/libstm32f2\stm32f2xx_can.c ****     /* Check the status of the specified CAN flag */
1373:c:/Dropbox/AV_SmartWatch/toolchain_v3/src/libstm32f2\stm32f2xx_can.c ****     if ((CANx->TSR & (CAN_FLAG & 0x000FFFFF)) != (uint32_t)RESET)
 1362              		.loc 1 1373 0
 1363 0016 8368     		ldr	r3, [r0, #8]
 1364 0018 03E0     		b	.L154
 1365              	.L152:
1374:c:/Dropbox/AV_SmartWatch/toolchain_v3/src/libstm32f2\stm32f2xx_can.c ****     { 
1375:c:/Dropbox/AV_SmartWatch/toolchain_v3/src/libstm32f2\stm32f2xx_can.c ****       /* CAN_FLAG is set */
1376:c:/Dropbox/AV_SmartWatch/toolchain_v3/src/libstm32f2\stm32f2xx_can.c ****       bitstatus = SET;
1377:c:/Dropbox/AV_SmartWatch/toolchain_v3/src/libstm32f2\stm32f2xx_can.c ****     }
1378:c:/Dropbox/AV_SmartWatch/toolchain_v3/src/libstm32f2\stm32f2xx_can.c ****     else
1379:c:/Dropbox/AV_SmartWatch/toolchain_v3/src/libstm32f2\stm32f2xx_can.c ****     { 
1380:c:/Dropbox/AV_SmartWatch/toolchain_v3/src/libstm32f2\stm32f2xx_can.c ****       /* CAN_FLAG is reset */
1381:c:/Dropbox/AV_SmartWatch/toolchain_v3/src/libstm32f2\stm32f2xx_can.c ****       bitstatus = RESET;
1382:c:/Dropbox/AV_SmartWatch/toolchain_v3/src/libstm32f2\stm32f2xx_can.c ****     }
1383:c:/Dropbox/AV_SmartWatch/toolchain_v3/src/libstm32f2\stm32f2xx_can.c ****   }
1384:c:/Dropbox/AV_SmartWatch/toolchain_v3/src/libstm32f2\stm32f2xx_can.c ****   else if((CAN_FLAG & CAN_FLAGS_RF0R) != (uint32_t)RESET)
 1366              		.loc 1 1384 0
 1367 001a 8B01     		lsls	r3, r1, #6
1385:c:/Dropbox/AV_SmartWatch/toolchain_v3/src/libstm32f2\stm32f2xx_can.c ****   { 
1386:c:/Dropbox/AV_SmartWatch/toolchain_v3/src/libstm32f2\stm32f2xx_can.c ****     /* Check the status of the specified CAN flag */
1387:c:/Dropbox/AV_SmartWatch/toolchain_v3/src/libstm32f2\stm32f2xx_can.c ****     if ((CANx->RF0R & (CAN_FLAG & 0x000FFFFF)) != (uint32_t)RESET)
 1368              		.loc 1 1387 0
 1369 001c 4CBF     		ite	mi
 1370 001e C368     		ldrmi	r3, [r0, #12]
1388:c:/Dropbox/AV_SmartWatch/toolchain_v3/src/libstm32f2\stm32f2xx_can.c ****     { 
1389:c:/Dropbox/AV_SmartWatch/toolchain_v3/src/libstm32f2\stm32f2xx_can.c ****       /* CAN_FLAG is set */
1390:c:/Dropbox/AV_SmartWatch/toolchain_v3/src/libstm32f2\stm32f2xx_can.c ****       bitstatus = SET;
1391:c:/Dropbox/AV_SmartWatch/toolchain_v3/src/libstm32f2\stm32f2xx_can.c ****     }
1392:c:/Dropbox/AV_SmartWatch/toolchain_v3/src/libstm32f2\stm32f2xx_can.c ****     else
1393:c:/Dropbox/AV_SmartWatch/toolchain_v3/src/libstm32f2\stm32f2xx_can.c ****     { 
1394:c:/Dropbox/AV_SmartWatch/toolchain_v3/src/libstm32f2\stm32f2xx_can.c ****       /* CAN_FLAG is reset */
1395:c:/Dropbox/AV_SmartWatch/toolchain_v3/src/libstm32f2\stm32f2xx_can.c ****       bitstatus = RESET;
1396:c:/Dropbox/AV_SmartWatch/toolchain_v3/src/libstm32f2\stm32f2xx_can.c ****     }
1397:c:/Dropbox/AV_SmartWatch/toolchain_v3/src/libstm32f2\stm32f2xx_can.c ****   }
1398:c:/Dropbox/AV_SmartWatch/toolchain_v3/src/libstm32f2\stm32f2xx_can.c ****   else /* If(CAN_FLAG & CAN_FLAGS_RF1R != (uint32_t)RESET) */
1399:c:/Dropbox/AV_SmartWatch/toolchain_v3/src/libstm32f2\stm32f2xx_can.c ****   { 
1400:c:/Dropbox/AV_SmartWatch/toolchain_v3/src/libstm32f2\stm32f2xx_can.c ****     /* Check the status of the specified CAN flag */
1401:c:/Dropbox/AV_SmartWatch/toolchain_v3/src/libstm32f2\stm32f2xx_can.c ****     if ((uint32_t)(CANx->RF1R & (CAN_FLAG & 0x000FFFFF)) != (uint32_t)RESET)
 1371              		.loc 1 1401 0
 1372 0020 0369     		ldrpl	r3, [r0, #16]
 1373              	.L154:
 1374 0022 23F07F40 		bic	r0, r3, #-16777216
 1375              	.LVL97:
 1376 0026 20F47002 		bic	r2, r0, #15728640
 1377 002a 0A42     		tst	r2, r1
1353:c:/Dropbox/AV_SmartWatch/toolchain_v3/src/libstm32f2\stm32f2xx_can.c ****       bitstatus = RESET;
 1378              		.loc 1 1353 0
 1379 002c 0CBF     		ite	eq
 1380 002e 0020     		moveq	r0, #0
 1381 0030 0120     		movne	r0, #1
 1382              	.LVL98:
1402:c:/Dropbox/AV_SmartWatch/toolchain_v3/src/libstm32f2\stm32f2xx_can.c ****     { 
1403:c:/Dropbox/AV_SmartWatch/toolchain_v3/src/libstm32f2\stm32f2xx_can.c ****       /* CAN_FLAG is set */
1404:c:/Dropbox/AV_SmartWatch/toolchain_v3/src/libstm32f2\stm32f2xx_can.c ****       bitstatus = SET;
1405:c:/Dropbox/AV_SmartWatch/toolchain_v3/src/libstm32f2\stm32f2xx_can.c ****     }
1406:c:/Dropbox/AV_SmartWatch/toolchain_v3/src/libstm32f2\stm32f2xx_can.c ****     else
1407:c:/Dropbox/AV_SmartWatch/toolchain_v3/src/libstm32f2\stm32f2xx_can.c ****     { 
1408:c:/Dropbox/AV_SmartWatch/toolchain_v3/src/libstm32f2\stm32f2xx_can.c ****       /* CAN_FLAG is reset */
1409:c:/Dropbox/AV_SmartWatch/toolchain_v3/src/libstm32f2\stm32f2xx_can.c ****       bitstatus = RESET;
1410:c:/Dropbox/AV_SmartWatch/toolchain_v3/src/libstm32f2\stm32f2xx_can.c ****     }
1411:c:/Dropbox/AV_SmartWatch/toolchain_v3/src/libstm32f2\stm32f2xx_can.c ****   }
1412:c:/Dropbox/AV_SmartWatch/toolchain_v3/src/libstm32f2\stm32f2xx_can.c ****   /* Return the CAN_FLAG status */
1413:c:/Dropbox/AV_SmartWatch/toolchain_v3/src/libstm32f2\stm32f2xx_can.c ****   return  bitstatus;
1414:c:/Dropbox/AV_SmartWatch/toolchain_v3/src/libstm32f2\stm32f2xx_can.c **** }
 1383              		.loc 1 1414 0
 1384 0032 7047     		bx	lr
 1385              		.cfi_endproc
 1386              	.LFE76:
 1388              		.section	.text.CAN_ClearFlag,"ax",%progbits
 1389              		.align	1
 1390              		.global	CAN_ClearFlag
 1391              		.thumb
 1392              		.thumb_func
 1394              	CAN_ClearFlag:
 1395              	.LFB77:
1415:c:/Dropbox/AV_SmartWatch/toolchain_v3/src/libstm32f2\stm32f2xx_can.c **** 
1416:c:/Dropbox/AV_SmartWatch/toolchain_v3/src/libstm32f2\stm32f2xx_can.c **** /**
1417:c:/Dropbox/AV_SmartWatch/toolchain_v3/src/libstm32f2\stm32f2xx_can.c ****   * @brief  Clears the CAN's pending flags.
1418:c:/Dropbox/AV_SmartWatch/toolchain_v3/src/libstm32f2\stm32f2xx_can.c ****   * @param  CANx: where x can be 1 or 2 to to select the CAN peripheral.
1419:c:/Dropbox/AV_SmartWatch/toolchain_v3/src/libstm32f2\stm32f2xx_can.c ****   * @param  CAN_FLAG: specifies the flag to clear.
1420:c:/Dropbox/AV_SmartWatch/toolchain_v3/src/libstm32f2\stm32f2xx_can.c ****   *          This parameter can be one of the following values:
1421:c:/Dropbox/AV_SmartWatch/toolchain_v3/src/libstm32f2\stm32f2xx_can.c ****   *            @arg CAN_FLAG_RQCP0: Request MailBox0 Flag
1422:c:/Dropbox/AV_SmartWatch/toolchain_v3/src/libstm32f2\stm32f2xx_can.c ****   *            @arg CAN_FLAG_RQCP1: Request MailBox1 Flag
1423:c:/Dropbox/AV_SmartWatch/toolchain_v3/src/libstm32f2\stm32f2xx_can.c ****   *            @arg CAN_FLAG_RQCP2: Request MailBox2 Flag 
1424:c:/Dropbox/AV_SmartWatch/toolchain_v3/src/libstm32f2\stm32f2xx_can.c ****   *            @arg CAN_FLAG_FF0: FIFO 0 Full Flag       
1425:c:/Dropbox/AV_SmartWatch/toolchain_v3/src/libstm32f2\stm32f2xx_can.c ****   *            @arg CAN_FLAG_FOV0: FIFO 0 Overrun Flag  
1426:c:/Dropbox/AV_SmartWatch/toolchain_v3/src/libstm32f2\stm32f2xx_can.c ****   *            @arg CAN_FLAG_FF1: FIFO 1 Full Flag        
1427:c:/Dropbox/AV_SmartWatch/toolchain_v3/src/libstm32f2\stm32f2xx_can.c ****   *            @arg CAN_FLAG_FOV1: FIFO 1 Overrun Flag     
1428:c:/Dropbox/AV_SmartWatch/toolchain_v3/src/libstm32f2\stm32f2xx_can.c ****   *            @arg CAN_FLAG_WKU: Wake up Flag
1429:c:/Dropbox/AV_SmartWatch/toolchain_v3/src/libstm32f2\stm32f2xx_can.c ****   *            @arg CAN_FLAG_SLAK: Sleep acknowledge Flag    
1430:c:/Dropbox/AV_SmartWatch/toolchain_v3/src/libstm32f2\stm32f2xx_can.c ****   *            @arg CAN_FLAG_LEC: Last error code Flag        
1431:c:/Dropbox/AV_SmartWatch/toolchain_v3/src/libstm32f2\stm32f2xx_can.c ****   * @retval None
1432:c:/Dropbox/AV_SmartWatch/toolchain_v3/src/libstm32f2\stm32f2xx_can.c ****   */
1433:c:/Dropbox/AV_SmartWatch/toolchain_v3/src/libstm32f2\stm32f2xx_can.c **** void CAN_ClearFlag(CAN_TypeDef* CANx, uint32_t CAN_FLAG)
1434:c:/Dropbox/AV_SmartWatch/toolchain_v3/src/libstm32f2\stm32f2xx_can.c **** {
 1396              		.loc 1 1434 0
 1397              		.cfi_startproc
 1398              		@ args = 0, pretend = 0, frame = 0
 1399              		@ frame_needed = 0, uses_anonymous_args = 0
 1400              		@ link register save eliminated.
 1401              	.LVL99:
1435:c:/Dropbox/AV_SmartWatch/toolchain_v3/src/libstm32f2\stm32f2xx_can.c ****   uint32_t flagtmp=0;
1436:c:/Dropbox/AV_SmartWatch/toolchain_v3/src/libstm32f2\stm32f2xx_can.c ****   /* Check the parameters */
1437:c:/Dropbox/AV_SmartWatch/toolchain_v3/src/libstm32f2\stm32f2xx_can.c ****   assert_param(IS_CAN_ALL_PERIPH(CANx));
1438:c:/Dropbox/AV_SmartWatch/toolchain_v3/src/libstm32f2\stm32f2xx_can.c ****   assert_param(IS_CAN_CLEAR_FLAG(CAN_FLAG));
1439:c:/Dropbox/AV_SmartWatch/toolchain_v3/src/libstm32f2\stm32f2xx_can.c ****   
1440:c:/Dropbox/AV_SmartWatch/toolchain_v3/src/libstm32f2\stm32f2xx_can.c ****   if (CAN_FLAG == CAN_FLAG_LEC) /* ESR register */
 1402              		.loc 1 1440 0
 1403 0000 0B4B     		ldr	r3, .L161
 1404 0002 9942     		cmp	r1, r3
 1405 0004 02D1     		bne	.L156
1441:c:/Dropbox/AV_SmartWatch/toolchain_v3/src/libstm32f2\stm32f2xx_can.c ****   {
1442:c:/Dropbox/AV_SmartWatch/toolchain_v3/src/libstm32f2\stm32f2xx_can.c ****     /* Clear the selected CAN flags */
1443:c:/Dropbox/AV_SmartWatch/toolchain_v3/src/libstm32f2\stm32f2xx_can.c ****     CANx->ESR = (uint32_t)RESET;
 1406              		.loc 1 1443 0
 1407 0006 0021     		movs	r1, #0
 1408              	.LVL100:
 1409 0008 8161     		str	r1, [r0, #24]
 1410 000a 7047     		bx	lr
 1411              	.LVL101:
 1412              	.L156:
1444:c:/Dropbox/AV_SmartWatch/toolchain_v3/src/libstm32f2\stm32f2xx_can.c ****   }
1445:c:/Dropbox/AV_SmartWatch/toolchain_v3/src/libstm32f2\stm32f2xx_can.c ****   else /* MSR or TSR or RF0R or RF1R */
1446:c:/Dropbox/AV_SmartWatch/toolchain_v3/src/libstm32f2\stm32f2xx_can.c ****   {
1447:c:/Dropbox/AV_SmartWatch/toolchain_v3/src/libstm32f2\stm32f2xx_can.c ****     flagtmp = CAN_FLAG & 0x000FFFFF;
 1413              		.loc 1 1447 0
 1414 000c 21F07F42 		bic	r2, r1, #-16777216
 1415 0010 22F47003 		bic	r3, r2, #15728640
 1416              	.LVL102:
1448:c:/Dropbox/AV_SmartWatch/toolchain_v3/src/libstm32f2\stm32f2xx_can.c **** 
1449:c:/Dropbox/AV_SmartWatch/toolchain_v3/src/libstm32f2\stm32f2xx_can.c ****     if ((CAN_FLAG & CAN_FLAGS_RF0R)!=(uint32_t)RESET)
 1417              		.loc 1 1449 0
 1418 0014 8A01     		lsls	r2, r1, #6
 1419 0016 01D5     		bpl	.L158
1450:c:/Dropbox/AV_SmartWatch/toolchain_v3/src/libstm32f2\stm32f2xx_can.c ****     {
1451:c:/Dropbox/AV_SmartWatch/toolchain_v3/src/libstm32f2\stm32f2xx_can.c ****       /* Receive Flags */
1452:c:/Dropbox/AV_SmartWatch/toolchain_v3/src/libstm32f2\stm32f2xx_can.c ****       CANx->RF0R = (uint32_t)(flagtmp);
 1420              		.loc 1 1452 0
 1421 0018 C360     		str	r3, [r0, #12]
 1422 001a 7047     		bx	lr
 1423              	.L158:
1453:c:/Dropbox/AV_SmartWatch/toolchain_v3/src/libstm32f2\stm32f2xx_can.c ****     }
1454:c:/Dropbox/AV_SmartWatch/toolchain_v3/src/libstm32f2\stm32f2xx_can.c ****     else if ((CAN_FLAG & CAN_FLAGS_RF1R)!=(uint32_t)RESET)
 1424              		.loc 1 1454 0
 1425 001c 4A01     		lsls	r2, r1, #5
 1426 001e 01D5     		bpl	.L159
1455:c:/Dropbox/AV_SmartWatch/toolchain_v3/src/libstm32f2\stm32f2xx_can.c ****     {
1456:c:/Dropbox/AV_SmartWatch/toolchain_v3/src/libstm32f2\stm32f2xx_can.c ****       /* Receive Flags */
1457:c:/Dropbox/AV_SmartWatch/toolchain_v3/src/libstm32f2\stm32f2xx_can.c ****       CANx->RF1R = (uint32_t)(flagtmp);
 1427              		.loc 1 1457 0
 1428 0020 0361     		str	r3, [r0, #16]
 1429 0022 7047     		bx	lr
 1430              	.L159:
1458:c:/Dropbox/AV_SmartWatch/toolchain_v3/src/libstm32f2\stm32f2xx_can.c ****     }
1459:c:/Dropbox/AV_SmartWatch/toolchain_v3/src/libstm32f2\stm32f2xx_can.c ****     else if ((CAN_FLAG & CAN_FLAGS_TSR)!=(uint32_t)RESET)
 1431              		.loc 1 1459 0
 1432 0024 0A01     		lsls	r2, r1, #4
1460:c:/Dropbox/AV_SmartWatch/toolchain_v3/src/libstm32f2\stm32f2xx_can.c ****     {
1461:c:/Dropbox/AV_SmartWatch/toolchain_v3/src/libstm32f2\stm32f2xx_can.c ****       /* Transmit Flags */
1462:c:/Dropbox/AV_SmartWatch/toolchain_v3/src/libstm32f2\stm32f2xx_can.c ****       CANx->TSR = (uint32_t)(flagtmp);
 1433              		.loc 1 1462 0
 1434 0026 4CBF     		ite	mi
 1435 0028 8360     		strmi	r3, [r0, #8]
1463:c:/Dropbox/AV_SmartWatch/toolchain_v3/src/libstm32f2\stm32f2xx_can.c ****     }
1464:c:/Dropbox/AV_SmartWatch/toolchain_v3/src/libstm32f2\stm32f2xx_can.c ****     else /* If((CAN_FLAG & CAN_FLAGS_MSR)!=(uint32_t)RESET) */
1465:c:/Dropbox/AV_SmartWatch/toolchain_v3/src/libstm32f2\stm32f2xx_can.c ****     {
1466:c:/Dropbox/AV_SmartWatch/toolchain_v3/src/libstm32f2\stm32f2xx_can.c ****       /* Operating mode Flags */
1467:c:/Dropbox/AV_SmartWatch/toolchain_v3/src/libstm32f2\stm32f2xx_can.c ****       CANx->MSR = (uint32_t)(flagtmp);
 1436              		.loc 1 1467 0
 1437 002a 4360     		strpl	r3, [r0, #4]
 1438 002c 7047     		bx	lr
 1439              	.L162:
 1440 002e 00BF     		.align	2
 1441              	.L161:
 1442 0030 7000F030 		.word	821035120
 1443              		.cfi_endproc
 1444              	.LFE77:
 1446              		.section	.text.CAN_GetITStatus,"ax",%progbits
 1447              		.align	1
 1448              		.global	CAN_GetITStatus
 1449              		.thumb
 1450              		.thumb_func
 1452              	CAN_GetITStatus:
 1453              	.LFB78:
1468:c:/Dropbox/AV_SmartWatch/toolchain_v3/src/libstm32f2\stm32f2xx_can.c ****     }
1469:c:/Dropbox/AV_SmartWatch/toolchain_v3/src/libstm32f2\stm32f2xx_can.c ****   }
1470:c:/Dropbox/AV_SmartWatch/toolchain_v3/src/libstm32f2\stm32f2xx_can.c **** }
1471:c:/Dropbox/AV_SmartWatch/toolchain_v3/src/libstm32f2\stm32f2xx_can.c **** 
1472:c:/Dropbox/AV_SmartWatch/toolchain_v3/src/libstm32f2\stm32f2xx_can.c **** /**
1473:c:/Dropbox/AV_SmartWatch/toolchain_v3/src/libstm32f2\stm32f2xx_can.c ****   * @brief  Checks whether the specified CANx interrupt has occurred or not.
1474:c:/Dropbox/AV_SmartWatch/toolchain_v3/src/libstm32f2\stm32f2xx_can.c ****   * @param  CANx: where x can be 1 or 2 to to select the CAN peripheral.
1475:c:/Dropbox/AV_SmartWatch/toolchain_v3/src/libstm32f2\stm32f2xx_can.c ****   * @param  CAN_IT: specifies the CAN interrupt source to check.
1476:c:/Dropbox/AV_SmartWatch/toolchain_v3/src/libstm32f2\stm32f2xx_can.c ****   *          This parameter can be one of the following values:
1477:c:/Dropbox/AV_SmartWatch/toolchain_v3/src/libstm32f2\stm32f2xx_can.c ****   *            @arg CAN_IT_TME: Transmit mailbox empty Interrupt 
1478:c:/Dropbox/AV_SmartWatch/toolchain_v3/src/libstm32f2\stm32f2xx_can.c ****   *            @arg CAN_IT_FMP0: FIFO 0 message pending Interrupt 
1479:c:/Dropbox/AV_SmartWatch/toolchain_v3/src/libstm32f2\stm32f2xx_can.c ****   *            @arg CAN_IT_FF0: FIFO 0 full Interrupt
1480:c:/Dropbox/AV_SmartWatch/toolchain_v3/src/libstm32f2\stm32f2xx_can.c ****   *            @arg CAN_IT_FOV0: FIFO 0 overrun Interrupt
1481:c:/Dropbox/AV_SmartWatch/toolchain_v3/src/libstm32f2\stm32f2xx_can.c ****   *            @arg CAN_IT_FMP1: FIFO 1 message pending Interrupt 
1482:c:/Dropbox/AV_SmartWatch/toolchain_v3/src/libstm32f2\stm32f2xx_can.c ****   *            @arg CAN_IT_FF1: FIFO 1 full Interrupt
1483:c:/Dropbox/AV_SmartWatch/toolchain_v3/src/libstm32f2\stm32f2xx_can.c ****   *            @arg CAN_IT_FOV1: FIFO 1 overrun Interrupt
1484:c:/Dropbox/AV_SmartWatch/toolchain_v3/src/libstm32f2\stm32f2xx_can.c ****   *            @arg CAN_IT_WKU: Wake-up Interrupt
1485:c:/Dropbox/AV_SmartWatch/toolchain_v3/src/libstm32f2\stm32f2xx_can.c ****   *            @arg CAN_IT_SLK: Sleep acknowledge Interrupt  
1486:c:/Dropbox/AV_SmartWatch/toolchain_v3/src/libstm32f2\stm32f2xx_can.c ****   *            @arg CAN_IT_EWG: Error warning Interrupt
1487:c:/Dropbox/AV_SmartWatch/toolchain_v3/src/libstm32f2\stm32f2xx_can.c ****   *            @arg CAN_IT_EPV: Error passive Interrupt
1488:c:/Dropbox/AV_SmartWatch/toolchain_v3/src/libstm32f2\stm32f2xx_can.c ****   *            @arg CAN_IT_BOF: Bus-off Interrupt  
1489:c:/Dropbox/AV_SmartWatch/toolchain_v3/src/libstm32f2\stm32f2xx_can.c ****   *            @arg CAN_IT_LEC: Last error code Interrupt
1490:c:/Dropbox/AV_SmartWatch/toolchain_v3/src/libstm32f2\stm32f2xx_can.c ****   *            @arg CAN_IT_ERR: Error Interrupt
1491:c:/Dropbox/AV_SmartWatch/toolchain_v3/src/libstm32f2\stm32f2xx_can.c ****   * @retval The current state of CAN_IT (SET or RESET).
1492:c:/Dropbox/AV_SmartWatch/toolchain_v3/src/libstm32f2\stm32f2xx_can.c ****   */
1493:c:/Dropbox/AV_SmartWatch/toolchain_v3/src/libstm32f2\stm32f2xx_can.c **** ITStatus CAN_GetITStatus(CAN_TypeDef* CANx, uint32_t CAN_IT)
1494:c:/Dropbox/AV_SmartWatch/toolchain_v3/src/libstm32f2\stm32f2xx_can.c **** {
 1454              		.loc 1 1494 0
 1455              		.cfi_startproc
 1456              		@ args = 0, pretend = 0, frame = 0
 1457              		@ frame_needed = 0, uses_anonymous_args = 0
 1458              		@ link register save eliminated.
 1459              	.LVL103:
1495:c:/Dropbox/AV_SmartWatch/toolchain_v3/src/libstm32f2\stm32f2xx_can.c ****   ITStatus itstatus = RESET;
1496:c:/Dropbox/AV_SmartWatch/toolchain_v3/src/libstm32f2\stm32f2xx_can.c ****   /* Check the parameters */
1497:c:/Dropbox/AV_SmartWatch/toolchain_v3/src/libstm32f2\stm32f2xx_can.c ****   assert_param(IS_CAN_ALL_PERIPH(CANx));
1498:c:/Dropbox/AV_SmartWatch/toolchain_v3/src/libstm32f2\stm32f2xx_can.c ****   assert_param(IS_CAN_IT(CAN_IT));
1499:c:/Dropbox/AV_SmartWatch/toolchain_v3/src/libstm32f2\stm32f2xx_can.c ****   
1500:c:/Dropbox/AV_SmartWatch/toolchain_v3/src/libstm32f2\stm32f2xx_can.c ****   /* check the interrupt enable bit */
1501:c:/Dropbox/AV_SmartWatch/toolchain_v3/src/libstm32f2\stm32f2xx_can.c ****  if((CANx->IER & CAN_IT) != RESET)
 1460              		.loc 1 1501 0
 1461 0000 4369     		ldr	r3, [r0, #20]
 1462 0002 11EA0302 		ands	r2, r1, r3
 1463 0006 5CD0     		beq	.L182
1502:c:/Dropbox/AV_SmartWatch/toolchain_v3/src/libstm32f2\stm32f2xx_can.c ****  {
1503:c:/Dropbox/AV_SmartWatch/toolchain_v3/src/libstm32f2\stm32f2xx_can.c ****    /* in case the Interrupt is enabled, .... */
1504:c:/Dropbox/AV_SmartWatch/toolchain_v3/src/libstm32f2\stm32f2xx_can.c ****     switch (CAN_IT)
 1464              		.loc 1 1504 0
 1465 0008 4029     		cmp	r1, #64
 1466 000a 42D0     		beq	.L171
 1467 000c 10D8     		bhi	.L179
 1468 000e 0429     		cmp	r1, #4
 1469 0010 33D0     		beq	.L167
 1470 0012 05D8     		bhi	.L180
 1471 0014 0129     		cmp	r1, #1
 1472 0016 27D0     		beq	.L165
 1473 0018 0229     		cmp	r1, #2
 1474 001a 54D1     		bne	.L183
1505:c:/Dropbox/AV_SmartWatch/toolchain_v3/src/libstm32f2\stm32f2xx_can.c ****     {
1506:c:/Dropbox/AV_SmartWatch/toolchain_v3/src/libstm32f2\stm32f2xx_can.c ****       case CAN_IT_TME:
1507:c:/Dropbox/AV_SmartWatch/toolchain_v3/src/libstm32f2\stm32f2xx_can.c ****         /* Check CAN_TSR_RQCPx bits */
1508:c:/Dropbox/AV_SmartWatch/toolchain_v3/src/libstm32f2\stm32f2xx_can.c ****         itstatus = CheckITStatus(CANx->TSR, CAN_TSR_RQCP0|CAN_TSR_RQCP1|CAN_TSR_RQCP2);  
1509:c:/Dropbox/AV_SmartWatch/toolchain_v3/src/libstm32f2\stm32f2xx_can.c ****         break;
1510:c:/Dropbox/AV_SmartWatch/toolchain_v3/src/libstm32f2\stm32f2xx_can.c ****       case CAN_IT_FMP0:
1511:c:/Dropbox/AV_SmartWatch/toolchain_v3/src/libstm32f2\stm32f2xx_can.c ****         /* Check CAN_RF0R_FMP0 bit */
1512:c:/Dropbox/AV_SmartWatch/toolchain_v3/src/libstm32f2\stm32f2xx_can.c ****         itstatus = CheckITStatus(CANx->RF0R, CAN_RF0R_FMP0);  
 1475              		.loc 1 1512 0
 1476 001c C268     		ldr	r2, [r0, #12]
 1477              	.LVL104:
 1478 001e 2FE0     		b	.L185
 1479              	.LVL105:
 1480              	.L180:
1504:c:/Dropbox/AV_SmartWatch/toolchain_v3/src/libstm32f2\stm32f2xx_can.c ****     switch (CAN_IT)
 1481              		.loc 1 1504 0
 1482 0020 1029     		cmp	r1, #16
 1483 0022 2CD0     		beq	.L169
 1484 0024 2029     		cmp	r1, #32
 1485 0026 30D0     		beq	.L170
 1486 0028 0829     		cmp	r1, #8
 1487 002a 4CD1     		bne	.L183
1513:c:/Dropbox/AV_SmartWatch/toolchain_v3/src/libstm32f2\stm32f2xx_can.c ****         break;
1514:c:/Dropbox/AV_SmartWatch/toolchain_v3/src/libstm32f2\stm32f2xx_can.c ****       case CAN_IT_FF0:
1515:c:/Dropbox/AV_SmartWatch/toolchain_v3/src/libstm32f2\stm32f2xx_can.c ****         /* Check CAN_RF0R_FULL0 bit */
1516:c:/Dropbox/AV_SmartWatch/toolchain_v3/src/libstm32f2\stm32f2xx_can.c ****         itstatus = CheckITStatus(CANx->RF0R, CAN_RF0R_FULL0);  
1517:c:/Dropbox/AV_SmartWatch/toolchain_v3/src/libstm32f2\stm32f2xx_can.c ****         break;
1518:c:/Dropbox/AV_SmartWatch/toolchain_v3/src/libstm32f2\stm32f2xx_can.c ****       case CAN_IT_FOV0:
1519:c:/Dropbox/AV_SmartWatch/toolchain_v3/src/libstm32f2\stm32f2xx_can.c ****         /* Check CAN_RF0R_FOVR0 bit */
1520:c:/Dropbox/AV_SmartWatch/toolchain_v3/src/libstm32f2\stm32f2xx_can.c ****         itstatus = CheckITStatus(CANx->RF0R, CAN_RF0R_FOVR0);  
 1488              		.loc 1 1520 0
 1489 002c C268     		ldr	r2, [r0, #12]
 1490              	.LVL106:
 1491 002e 35E0     		b	.L187
 1492              	.LVL107:
 1493              	.L179:
1504:c:/Dropbox/AV_SmartWatch/toolchain_v3/src/libstm32f2\stm32f2xx_can.c ****     switch (CAN_IT)
 1494              		.loc 1 1504 0
 1495 0030 B1F5006F 		cmp	r1, #2048
 1496 0034 3BD0     		beq	.L175
 1497 0036 0CD8     		bhi	.L181
 1498 0038 B1F5007F 		cmp	r1, #512
 1499 003c 31D0     		beq	.L173
 1500 003e B1F5806F 		cmp	r1, #1024
 1501 0042 32D0     		beq	.L174
 1502 0044 B1F5807F 		cmp	r1, #256
 1503 0048 3DD1     		bne	.L183
1521:c:/Dropbox/AV_SmartWatch/toolchain_v3/src/libstm32f2\stm32f2xx_can.c ****         break;
1522:c:/Dropbox/AV_SmartWatch/toolchain_v3/src/libstm32f2\stm32f2xx_can.c ****       case CAN_IT_FMP1:
1523:c:/Dropbox/AV_SmartWatch/toolchain_v3/src/libstm32f2\stm32f2xx_can.c ****         /* Check CAN_RF1R_FMP1 bit */
1524:c:/Dropbox/AV_SmartWatch/toolchain_v3/src/libstm32f2\stm32f2xx_can.c ****         itstatus = CheckITStatus(CANx->RF1R, CAN_RF1R_FMP1);  
1525:c:/Dropbox/AV_SmartWatch/toolchain_v3/src/libstm32f2\stm32f2xx_can.c ****         break;
1526:c:/Dropbox/AV_SmartWatch/toolchain_v3/src/libstm32f2\stm32f2xx_can.c ****       case CAN_IT_FF1:
1527:c:/Dropbox/AV_SmartWatch/toolchain_v3/src/libstm32f2\stm32f2xx_can.c ****         /* Check CAN_RF1R_FULL1 bit */
1528:c:/Dropbox/AV_SmartWatch/toolchain_v3/src/libstm32f2\stm32f2xx_can.c ****         itstatus = CheckITStatus(CANx->RF1R, CAN_RF1R_FULL1);  
1529:c:/Dropbox/AV_SmartWatch/toolchain_v3/src/libstm32f2\stm32f2xx_can.c ****         break;
1530:c:/Dropbox/AV_SmartWatch/toolchain_v3/src/libstm32f2\stm32f2xx_can.c ****       case CAN_IT_FOV1:
1531:c:/Dropbox/AV_SmartWatch/toolchain_v3/src/libstm32f2\stm32f2xx_can.c ****         /* Check CAN_RF1R_FOVR1 bit */
1532:c:/Dropbox/AV_SmartWatch/toolchain_v3/src/libstm32f2\stm32f2xx_can.c ****         itstatus = CheckITStatus(CANx->RF1R, CAN_RF1R_FOVR1);  
1533:c:/Dropbox/AV_SmartWatch/toolchain_v3/src/libstm32f2\stm32f2xx_can.c ****         break;
1534:c:/Dropbox/AV_SmartWatch/toolchain_v3/src/libstm32f2\stm32f2xx_can.c ****       case CAN_IT_WKU:
1535:c:/Dropbox/AV_SmartWatch/toolchain_v3/src/libstm32f2\stm32f2xx_can.c ****         /* Check CAN_MSR_WKUI bit */
1536:c:/Dropbox/AV_SmartWatch/toolchain_v3/src/libstm32f2\stm32f2xx_can.c ****         itstatus = CheckITStatus(CANx->MSR, CAN_MSR_WKUI);  
1537:c:/Dropbox/AV_SmartWatch/toolchain_v3/src/libstm32f2\stm32f2xx_can.c ****         break;
1538:c:/Dropbox/AV_SmartWatch/toolchain_v3/src/libstm32f2\stm32f2xx_can.c ****       case CAN_IT_SLK:
1539:c:/Dropbox/AV_SmartWatch/toolchain_v3/src/libstm32f2\stm32f2xx_can.c ****         /* Check CAN_MSR_SLAKI bit */
1540:c:/Dropbox/AV_SmartWatch/toolchain_v3/src/libstm32f2\stm32f2xx_can.c ****         itstatus = CheckITStatus(CANx->MSR, CAN_MSR_SLAKI);  
1541:c:/Dropbox/AV_SmartWatch/toolchain_v3/src/libstm32f2\stm32f2xx_can.c ****         break;
1542:c:/Dropbox/AV_SmartWatch/toolchain_v3/src/libstm32f2\stm32f2xx_can.c ****       case CAN_IT_EWG:
1543:c:/Dropbox/AV_SmartWatch/toolchain_v3/src/libstm32f2\stm32f2xx_can.c ****         /* Check CAN_ESR_EWGF bit */
1544:c:/Dropbox/AV_SmartWatch/toolchain_v3/src/libstm32f2\stm32f2xx_can.c ****         itstatus = CheckITStatus(CANx->ESR, CAN_ESR_EWGF);  
 1504              		.loc 1 1544 0
 1505 004a 8069     		ldr	r0, [r0, #24]
 1506              	.LVL108:
1545:c:/Dropbox/AV_SmartWatch/toolchain_v3/src/libstm32f2\stm32f2xx_can.c ****         break;
1546:c:/Dropbox/AV_SmartWatch/toolchain_v3/src/libstm32f2\stm32f2xx_can.c ****       case CAN_IT_EPV:
1547:c:/Dropbox/AV_SmartWatch/toolchain_v3/src/libstm32f2\stm32f2xx_can.c ****         /* Check CAN_ESR_EPVF bit */
1548:c:/Dropbox/AV_SmartWatch/toolchain_v3/src/libstm32f2\stm32f2xx_can.c ****         itstatus = CheckITStatus(CANx->ESR, CAN_ESR_EPVF);  
1549:c:/Dropbox/AV_SmartWatch/toolchain_v3/src/libstm32f2\stm32f2xx_can.c ****         break;
1550:c:/Dropbox/AV_SmartWatch/toolchain_v3/src/libstm32f2\stm32f2xx_can.c ****       case CAN_IT_BOF:
1551:c:/Dropbox/AV_SmartWatch/toolchain_v3/src/libstm32f2\stm32f2xx_can.c ****         /* Check CAN_ESR_BOFF bit */
1552:c:/Dropbox/AV_SmartWatch/toolchain_v3/src/libstm32f2\stm32f2xx_can.c ****         itstatus = CheckITStatus(CANx->ESR, CAN_ESR_BOFF);  
1553:c:/Dropbox/AV_SmartWatch/toolchain_v3/src/libstm32f2\stm32f2xx_can.c ****         break;
1554:c:/Dropbox/AV_SmartWatch/toolchain_v3/src/libstm32f2\stm32f2xx_can.c ****       case CAN_IT_LEC:
1555:c:/Dropbox/AV_SmartWatch/toolchain_v3/src/libstm32f2\stm32f2xx_can.c ****         /* Check CAN_ESR_LEC bit */
1556:c:/Dropbox/AV_SmartWatch/toolchain_v3/src/libstm32f2\stm32f2xx_can.c ****         itstatus = CheckITStatus(CANx->ESR, CAN_ESR_LEC);  
1557:c:/Dropbox/AV_SmartWatch/toolchain_v3/src/libstm32f2\stm32f2xx_can.c ****         break;
1558:c:/Dropbox/AV_SmartWatch/toolchain_v3/src/libstm32f2\stm32f2xx_can.c ****       case CAN_IT_ERR:
1559:c:/Dropbox/AV_SmartWatch/toolchain_v3/src/libstm32f2\stm32f2xx_can.c ****         /* Check CAN_MSR_ERRI bit */ 
1560:c:/Dropbox/AV_SmartWatch/toolchain_v3/src/libstm32f2\stm32f2xx_can.c ****         itstatus = CheckITStatus(CANx->MSR, CAN_MSR_ERRI); 
1561:c:/Dropbox/AV_SmartWatch/toolchain_v3/src/libstm32f2\stm32f2xx_can.c ****         break;
1562:c:/Dropbox/AV_SmartWatch/toolchain_v3/src/libstm32f2\stm32f2xx_can.c ****       default:
1563:c:/Dropbox/AV_SmartWatch/toolchain_v3/src/libstm32f2\stm32f2xx_can.c ****         /* in case of error, return RESET */
1564:c:/Dropbox/AV_SmartWatch/toolchain_v3/src/libstm32f2\stm32f2xx_can.c ****         itstatus = RESET;
1565:c:/Dropbox/AV_SmartWatch/toolchain_v3/src/libstm32f2\stm32f2xx_can.c ****         break;
1566:c:/Dropbox/AV_SmartWatch/toolchain_v3/src/libstm32f2\stm32f2xx_can.c ****     }
1567:c:/Dropbox/AV_SmartWatch/toolchain_v3/src/libstm32f2\stm32f2xx_can.c ****   }
1568:c:/Dropbox/AV_SmartWatch/toolchain_v3/src/libstm32f2\stm32f2xx_can.c ****   else
1569:c:/Dropbox/AV_SmartWatch/toolchain_v3/src/libstm32f2\stm32f2xx_can.c ****   {
1570:c:/Dropbox/AV_SmartWatch/toolchain_v3/src/libstm32f2\stm32f2xx_can.c ****    /* in case the Interrupt is not enabled, return RESET */
1571:c:/Dropbox/AV_SmartWatch/toolchain_v3/src/libstm32f2\stm32f2xx_can.c ****     itstatus  = RESET;
1572:c:/Dropbox/AV_SmartWatch/toolchain_v3/src/libstm32f2\stm32f2xx_can.c ****   }
1573:c:/Dropbox/AV_SmartWatch/toolchain_v3/src/libstm32f2\stm32f2xx_can.c ****   
1574:c:/Dropbox/AV_SmartWatch/toolchain_v3/src/libstm32f2\stm32f2xx_can.c ****   /* Return the CAN_IT status */
1575:c:/Dropbox/AV_SmartWatch/toolchain_v3/src/libstm32f2\stm32f2xx_can.c ****   return  itstatus;
1576:c:/Dropbox/AV_SmartWatch/toolchain_v3/src/libstm32f2\stm32f2xx_can.c **** }
1577:c:/Dropbox/AV_SmartWatch/toolchain_v3/src/libstm32f2\stm32f2xx_can.c **** 
1578:c:/Dropbox/AV_SmartWatch/toolchain_v3/src/libstm32f2\stm32f2xx_can.c **** /**
1579:c:/Dropbox/AV_SmartWatch/toolchain_v3/src/libstm32f2\stm32f2xx_can.c ****   * @brief  Clears the CANx's interrupt pending bits.
1580:c:/Dropbox/AV_SmartWatch/toolchain_v3/src/libstm32f2\stm32f2xx_can.c ****   * @param  CANx: where x can be 1 or 2 to to select the CAN peripheral.
1581:c:/Dropbox/AV_SmartWatch/toolchain_v3/src/libstm32f2\stm32f2xx_can.c ****   * @param  CAN_IT: specifies the interrupt pending bit to clear.
1582:c:/Dropbox/AV_SmartWatch/toolchain_v3/src/libstm32f2\stm32f2xx_can.c ****   *          This parameter can be one of the following values:
1583:c:/Dropbox/AV_SmartWatch/toolchain_v3/src/libstm32f2\stm32f2xx_can.c ****   *            @arg CAN_IT_TME: Transmit mailbox empty Interrupt
1584:c:/Dropbox/AV_SmartWatch/toolchain_v3/src/libstm32f2\stm32f2xx_can.c ****   *            @arg CAN_IT_FF0: FIFO 0 full Interrupt
1585:c:/Dropbox/AV_SmartWatch/toolchain_v3/src/libstm32f2\stm32f2xx_can.c ****   *            @arg CAN_IT_FOV0: FIFO 0 overrun Interrupt
1586:c:/Dropbox/AV_SmartWatch/toolchain_v3/src/libstm32f2\stm32f2xx_can.c ****   *            @arg CAN_IT_FF1: FIFO 1 full Interrupt
1587:c:/Dropbox/AV_SmartWatch/toolchain_v3/src/libstm32f2\stm32f2xx_can.c ****   *            @arg CAN_IT_FOV1: FIFO 1 overrun Interrupt
1588:c:/Dropbox/AV_SmartWatch/toolchain_v3/src/libstm32f2\stm32f2xx_can.c ****   *            @arg CAN_IT_WKU: Wake-up Interrupt
1589:c:/Dropbox/AV_SmartWatch/toolchain_v3/src/libstm32f2\stm32f2xx_can.c ****   *            @arg CAN_IT_SLK: Sleep acknowledge Interrupt  
1590:c:/Dropbox/AV_SmartWatch/toolchain_v3/src/libstm32f2\stm32f2xx_can.c ****   *            @arg CAN_IT_EWG: Error warning Interrupt
1591:c:/Dropbox/AV_SmartWatch/toolchain_v3/src/libstm32f2\stm32f2xx_can.c ****   *            @arg CAN_IT_EPV: Error passive Interrupt
1592:c:/Dropbox/AV_SmartWatch/toolchain_v3/src/libstm32f2\stm32f2xx_can.c ****   *            @arg CAN_IT_BOF: Bus-off Interrupt  
1593:c:/Dropbox/AV_SmartWatch/toolchain_v3/src/libstm32f2\stm32f2xx_can.c ****   *            @arg CAN_IT_LEC: Last error code Interrupt
1594:c:/Dropbox/AV_SmartWatch/toolchain_v3/src/libstm32f2\stm32f2xx_can.c ****   *            @arg CAN_IT_ERR: Error Interrupt 
1595:c:/Dropbox/AV_SmartWatch/toolchain_v3/src/libstm32f2\stm32f2xx_can.c ****   * @retval None
1596:c:/Dropbox/AV_SmartWatch/toolchain_v3/src/libstm32f2\stm32f2xx_can.c ****   */
1597:c:/Dropbox/AV_SmartWatch/toolchain_v3/src/libstm32f2\stm32f2xx_can.c **** void CAN_ClearITPendingBit(CAN_TypeDef* CANx, uint32_t CAN_IT)
1598:c:/Dropbox/AV_SmartWatch/toolchain_v3/src/libstm32f2\stm32f2xx_can.c **** {
1599:c:/Dropbox/AV_SmartWatch/toolchain_v3/src/libstm32f2\stm32f2xx_can.c ****   /* Check the parameters */
1600:c:/Dropbox/AV_SmartWatch/toolchain_v3/src/libstm32f2\stm32f2xx_can.c ****   assert_param(IS_CAN_ALL_PERIPH(CANx));
1601:c:/Dropbox/AV_SmartWatch/toolchain_v3/src/libstm32f2\stm32f2xx_can.c ****   assert_param(IS_CAN_CLEAR_IT(CAN_IT));
1602:c:/Dropbox/AV_SmartWatch/toolchain_v3/src/libstm32f2\stm32f2xx_can.c **** 
1603:c:/Dropbox/AV_SmartWatch/toolchain_v3/src/libstm32f2\stm32f2xx_can.c ****   switch (CAN_IT)
1604:c:/Dropbox/AV_SmartWatch/toolchain_v3/src/libstm32f2\stm32f2xx_can.c ****   {
1605:c:/Dropbox/AV_SmartWatch/toolchain_v3/src/libstm32f2\stm32f2xx_can.c ****     case CAN_IT_TME:
1606:c:/Dropbox/AV_SmartWatch/toolchain_v3/src/libstm32f2\stm32f2xx_can.c ****       /* Clear CAN_TSR_RQCPx (rc_w1)*/
1607:c:/Dropbox/AV_SmartWatch/toolchain_v3/src/libstm32f2\stm32f2xx_can.c ****       CANx->TSR = CAN_TSR_RQCP0|CAN_TSR_RQCP1|CAN_TSR_RQCP2;  
1608:c:/Dropbox/AV_SmartWatch/toolchain_v3/src/libstm32f2\stm32f2xx_can.c ****       break;
1609:c:/Dropbox/AV_SmartWatch/toolchain_v3/src/libstm32f2\stm32f2xx_can.c ****     case CAN_IT_FF0:
1610:c:/Dropbox/AV_SmartWatch/toolchain_v3/src/libstm32f2\stm32f2xx_can.c ****       /* Clear CAN_RF0R_FULL0 (rc_w1)*/
1611:c:/Dropbox/AV_SmartWatch/toolchain_v3/src/libstm32f2\stm32f2xx_can.c ****       CANx->RF0R = CAN_RF0R_FULL0; 
1612:c:/Dropbox/AV_SmartWatch/toolchain_v3/src/libstm32f2\stm32f2xx_can.c ****       break;
1613:c:/Dropbox/AV_SmartWatch/toolchain_v3/src/libstm32f2\stm32f2xx_can.c ****     case CAN_IT_FOV0:
1614:c:/Dropbox/AV_SmartWatch/toolchain_v3/src/libstm32f2\stm32f2xx_can.c ****       /* Clear CAN_RF0R_FOVR0 (rc_w1)*/
1615:c:/Dropbox/AV_SmartWatch/toolchain_v3/src/libstm32f2\stm32f2xx_can.c ****       CANx->RF0R = CAN_RF0R_FOVR0; 
1616:c:/Dropbox/AV_SmartWatch/toolchain_v3/src/libstm32f2\stm32f2xx_can.c ****       break;
1617:c:/Dropbox/AV_SmartWatch/toolchain_v3/src/libstm32f2\stm32f2xx_can.c ****     case CAN_IT_FF1:
1618:c:/Dropbox/AV_SmartWatch/toolchain_v3/src/libstm32f2\stm32f2xx_can.c ****       /* Clear CAN_RF1R_FULL1 (rc_w1)*/
1619:c:/Dropbox/AV_SmartWatch/toolchain_v3/src/libstm32f2\stm32f2xx_can.c ****       CANx->RF1R = CAN_RF1R_FULL1;  
1620:c:/Dropbox/AV_SmartWatch/toolchain_v3/src/libstm32f2\stm32f2xx_can.c ****       break;
1621:c:/Dropbox/AV_SmartWatch/toolchain_v3/src/libstm32f2\stm32f2xx_can.c ****     case CAN_IT_FOV1:
