   1              		.syntax unified
   2              		.cpu cortex-m3
   3              		.fpu softvfp
   4              		.eabi_attribute 20, 1
   5              		.eabi_attribute 21, 1
   6              		.eabi_attribute 23, 3
   7              		.eabi_attribute 24, 1
   8              		.eabi_attribute 25, 1
   9              		.eabi_attribute 26, 1
  10              		.eabi_attribute 30, 4
  11              		.eabi_attribute 34, 1
  12              		.eabi_attribute 18, 4
  13              		.thumb
  14              		.file	"system_stm32f2xx.c"
  15              		.text
  16              	.Ltext0:
  17              		.cfi_sections	.debug_frame
  18              		.section	.text.SystemInit,"ax",%progbits
  19              		.align	1
  20              		.global	SystemInit
  21              		.thumb
  22              		.thumb_func
  24              	SystemInit:
  25              	.LFB56:
  26              		.file 1 "c:/Dropbox/AV_SmartWatch/toolchain_v3/src/libstm32f2/system_stm32f2xx.c"
   1:c:/Dropbox/AV_SmartWatch/toolchain_v3/src/libstm32f2\system_stm32f2xx.c **** /**
   2:c:/Dropbox/AV_SmartWatch/toolchain_v3/src/libstm32f2\system_stm32f2xx.c ****   ******************************************************************************
   3:c:/Dropbox/AV_SmartWatch/toolchain_v3/src/libstm32f2\system_stm32f2xx.c ****   * @file    system_stm32f2xx.c
   4:c:/Dropbox/AV_SmartWatch/toolchain_v3/src/libstm32f2\system_stm32f2xx.c ****   * @author  MCD Application Team
   5:c:/Dropbox/AV_SmartWatch/toolchain_v3/src/libstm32f2\system_stm32f2xx.c ****   * @version V1.3.0
   6:c:/Dropbox/AV_SmartWatch/toolchain_v3/src/libstm32f2\system_stm32f2xx.c ****   * @date    14-January-2013
   7:c:/Dropbox/AV_SmartWatch/toolchain_v3/src/libstm32f2\system_stm32f2xx.c ****   * @brief   CMSIS Cortex-M3 Device Peripheral Access Layer System Source File.
   8:c:/Dropbox/AV_SmartWatch/toolchain_v3/src/libstm32f2\system_stm32f2xx.c ****   *          This file contains the system clock configuration for STM32F2xx devices,
   9:c:/Dropbox/AV_SmartWatch/toolchain_v3/src/libstm32f2\system_stm32f2xx.c ****   *          and is generated by the clock configuration tool
  10:c:/Dropbox/AV_SmartWatch/toolchain_v3/src/libstm32f2\system_stm32f2xx.c ****   *          STM32f2xx_Clock_Configuration_V1.2.0.xls
  11:c:/Dropbox/AV_SmartWatch/toolchain_v3/src/libstm32f2\system_stm32f2xx.c ****   *             
  12:c:/Dropbox/AV_SmartWatch/toolchain_v3/src/libstm32f2\system_stm32f2xx.c ****   * 1.  This file provides two functions and one global variable to be called from 
  13:c:/Dropbox/AV_SmartWatch/toolchain_v3/src/libstm32f2\system_stm32f2xx.c ****   *     user application:
  14:c:/Dropbox/AV_SmartWatch/toolchain_v3/src/libstm32f2\system_stm32f2xx.c ****   *      - SystemInit(): Setups the system clock (System clock source, PLL Multiplier
  15:c:/Dropbox/AV_SmartWatch/toolchain_v3/src/libstm32f2\system_stm32f2xx.c ****   *                      and Divider factors, AHB/APBx prescalers and Flash settings),
  16:c:/Dropbox/AV_SmartWatch/toolchain_v3/src/libstm32f2\system_stm32f2xx.c ****   *                      depending on the configuration made in the clock xls tool. 
  17:c:/Dropbox/AV_SmartWatch/toolchain_v3/src/libstm32f2\system_stm32f2xx.c ****   *                      This function is called at startup just after reset and 
  18:c:/Dropbox/AV_SmartWatch/toolchain_v3/src/libstm32f2\system_stm32f2xx.c ****   *                      before branch to main program. This call is made inside
  19:c:/Dropbox/AV_SmartWatch/toolchain_v3/src/libstm32f2\system_stm32f2xx.c ****   *                      the "startup_stm32f2xx.s" file.
  20:c:/Dropbox/AV_SmartWatch/toolchain_v3/src/libstm32f2\system_stm32f2xx.c ****   *
  21:c:/Dropbox/AV_SmartWatch/toolchain_v3/src/libstm32f2\system_stm32f2xx.c ****   *      - SystemCoreClock variable: Contains the core clock (HCLK), it can be used
  22:c:/Dropbox/AV_SmartWatch/toolchain_v3/src/libstm32f2\system_stm32f2xx.c ****   *                                  by the user application to setup the SysTick 
  23:c:/Dropbox/AV_SmartWatch/toolchain_v3/src/libstm32f2\system_stm32f2xx.c ****   *                                  timer or configure other parameters.
  24:c:/Dropbox/AV_SmartWatch/toolchain_v3/src/libstm32f2\system_stm32f2xx.c ****   *                                     
  25:c:/Dropbox/AV_SmartWatch/toolchain_v3/src/libstm32f2\system_stm32f2xx.c ****   *      - SystemCoreClockUpdate(): Updates the variable SystemCoreClock and must
  26:c:/Dropbox/AV_SmartWatch/toolchain_v3/src/libstm32f2\system_stm32f2xx.c ****   *                                 be called whenever the core clock is changed
  27:c:/Dropbox/AV_SmartWatch/toolchain_v3/src/libstm32f2\system_stm32f2xx.c ****   *                                 during program execution.
  28:c:/Dropbox/AV_SmartWatch/toolchain_v3/src/libstm32f2\system_stm32f2xx.c ****   *
  29:c:/Dropbox/AV_SmartWatch/toolchain_v3/src/libstm32f2\system_stm32f2xx.c ****   * 2. After each device reset the HSI (16 MHz) is used as system clock source.
  30:c:/Dropbox/AV_SmartWatch/toolchain_v3/src/libstm32f2\system_stm32f2xx.c ****   *    Then SystemInit() function is called, in "startup_stm32f2xx.s" file, to
  31:c:/Dropbox/AV_SmartWatch/toolchain_v3/src/libstm32f2\system_stm32f2xx.c ****   *    configure the system clock before to branch to main program.
  32:c:/Dropbox/AV_SmartWatch/toolchain_v3/src/libstm32f2\system_stm32f2xx.c ****   *
  33:c:/Dropbox/AV_SmartWatch/toolchain_v3/src/libstm32f2\system_stm32f2xx.c ****   * 3. If the system clock source selected by user fails to startup, the SystemInit()
  34:c:/Dropbox/AV_SmartWatch/toolchain_v3/src/libstm32f2\system_stm32f2xx.c ****   *    function will do nothing and HSI still used as system clock source. User can 
  35:c:/Dropbox/AV_SmartWatch/toolchain_v3/src/libstm32f2\system_stm32f2xx.c ****   *    add some code to deal with this issue inside the SetSysClock() function.
  36:c:/Dropbox/AV_SmartWatch/toolchain_v3/src/libstm32f2\system_stm32f2xx.c ****   *
  37:c:/Dropbox/AV_SmartWatch/toolchain_v3/src/libstm32f2\system_stm32f2xx.c ****   * 4. The default value of HSE crystal is set to 25MHz, refer to "HSE_VALUE" define
  38:c:/Dropbox/AV_SmartWatch/toolchain_v3/src/libstm32f2\system_stm32f2xx.c ****   *    in "stm32f2xx.h" file. When HSE is used as system clock source, directly or
  39:c:/Dropbox/AV_SmartWatch/toolchain_v3/src/libstm32f2\system_stm32f2xx.c ****   *    through PLL, and you are using different crystal you have to adapt the HSE
  40:c:/Dropbox/AV_SmartWatch/toolchain_v3/src/libstm32f2\system_stm32f2xx.c ****   *    value to your own configuration.
  41:c:/Dropbox/AV_SmartWatch/toolchain_v3/src/libstm32f2\system_stm32f2xx.c ****   *
  42:c:/Dropbox/AV_SmartWatch/toolchain_v3/src/libstm32f2\system_stm32f2xx.c ****   * 5. This file configures the system clock as follows:
  43:c:/Dropbox/AV_SmartWatch/toolchain_v3/src/libstm32f2\system_stm32f2xx.c ****   *=============================================================================
  44:c:/Dropbox/AV_SmartWatch/toolchain_v3/src/libstm32f2\system_stm32f2xx.c ****   *=============================================================================
  45:c:/Dropbox/AV_SmartWatch/toolchain_v3/src/libstm32f2\system_stm32f2xx.c ****   *        Supported STM32F2xx device revision    | Rev B and Y
  46:c:/Dropbox/AV_SmartWatch/toolchain_v3/src/libstm32f2\system_stm32f2xx.c ****   *-----------------------------------------------------------------------------
  47:c:/Dropbox/AV_SmartWatch/toolchain_v3/src/libstm32f2\system_stm32f2xx.c ****   *        System Clock source                    | PLL (HSE)
  48:c:/Dropbox/AV_SmartWatch/toolchain_v3/src/libstm32f2\system_stm32f2xx.c ****   *-----------------------------------------------------------------------------
  49:c:/Dropbox/AV_SmartWatch/toolchain_v3/src/libstm32f2\system_stm32f2xx.c ****   *        SYSCLK(Hz)                             | 120000000
  50:c:/Dropbox/AV_SmartWatch/toolchain_v3/src/libstm32f2\system_stm32f2xx.c ****   *-----------------------------------------------------------------------------
  51:c:/Dropbox/AV_SmartWatch/toolchain_v3/src/libstm32f2\system_stm32f2xx.c ****   *        HCLK(Hz)                               | 120000000
  52:c:/Dropbox/AV_SmartWatch/toolchain_v3/src/libstm32f2\system_stm32f2xx.c ****   *-----------------------------------------------------------------------------
  53:c:/Dropbox/AV_SmartWatch/toolchain_v3/src/libstm32f2\system_stm32f2xx.c ****   *        AHB Prescaler                          | 1
  54:c:/Dropbox/AV_SmartWatch/toolchain_v3/src/libstm32f2\system_stm32f2xx.c ****   *-----------------------------------------------------------------------------
  55:c:/Dropbox/AV_SmartWatch/toolchain_v3/src/libstm32f2\system_stm32f2xx.c ****   *        APB1 Prescaler                         | 4
  56:c:/Dropbox/AV_SmartWatch/toolchain_v3/src/libstm32f2\system_stm32f2xx.c ****   *-----------------------------------------------------------------------------
  57:c:/Dropbox/AV_SmartWatch/toolchain_v3/src/libstm32f2\system_stm32f2xx.c ****   *        APB2 Prescaler                         | 2
  58:c:/Dropbox/AV_SmartWatch/toolchain_v3/src/libstm32f2\system_stm32f2xx.c ****   *-----------------------------------------------------------------------------
  59:c:/Dropbox/AV_SmartWatch/toolchain_v3/src/libstm32f2\system_stm32f2xx.c ****   *        HSE Frequency(Hz)                      | 25000000
  60:c:/Dropbox/AV_SmartWatch/toolchain_v3/src/libstm32f2\system_stm32f2xx.c ****   *-----------------------------------------------------------------------------
  61:c:/Dropbox/AV_SmartWatch/toolchain_v3/src/libstm32f2\system_stm32f2xx.c ****   *        PLL_M                                  | 25
  62:c:/Dropbox/AV_SmartWatch/toolchain_v3/src/libstm32f2\system_stm32f2xx.c ****   *-----------------------------------------------------------------------------
  63:c:/Dropbox/AV_SmartWatch/toolchain_v3/src/libstm32f2\system_stm32f2xx.c ****   *        PLL_N                                  | 240
  64:c:/Dropbox/AV_SmartWatch/toolchain_v3/src/libstm32f2\system_stm32f2xx.c ****   *-----------------------------------------------------------------------------
  65:c:/Dropbox/AV_SmartWatch/toolchain_v3/src/libstm32f2\system_stm32f2xx.c ****   *        PLL_P                                  | 2
  66:c:/Dropbox/AV_SmartWatch/toolchain_v3/src/libstm32f2\system_stm32f2xx.c ****   *-----------------------------------------------------------------------------
  67:c:/Dropbox/AV_SmartWatch/toolchain_v3/src/libstm32f2\system_stm32f2xx.c ****   *        PLL_Q                                  | 5
  68:c:/Dropbox/AV_SmartWatch/toolchain_v3/src/libstm32f2\system_stm32f2xx.c ****   *-----------------------------------------------------------------------------
  69:c:/Dropbox/AV_SmartWatch/toolchain_v3/src/libstm32f2\system_stm32f2xx.c ****   *        PLLI2S_N                               | NA
  70:c:/Dropbox/AV_SmartWatch/toolchain_v3/src/libstm32f2\system_stm32f2xx.c ****   *-----------------------------------------------------------------------------
  71:c:/Dropbox/AV_SmartWatch/toolchain_v3/src/libstm32f2\system_stm32f2xx.c ****   *        PLLI2S_R                               | NA
  72:c:/Dropbox/AV_SmartWatch/toolchain_v3/src/libstm32f2\system_stm32f2xx.c ****   *-----------------------------------------------------------------------------
  73:c:/Dropbox/AV_SmartWatch/toolchain_v3/src/libstm32f2\system_stm32f2xx.c ****   *        I2S input clock                        | NA
  74:c:/Dropbox/AV_SmartWatch/toolchain_v3/src/libstm32f2\system_stm32f2xx.c ****   *-----------------------------------------------------------------------------
  75:c:/Dropbox/AV_SmartWatch/toolchain_v3/src/libstm32f2\system_stm32f2xx.c ****   *        VDD(V)                                 | 3.3
  76:c:/Dropbox/AV_SmartWatch/toolchain_v3/src/libstm32f2\system_stm32f2xx.c ****   *-----------------------------------------------------------------------------
  77:c:/Dropbox/AV_SmartWatch/toolchain_v3/src/libstm32f2\system_stm32f2xx.c ****   *        Flash Latency(WS)                      | 3
  78:c:/Dropbox/AV_SmartWatch/toolchain_v3/src/libstm32f2\system_stm32f2xx.c ****   *-----------------------------------------------------------------------------
  79:c:/Dropbox/AV_SmartWatch/toolchain_v3/src/libstm32f2\system_stm32f2xx.c ****   *        Prefetch Buffer                        | ON
  80:c:/Dropbox/AV_SmartWatch/toolchain_v3/src/libstm32f2\system_stm32f2xx.c ****   *-----------------------------------------------------------------------------
  81:c:/Dropbox/AV_SmartWatch/toolchain_v3/src/libstm32f2\system_stm32f2xx.c ****   *        Instruction cache                      | ON
  82:c:/Dropbox/AV_SmartWatch/toolchain_v3/src/libstm32f2\system_stm32f2xx.c ****   *-----------------------------------------------------------------------------
  83:c:/Dropbox/AV_SmartWatch/toolchain_v3/src/libstm32f2\system_stm32f2xx.c ****   *        Data cache                             | ON
  84:c:/Dropbox/AV_SmartWatch/toolchain_v3/src/libstm32f2\system_stm32f2xx.c ****   *-----------------------------------------------------------------------------
  85:c:/Dropbox/AV_SmartWatch/toolchain_v3/src/libstm32f2\system_stm32f2xx.c ****   *        Require 48MHz for USB OTG FS,          | Enabled
  86:c:/Dropbox/AV_SmartWatch/toolchain_v3/src/libstm32f2\system_stm32f2xx.c ****   *        SDIO and RNG clock                     |
  87:c:/Dropbox/AV_SmartWatch/toolchain_v3/src/libstm32f2\system_stm32f2xx.c ****   *-----------------------------------------------------------------------------
  88:c:/Dropbox/AV_SmartWatch/toolchain_v3/src/libstm32f2\system_stm32f2xx.c ****   *=============================================================================
  89:c:/Dropbox/AV_SmartWatch/toolchain_v3/src/libstm32f2\system_stm32f2xx.c ****   ******************************************************************************
  90:c:/Dropbox/AV_SmartWatch/toolchain_v3/src/libstm32f2\system_stm32f2xx.c ****   * @attention
  91:c:/Dropbox/AV_SmartWatch/toolchain_v3/src/libstm32f2\system_stm32f2xx.c ****   *
  92:c:/Dropbox/AV_SmartWatch/toolchain_v3/src/libstm32f2\system_stm32f2xx.c ****   * <h2><center>&copy; COPYRIGHT 2013 STMicroelectronics</center></h2>
  93:c:/Dropbox/AV_SmartWatch/toolchain_v3/src/libstm32f2\system_stm32f2xx.c ****   *
  94:c:/Dropbox/AV_SmartWatch/toolchain_v3/src/libstm32f2\system_stm32f2xx.c ****   * Licensed under MCD-ST Liberty SW License Agreement V2, (the "License");
  95:c:/Dropbox/AV_SmartWatch/toolchain_v3/src/libstm32f2\system_stm32f2xx.c ****   * You may not use this file except in compliance with the License.
  96:c:/Dropbox/AV_SmartWatch/toolchain_v3/src/libstm32f2\system_stm32f2xx.c ****   * You may obtain a copy of the License at:
  97:c:/Dropbox/AV_SmartWatch/toolchain_v3/src/libstm32f2\system_stm32f2xx.c ****   *
  98:c:/Dropbox/AV_SmartWatch/toolchain_v3/src/libstm32f2\system_stm32f2xx.c ****   *        http://www.st.com/software_license_agreement_liberty_v2
  99:c:/Dropbox/AV_SmartWatch/toolchain_v3/src/libstm32f2\system_stm32f2xx.c ****   *
 100:c:/Dropbox/AV_SmartWatch/toolchain_v3/src/libstm32f2\system_stm32f2xx.c ****   * Unless required by applicable law or agreed to in writing, software 
 101:c:/Dropbox/AV_SmartWatch/toolchain_v3/src/libstm32f2\system_stm32f2xx.c ****   * distributed under the License is distributed on an "AS IS" BASIS, 
 102:c:/Dropbox/AV_SmartWatch/toolchain_v3/src/libstm32f2\system_stm32f2xx.c ****   * WITHOUT WARRANTIES OR CONDITIONS OF ANY KIND, either express or implied.
 103:c:/Dropbox/AV_SmartWatch/toolchain_v3/src/libstm32f2\system_stm32f2xx.c ****   * See the License for the specific language governing permissions and
 104:c:/Dropbox/AV_SmartWatch/toolchain_v3/src/libstm32f2\system_stm32f2xx.c ****   * limitations under the License.
 105:c:/Dropbox/AV_SmartWatch/toolchain_v3/src/libstm32f2\system_stm32f2xx.c ****   *
 106:c:/Dropbox/AV_SmartWatch/toolchain_v3/src/libstm32f2\system_stm32f2xx.c ****   ******************************************************************************
 107:c:/Dropbox/AV_SmartWatch/toolchain_v3/src/libstm32f2\system_stm32f2xx.c ****   */
 108:c:/Dropbox/AV_SmartWatch/toolchain_v3/src/libstm32f2\system_stm32f2xx.c **** 
 109:c:/Dropbox/AV_SmartWatch/toolchain_v3/src/libstm32f2\system_stm32f2xx.c **** /** @addtogroup CMSIS
 110:c:/Dropbox/AV_SmartWatch/toolchain_v3/src/libstm32f2\system_stm32f2xx.c ****   * @{
 111:c:/Dropbox/AV_SmartWatch/toolchain_v3/src/libstm32f2\system_stm32f2xx.c ****   */
 112:c:/Dropbox/AV_SmartWatch/toolchain_v3/src/libstm32f2\system_stm32f2xx.c **** 
 113:c:/Dropbox/AV_SmartWatch/toolchain_v3/src/libstm32f2\system_stm32f2xx.c **** /** @addtogroup stm32f2xx_system
 114:c:/Dropbox/AV_SmartWatch/toolchain_v3/src/libstm32f2\system_stm32f2xx.c ****   * @{
 115:c:/Dropbox/AV_SmartWatch/toolchain_v3/src/libstm32f2\system_stm32f2xx.c ****   */  
 116:c:/Dropbox/AV_SmartWatch/toolchain_v3/src/libstm32f2\system_stm32f2xx.c ****   
 117:c:/Dropbox/AV_SmartWatch/toolchain_v3/src/libstm32f2\system_stm32f2xx.c **** /** @addtogroup STM32F2xx_System_Private_Includes
 118:c:/Dropbox/AV_SmartWatch/toolchain_v3/src/libstm32f2\system_stm32f2xx.c ****   * @{
 119:c:/Dropbox/AV_SmartWatch/toolchain_v3/src/libstm32f2\system_stm32f2xx.c ****   */
 120:c:/Dropbox/AV_SmartWatch/toolchain_v3/src/libstm32f2\system_stm32f2xx.c **** 
 121:c:/Dropbox/AV_SmartWatch/toolchain_v3/src/libstm32f2\system_stm32f2xx.c **** #include "stm32f2xx.h"
 122:c:/Dropbox/AV_SmartWatch/toolchain_v3/src/libstm32f2\system_stm32f2xx.c **** 
 123:c:/Dropbox/AV_SmartWatch/toolchain_v3/src/libstm32f2\system_stm32f2xx.c **** /**
 124:c:/Dropbox/AV_SmartWatch/toolchain_v3/src/libstm32f2\system_stm32f2xx.c ****   * @}
 125:c:/Dropbox/AV_SmartWatch/toolchain_v3/src/libstm32f2\system_stm32f2xx.c ****   */
 126:c:/Dropbox/AV_SmartWatch/toolchain_v3/src/libstm32f2\system_stm32f2xx.c **** 
 127:c:/Dropbox/AV_SmartWatch/toolchain_v3/src/libstm32f2\system_stm32f2xx.c **** /** @addtogroup STM32F2xx_System_Private_TypesDefinitions
 128:c:/Dropbox/AV_SmartWatch/toolchain_v3/src/libstm32f2\system_stm32f2xx.c ****   * @{
 129:c:/Dropbox/AV_SmartWatch/toolchain_v3/src/libstm32f2\system_stm32f2xx.c ****   */
 130:c:/Dropbox/AV_SmartWatch/toolchain_v3/src/libstm32f2\system_stm32f2xx.c **** 
 131:c:/Dropbox/AV_SmartWatch/toolchain_v3/src/libstm32f2\system_stm32f2xx.c **** /**
 132:c:/Dropbox/AV_SmartWatch/toolchain_v3/src/libstm32f2\system_stm32f2xx.c ****   * @}
 133:c:/Dropbox/AV_SmartWatch/toolchain_v3/src/libstm32f2\system_stm32f2xx.c ****   */
 134:c:/Dropbox/AV_SmartWatch/toolchain_v3/src/libstm32f2\system_stm32f2xx.c **** 
 135:c:/Dropbox/AV_SmartWatch/toolchain_v3/src/libstm32f2\system_stm32f2xx.c **** /** @addtogroup STM32F2xx_System_Private_Defines
 136:c:/Dropbox/AV_SmartWatch/toolchain_v3/src/libstm32f2\system_stm32f2xx.c ****   * @{
 137:c:/Dropbox/AV_SmartWatch/toolchain_v3/src/libstm32f2\system_stm32f2xx.c ****   */
 138:c:/Dropbox/AV_SmartWatch/toolchain_v3/src/libstm32f2\system_stm32f2xx.c **** 
 139:c:/Dropbox/AV_SmartWatch/toolchain_v3/src/libstm32f2\system_stm32f2xx.c **** /*!< Uncomment the following line if you need to use external SRAM mounted
 140:c:/Dropbox/AV_SmartWatch/toolchain_v3/src/libstm32f2\system_stm32f2xx.c ****      on STM322xG_EVAL board as data memory  */
 141:c:/Dropbox/AV_SmartWatch/toolchain_v3/src/libstm32f2\system_stm32f2xx.c **** /* #define DATA_IN_ExtSRAM */
 142:c:/Dropbox/AV_SmartWatch/toolchain_v3/src/libstm32f2\system_stm32f2xx.c **** 
 143:c:/Dropbox/AV_SmartWatch/toolchain_v3/src/libstm32f2\system_stm32f2xx.c **** /*!< Uncomment the following line if you need to relocate your vector Table in
 144:c:/Dropbox/AV_SmartWatch/toolchain_v3/src/libstm32f2\system_stm32f2xx.c ****      Internal SRAM. */
 145:c:/Dropbox/AV_SmartWatch/toolchain_v3/src/libstm32f2\system_stm32f2xx.c **** /* #define VECT_TAB_SRAM */
 146:c:/Dropbox/AV_SmartWatch/toolchain_v3/src/libstm32f2\system_stm32f2xx.c **** #define VECT_TAB_OFFSET  0x00 /*!< Vector Table base offset field. 
 147:c:/Dropbox/AV_SmartWatch/toolchain_v3/src/libstm32f2\system_stm32f2xx.c ****                                    This value must be a multiple of 0x200. */
 148:c:/Dropbox/AV_SmartWatch/toolchain_v3/src/libstm32f2\system_stm32f2xx.c **** 
 149:c:/Dropbox/AV_SmartWatch/toolchain_v3/src/libstm32f2\system_stm32f2xx.c **** 
 150:c:/Dropbox/AV_SmartWatch/toolchain_v3/src/libstm32f2\system_stm32f2xx.c **** /* PLL_VCO = (HSE_VALUE or HSI_VALUE / PLL_M) * PLL_N */
 151:c:/Dropbox/AV_SmartWatch/toolchain_v3/src/libstm32f2\system_stm32f2xx.c **** #define PLL_M      25
 152:c:/Dropbox/AV_SmartWatch/toolchain_v3/src/libstm32f2\system_stm32f2xx.c **** #define PLL_N      240
 153:c:/Dropbox/AV_SmartWatch/toolchain_v3/src/libstm32f2\system_stm32f2xx.c **** 
 154:c:/Dropbox/AV_SmartWatch/toolchain_v3/src/libstm32f2\system_stm32f2xx.c **** /* SYSCLK = PLL_VCO / PLL_P */
 155:c:/Dropbox/AV_SmartWatch/toolchain_v3/src/libstm32f2\system_stm32f2xx.c **** #define PLL_P      2
 156:c:/Dropbox/AV_SmartWatch/toolchain_v3/src/libstm32f2\system_stm32f2xx.c **** 
 157:c:/Dropbox/AV_SmartWatch/toolchain_v3/src/libstm32f2\system_stm32f2xx.c **** /* USB OTG FS, SDIO and RNG Clock =  PLL_VCO / PLLQ */
 158:c:/Dropbox/AV_SmartWatch/toolchain_v3/src/libstm32f2\system_stm32f2xx.c **** #define PLL_Q      5
 159:c:/Dropbox/AV_SmartWatch/toolchain_v3/src/libstm32f2\system_stm32f2xx.c **** 
 160:c:/Dropbox/AV_SmartWatch/toolchain_v3/src/libstm32f2\system_stm32f2xx.c **** /**
 161:c:/Dropbox/AV_SmartWatch/toolchain_v3/src/libstm32f2\system_stm32f2xx.c ****   * @}
 162:c:/Dropbox/AV_SmartWatch/toolchain_v3/src/libstm32f2\system_stm32f2xx.c ****   */
 163:c:/Dropbox/AV_SmartWatch/toolchain_v3/src/libstm32f2\system_stm32f2xx.c **** 
 164:c:/Dropbox/AV_SmartWatch/toolchain_v3/src/libstm32f2\system_stm32f2xx.c **** /** @addtogroup STM32F2xx_System_Private_Macros
 165:c:/Dropbox/AV_SmartWatch/toolchain_v3/src/libstm32f2\system_stm32f2xx.c ****   * @{
 166:c:/Dropbox/AV_SmartWatch/toolchain_v3/src/libstm32f2\system_stm32f2xx.c ****   */
 167:c:/Dropbox/AV_SmartWatch/toolchain_v3/src/libstm32f2\system_stm32f2xx.c **** 
 168:c:/Dropbox/AV_SmartWatch/toolchain_v3/src/libstm32f2\system_stm32f2xx.c **** /**
 169:c:/Dropbox/AV_SmartWatch/toolchain_v3/src/libstm32f2\system_stm32f2xx.c ****   * @}
 170:c:/Dropbox/AV_SmartWatch/toolchain_v3/src/libstm32f2\system_stm32f2xx.c ****   */
 171:c:/Dropbox/AV_SmartWatch/toolchain_v3/src/libstm32f2\system_stm32f2xx.c **** 
 172:c:/Dropbox/AV_SmartWatch/toolchain_v3/src/libstm32f2\system_stm32f2xx.c **** /** @addtogroup STM32F2xx_System_Private_Variables
 173:c:/Dropbox/AV_SmartWatch/toolchain_v3/src/libstm32f2\system_stm32f2xx.c ****   * @{
 174:c:/Dropbox/AV_SmartWatch/toolchain_v3/src/libstm32f2\system_stm32f2xx.c ****   */
 175:c:/Dropbox/AV_SmartWatch/toolchain_v3/src/libstm32f2\system_stm32f2xx.c **** 
 176:c:/Dropbox/AV_SmartWatch/toolchain_v3/src/libstm32f2\system_stm32f2xx.c ****   uint32_t SystemCoreClock = 120000000;
 177:c:/Dropbox/AV_SmartWatch/toolchain_v3/src/libstm32f2\system_stm32f2xx.c **** 
 178:c:/Dropbox/AV_SmartWatch/toolchain_v3/src/libstm32f2\system_stm32f2xx.c ****   __I uint8_t AHBPrescTable[16] = {0, 0, 0, 0, 0, 0, 0, 0, 1, 2, 3, 4, 6, 7, 8, 9};
 179:c:/Dropbox/AV_SmartWatch/toolchain_v3/src/libstm32f2\system_stm32f2xx.c **** 
 180:c:/Dropbox/AV_SmartWatch/toolchain_v3/src/libstm32f2\system_stm32f2xx.c **** /**
 181:c:/Dropbox/AV_SmartWatch/toolchain_v3/src/libstm32f2\system_stm32f2xx.c ****   * @}
 182:c:/Dropbox/AV_SmartWatch/toolchain_v3/src/libstm32f2\system_stm32f2xx.c ****   */
 183:c:/Dropbox/AV_SmartWatch/toolchain_v3/src/libstm32f2\system_stm32f2xx.c **** 
 184:c:/Dropbox/AV_SmartWatch/toolchain_v3/src/libstm32f2\system_stm32f2xx.c **** /** @addtogroup STM32F2xx_System_Private_FunctionPrototypes
 185:c:/Dropbox/AV_SmartWatch/toolchain_v3/src/libstm32f2\system_stm32f2xx.c ****   * @{
 186:c:/Dropbox/AV_SmartWatch/toolchain_v3/src/libstm32f2\system_stm32f2xx.c ****   */
 187:c:/Dropbox/AV_SmartWatch/toolchain_v3/src/libstm32f2\system_stm32f2xx.c **** 
 188:c:/Dropbox/AV_SmartWatch/toolchain_v3/src/libstm32f2\system_stm32f2xx.c **** static void SetSysClock(void);
 189:c:/Dropbox/AV_SmartWatch/toolchain_v3/src/libstm32f2\system_stm32f2xx.c **** #ifdef DATA_IN_ExtSRAM
 190:c:/Dropbox/AV_SmartWatch/toolchain_v3/src/libstm32f2\system_stm32f2xx.c ****   static void SystemInit_ExtMemCtl(void); 
 191:c:/Dropbox/AV_SmartWatch/toolchain_v3/src/libstm32f2\system_stm32f2xx.c **** #endif /* DATA_IN_ExtSRAM */
 192:c:/Dropbox/AV_SmartWatch/toolchain_v3/src/libstm32f2\system_stm32f2xx.c **** 
 193:c:/Dropbox/AV_SmartWatch/toolchain_v3/src/libstm32f2\system_stm32f2xx.c **** /**
 194:c:/Dropbox/AV_SmartWatch/toolchain_v3/src/libstm32f2\system_stm32f2xx.c ****   * @}
 195:c:/Dropbox/AV_SmartWatch/toolchain_v3/src/libstm32f2\system_stm32f2xx.c ****   */
 196:c:/Dropbox/AV_SmartWatch/toolchain_v3/src/libstm32f2\system_stm32f2xx.c **** 
 197:c:/Dropbox/AV_SmartWatch/toolchain_v3/src/libstm32f2\system_stm32f2xx.c **** /** @addtogroup STM32F2xx_System_Private_Functions
 198:c:/Dropbox/AV_SmartWatch/toolchain_v3/src/libstm32f2\system_stm32f2xx.c ****   * @{
 199:c:/Dropbox/AV_SmartWatch/toolchain_v3/src/libstm32f2\system_stm32f2xx.c ****   */
 200:c:/Dropbox/AV_SmartWatch/toolchain_v3/src/libstm32f2\system_stm32f2xx.c **** 
 201:c:/Dropbox/AV_SmartWatch/toolchain_v3/src/libstm32f2\system_stm32f2xx.c **** /**
 202:c:/Dropbox/AV_SmartWatch/toolchain_v3/src/libstm32f2\system_stm32f2xx.c ****   * @brief  Setup the microcontroller system
 203:c:/Dropbox/AV_SmartWatch/toolchain_v3/src/libstm32f2\system_stm32f2xx.c ****   *         Initialize the Embedded Flash Interface, the PLL and update the 
 204:c:/Dropbox/AV_SmartWatch/toolchain_v3/src/libstm32f2\system_stm32f2xx.c ****   *         SystemFrequency variable.
 205:c:/Dropbox/AV_SmartWatch/toolchain_v3/src/libstm32f2\system_stm32f2xx.c ****   * @param  None
 206:c:/Dropbox/AV_SmartWatch/toolchain_v3/src/libstm32f2\system_stm32f2xx.c ****   * @retval None
 207:c:/Dropbox/AV_SmartWatch/toolchain_v3/src/libstm32f2\system_stm32f2xx.c ****   */
 208:c:/Dropbox/AV_SmartWatch/toolchain_v3/src/libstm32f2\system_stm32f2xx.c **** void SystemInit(void)
 209:c:/Dropbox/AV_SmartWatch/toolchain_v3/src/libstm32f2\system_stm32f2xx.c **** {
  27              		.loc 1 209 0
  28              		.cfi_startproc
  29              		@ args = 0, pretend = 0, frame = 8
  30              		@ frame_needed = 0, uses_anonymous_args = 0
  31              		@ link register save eliminated.
 210:c:/Dropbox/AV_SmartWatch/toolchain_v3/src/libstm32f2\system_stm32f2xx.c ****   /* Reset the RCC clock configuration to the default reset state ------------*/
 211:c:/Dropbox/AV_SmartWatch/toolchain_v3/src/libstm32f2\system_stm32f2xx.c ****   /* Set HSION bit */
 212:c:/Dropbox/AV_SmartWatch/toolchain_v3/src/libstm32f2\system_stm32f2xx.c ****   RCC->CR |= (uint32_t)0x00000001;
  32              		.loc 1 212 0
  33 0000 2F4B     		ldr	r3, .L18
 209:c:/Dropbox/AV_SmartWatch/toolchain_v3/src/libstm32f2\system_stm32f2xx.c **** {
  34              		.loc 1 209 0
  35 0002 82B0     		sub	sp, sp, #8
  36              	.LCFI0:
  37              		.cfi_def_cfa_offset 8
  38              		.loc 1 212 0
  39 0004 1A68     		ldr	r2, [r3, #0]
  40 0006 42F00100 		orr	r0, r2, #1
 213:c:/Dropbox/AV_SmartWatch/toolchain_v3/src/libstm32f2\system_stm32f2xx.c **** 
 214:c:/Dropbox/AV_SmartWatch/toolchain_v3/src/libstm32f2\system_stm32f2xx.c ****   /* Reset CFGR register */
 215:c:/Dropbox/AV_SmartWatch/toolchain_v3/src/libstm32f2\system_stm32f2xx.c ****   RCC->CFGR = 0x00000000;
  41              		.loc 1 215 0
  42 000a 0022     		movs	r2, #0
 212:c:/Dropbox/AV_SmartWatch/toolchain_v3/src/libstm32f2\system_stm32f2xx.c ****   RCC->CR |= (uint32_t)0x00000001;
  43              		.loc 1 212 0
  44 000c 1860     		str	r0, [r3, #0]
  45              		.loc 1 215 0
  46 000e 9A60     		str	r2, [r3, #8]
 216:c:/Dropbox/AV_SmartWatch/toolchain_v3/src/libstm32f2\system_stm32f2xx.c **** 
 217:c:/Dropbox/AV_SmartWatch/toolchain_v3/src/libstm32f2\system_stm32f2xx.c ****   /* Reset HSEON, CSSON and PLLON bits */
 218:c:/Dropbox/AV_SmartWatch/toolchain_v3/src/libstm32f2\system_stm32f2xx.c ****   RCC->CR &= (uint32_t)0xFEF6FFFF;
  47              		.loc 1 218 0
  48 0010 1968     		ldr	r1, [r3, #0]
  49 0012 21F08470 		bic	r0, r1, #17301504
  50 0016 20F48031 		bic	r1, r0, #65536
 219:c:/Dropbox/AV_SmartWatch/toolchain_v3/src/libstm32f2\system_stm32f2xx.c **** 
 220:c:/Dropbox/AV_SmartWatch/toolchain_v3/src/libstm32f2\system_stm32f2xx.c ****   /* Reset PLLCFGR register */
 221:c:/Dropbox/AV_SmartWatch/toolchain_v3/src/libstm32f2\system_stm32f2xx.c ****   RCC->PLLCFGR = 0x24003010;
  51              		.loc 1 221 0
  52 001a 2A48     		ldr	r0, .L18+4
 218:c:/Dropbox/AV_SmartWatch/toolchain_v3/src/libstm32f2\system_stm32f2xx.c ****   RCC->CR &= (uint32_t)0xFEF6FFFF;
  53              		.loc 1 218 0
  54 001c 1960     		str	r1, [r3, #0]
  55              		.loc 1 221 0
  56 001e 5860     		str	r0, [r3, #4]
 222:c:/Dropbox/AV_SmartWatch/toolchain_v3/src/libstm32f2\system_stm32f2xx.c **** 
 223:c:/Dropbox/AV_SmartWatch/toolchain_v3/src/libstm32f2\system_stm32f2xx.c ****   /* Reset HSEBYP bit */
 224:c:/Dropbox/AV_SmartWatch/toolchain_v3/src/libstm32f2\system_stm32f2xx.c ****   RCC->CR &= (uint32_t)0xFFFBFFFF;
  57              		.loc 1 224 0
  58 0020 1968     		ldr	r1, [r3, #0]
  59 0022 21F48020 		bic	r0, r1, #262144
  60 0026 1860     		str	r0, [r3, #0]
 225:c:/Dropbox/AV_SmartWatch/toolchain_v3/src/libstm32f2\system_stm32f2xx.c **** 
 226:c:/Dropbox/AV_SmartWatch/toolchain_v3/src/libstm32f2\system_stm32f2xx.c ****   /* Disable all interrupts */
 227:c:/Dropbox/AV_SmartWatch/toolchain_v3/src/libstm32f2\system_stm32f2xx.c ****   RCC->CIR = 0x00000000;
  61              		.loc 1 227 0
  62 0028 DA60     		str	r2, [r3, #12]
  63              	.LBB4:
  64              	.LBB5:
 228:c:/Dropbox/AV_SmartWatch/toolchain_v3/src/libstm32f2\system_stm32f2xx.c **** 
 229:c:/Dropbox/AV_SmartWatch/toolchain_v3/src/libstm32f2\system_stm32f2xx.c **** #ifdef DATA_IN_ExtSRAM
 230:c:/Dropbox/AV_SmartWatch/toolchain_v3/src/libstm32f2\system_stm32f2xx.c ****   SystemInit_ExtMemCtl(); 
 231:c:/Dropbox/AV_SmartWatch/toolchain_v3/src/libstm32f2\system_stm32f2xx.c **** #endif /* DATA_IN_ExtSRAM */
 232:c:/Dropbox/AV_SmartWatch/toolchain_v3/src/libstm32f2\system_stm32f2xx.c ****          
 233:c:/Dropbox/AV_SmartWatch/toolchain_v3/src/libstm32f2\system_stm32f2xx.c ****   /* Configure the System clock source, PLL Multiplier and Divider factors, 
 234:c:/Dropbox/AV_SmartWatch/toolchain_v3/src/libstm32f2\system_stm32f2xx.c ****      AHB/APBx prescalers and Flash settings ----------------------------------*/
 235:c:/Dropbox/AV_SmartWatch/toolchain_v3/src/libstm32f2\system_stm32f2xx.c ****   SetSysClock();
 236:c:/Dropbox/AV_SmartWatch/toolchain_v3/src/libstm32f2\system_stm32f2xx.c **** 
 237:c:/Dropbox/AV_SmartWatch/toolchain_v3/src/libstm32f2\system_stm32f2xx.c ****   /* Configure the Vector Table location add offset address ------------------*/
 238:c:/Dropbox/AV_SmartWatch/toolchain_v3/src/libstm32f2\system_stm32f2xx.c **** #ifdef VECT_TAB_SRAM
 239:c:/Dropbox/AV_SmartWatch/toolchain_v3/src/libstm32f2\system_stm32f2xx.c ****   SCB->VTOR = SRAM_BASE | VECT_TAB_OFFSET; /* Vector Table Relocation in Internal SRAM */
 240:c:/Dropbox/AV_SmartWatch/toolchain_v3/src/libstm32f2\system_stm32f2xx.c **** #else
 241:c:/Dropbox/AV_SmartWatch/toolchain_v3/src/libstm32f2\system_stm32f2xx.c ****   SCB->VTOR = FLASH_BASE | VECT_TAB_OFFSET; /* Vector Table Relocation in Internal FLASH */
 242:c:/Dropbox/AV_SmartWatch/toolchain_v3/src/libstm32f2\system_stm32f2xx.c **** #endif
 243:c:/Dropbox/AV_SmartWatch/toolchain_v3/src/libstm32f2\system_stm32f2xx.c **** }
 244:c:/Dropbox/AV_SmartWatch/toolchain_v3/src/libstm32f2\system_stm32f2xx.c **** 
 245:c:/Dropbox/AV_SmartWatch/toolchain_v3/src/libstm32f2\system_stm32f2xx.c **** /**
 246:c:/Dropbox/AV_SmartWatch/toolchain_v3/src/libstm32f2\system_stm32f2xx.c ****   * @brief  Update SystemCoreClock variable according to Clock Register Values.
 247:c:/Dropbox/AV_SmartWatch/toolchain_v3/src/libstm32f2\system_stm32f2xx.c ****   *         The SystemCoreClock variable contains the core clock (HCLK), it can
 248:c:/Dropbox/AV_SmartWatch/toolchain_v3/src/libstm32f2\system_stm32f2xx.c ****   *         be used by the user application to setup the SysTick timer or configure
 249:c:/Dropbox/AV_SmartWatch/toolchain_v3/src/libstm32f2\system_stm32f2xx.c ****   *         other parameters.
 250:c:/Dropbox/AV_SmartWatch/toolchain_v3/src/libstm32f2\system_stm32f2xx.c ****   *           
 251:c:/Dropbox/AV_SmartWatch/toolchain_v3/src/libstm32f2\system_stm32f2xx.c ****   * @note   Each time the core clock (HCLK) changes, this function must be called
 252:c:/Dropbox/AV_SmartWatch/toolchain_v3/src/libstm32f2\system_stm32f2xx.c ****   *         to update SystemCoreClock variable value. Otherwise, any configuration
 253:c:/Dropbox/AV_SmartWatch/toolchain_v3/src/libstm32f2\system_stm32f2xx.c ****   *         based on this variable will be incorrect.         
 254:c:/Dropbox/AV_SmartWatch/toolchain_v3/src/libstm32f2\system_stm32f2xx.c ****   *     
 255:c:/Dropbox/AV_SmartWatch/toolchain_v3/src/libstm32f2\system_stm32f2xx.c ****   * @note   - The system frequency computed by this function is not the real 
 256:c:/Dropbox/AV_SmartWatch/toolchain_v3/src/libstm32f2\system_stm32f2xx.c ****   *           frequency in the chip. It is calculated based on the predefined 
 257:c:/Dropbox/AV_SmartWatch/toolchain_v3/src/libstm32f2\system_stm32f2xx.c ****   *           constant and the selected clock source:
 258:c:/Dropbox/AV_SmartWatch/toolchain_v3/src/libstm32f2\system_stm32f2xx.c ****   *             
 259:c:/Dropbox/AV_SmartWatch/toolchain_v3/src/libstm32f2\system_stm32f2xx.c ****   *           - If SYSCLK source is HSI, SystemCoreClock will contain the HSI_VALUE(*)
 260:c:/Dropbox/AV_SmartWatch/toolchain_v3/src/libstm32f2\system_stm32f2xx.c ****   *                                              
 261:c:/Dropbox/AV_SmartWatch/toolchain_v3/src/libstm32f2\system_stm32f2xx.c ****   *           - If SYSCLK source is HSE, SystemCoreClock will contain the HSE_VALUE(**)
 262:c:/Dropbox/AV_SmartWatch/toolchain_v3/src/libstm32f2\system_stm32f2xx.c ****   *                          
 263:c:/Dropbox/AV_SmartWatch/toolchain_v3/src/libstm32f2\system_stm32f2xx.c ****   *           - If SYSCLK source is PLL, SystemCoreClock will contain the HSE_VALUE(**) 
 264:c:/Dropbox/AV_SmartWatch/toolchain_v3/src/libstm32f2\system_stm32f2xx.c ****   *             or HSI_VALUE(*) multiplied/divided by the PLL factors.
 265:c:/Dropbox/AV_SmartWatch/toolchain_v3/src/libstm32f2\system_stm32f2xx.c ****   *         
 266:c:/Dropbox/AV_SmartWatch/toolchain_v3/src/libstm32f2\system_stm32f2xx.c ****   *         (*) HSI_VALUE is a constant defined in stm32f2xx.h file (default value
 267:c:/Dropbox/AV_SmartWatch/toolchain_v3/src/libstm32f2\system_stm32f2xx.c ****   *             16 MHz) but the real value may vary depending on the variations
 268:c:/Dropbox/AV_SmartWatch/toolchain_v3/src/libstm32f2\system_stm32f2xx.c ****   *             in voltage and temperature.   
 269:c:/Dropbox/AV_SmartWatch/toolchain_v3/src/libstm32f2\system_stm32f2xx.c ****   *    
 270:c:/Dropbox/AV_SmartWatch/toolchain_v3/src/libstm32f2\system_stm32f2xx.c ****   *         (**) HSE_VALUE is a constant defined in stm32f2xx.h file (default value
 271:c:/Dropbox/AV_SmartWatch/toolchain_v3/src/libstm32f2\system_stm32f2xx.c ****   *              25 MHz), user has to ensure that HSE_VALUE is same as the real
 272:c:/Dropbox/AV_SmartWatch/toolchain_v3/src/libstm32f2\system_stm32f2xx.c ****   *              frequency of the crystal used. Otherwise, this function may
 273:c:/Dropbox/AV_SmartWatch/toolchain_v3/src/libstm32f2\system_stm32f2xx.c ****   *              have wrong result.
 274:c:/Dropbox/AV_SmartWatch/toolchain_v3/src/libstm32f2\system_stm32f2xx.c ****   *                
 275:c:/Dropbox/AV_SmartWatch/toolchain_v3/src/libstm32f2\system_stm32f2xx.c ****   *         - The result of this function could be not correct when using fractional
 276:c:/Dropbox/AV_SmartWatch/toolchain_v3/src/libstm32f2\system_stm32f2xx.c ****   *           value for HSE crystal.
 277:c:/Dropbox/AV_SmartWatch/toolchain_v3/src/libstm32f2\system_stm32f2xx.c ****   *     
 278:c:/Dropbox/AV_SmartWatch/toolchain_v3/src/libstm32f2\system_stm32f2xx.c ****   * @param  None
 279:c:/Dropbox/AV_SmartWatch/toolchain_v3/src/libstm32f2\system_stm32f2xx.c ****   * @retval None
 280:c:/Dropbox/AV_SmartWatch/toolchain_v3/src/libstm32f2\system_stm32f2xx.c ****   */
 281:c:/Dropbox/AV_SmartWatch/toolchain_v3/src/libstm32f2\system_stm32f2xx.c **** void SystemCoreClockUpdate(void)
 282:c:/Dropbox/AV_SmartWatch/toolchain_v3/src/libstm32f2\system_stm32f2xx.c **** {
 283:c:/Dropbox/AV_SmartWatch/toolchain_v3/src/libstm32f2\system_stm32f2xx.c ****   uint32_t tmp = 0, pllvco = 0, pllp = 2, pllsource = 0, pllm = 2;
 284:c:/Dropbox/AV_SmartWatch/toolchain_v3/src/libstm32f2\system_stm32f2xx.c ****   
 285:c:/Dropbox/AV_SmartWatch/toolchain_v3/src/libstm32f2\system_stm32f2xx.c ****   /* Get SYSCLK source -------------------------------------------------------*/
 286:c:/Dropbox/AV_SmartWatch/toolchain_v3/src/libstm32f2\system_stm32f2xx.c ****   tmp = RCC->CFGR & RCC_CFGR_SWS;
 287:c:/Dropbox/AV_SmartWatch/toolchain_v3/src/libstm32f2\system_stm32f2xx.c **** 
 288:c:/Dropbox/AV_SmartWatch/toolchain_v3/src/libstm32f2\system_stm32f2xx.c ****   switch (tmp)
 289:c:/Dropbox/AV_SmartWatch/toolchain_v3/src/libstm32f2\system_stm32f2xx.c ****   {
 290:c:/Dropbox/AV_SmartWatch/toolchain_v3/src/libstm32f2\system_stm32f2xx.c ****     case 0x00:  /* HSI used as system clock source */
 291:c:/Dropbox/AV_SmartWatch/toolchain_v3/src/libstm32f2\system_stm32f2xx.c ****       SystemCoreClock = HSI_VALUE;
 292:c:/Dropbox/AV_SmartWatch/toolchain_v3/src/libstm32f2\system_stm32f2xx.c ****       break;
 293:c:/Dropbox/AV_SmartWatch/toolchain_v3/src/libstm32f2\system_stm32f2xx.c ****     case 0x04:  /* HSE used as system clock source */
 294:c:/Dropbox/AV_SmartWatch/toolchain_v3/src/libstm32f2\system_stm32f2xx.c ****       SystemCoreClock = HSE_VALUE;
 295:c:/Dropbox/AV_SmartWatch/toolchain_v3/src/libstm32f2\system_stm32f2xx.c ****       break;
 296:c:/Dropbox/AV_SmartWatch/toolchain_v3/src/libstm32f2\system_stm32f2xx.c ****     case 0x08:  /* PLL used as system clock source */
 297:c:/Dropbox/AV_SmartWatch/toolchain_v3/src/libstm32f2\system_stm32f2xx.c **** 
 298:c:/Dropbox/AV_SmartWatch/toolchain_v3/src/libstm32f2\system_stm32f2xx.c ****       /* PLL_VCO = (HSE_VALUE or HSI_VALUE / PLL_M) * PLL_N
 299:c:/Dropbox/AV_SmartWatch/toolchain_v3/src/libstm32f2\system_stm32f2xx.c ****          SYSCLK = PLL_VCO / PLL_P
 300:c:/Dropbox/AV_SmartWatch/toolchain_v3/src/libstm32f2\system_stm32f2xx.c ****          */    
 301:c:/Dropbox/AV_SmartWatch/toolchain_v3/src/libstm32f2\system_stm32f2xx.c ****       pllsource = (RCC->PLLCFGR & RCC_PLLCFGR_PLLSRC) >> 22;
 302:c:/Dropbox/AV_SmartWatch/toolchain_v3/src/libstm32f2\system_stm32f2xx.c ****       pllm = RCC->PLLCFGR & RCC_PLLCFGR_PLLM;
 303:c:/Dropbox/AV_SmartWatch/toolchain_v3/src/libstm32f2\system_stm32f2xx.c ****       
 304:c:/Dropbox/AV_SmartWatch/toolchain_v3/src/libstm32f2\system_stm32f2xx.c ****       if (pllsource != 0)
 305:c:/Dropbox/AV_SmartWatch/toolchain_v3/src/libstm32f2\system_stm32f2xx.c ****       {
 306:c:/Dropbox/AV_SmartWatch/toolchain_v3/src/libstm32f2\system_stm32f2xx.c ****         /* HSE used as PLL clock source */
 307:c:/Dropbox/AV_SmartWatch/toolchain_v3/src/libstm32f2\system_stm32f2xx.c ****         pllvco = (HSE_VALUE / pllm) * ((RCC->PLLCFGR & RCC_PLLCFGR_PLLN) >> 6);
 308:c:/Dropbox/AV_SmartWatch/toolchain_v3/src/libstm32f2\system_stm32f2xx.c ****       }
 309:c:/Dropbox/AV_SmartWatch/toolchain_v3/src/libstm32f2\system_stm32f2xx.c ****       else
 310:c:/Dropbox/AV_SmartWatch/toolchain_v3/src/libstm32f2\system_stm32f2xx.c ****       {
 311:c:/Dropbox/AV_SmartWatch/toolchain_v3/src/libstm32f2\system_stm32f2xx.c ****         /* HSI used as PLL clock source */
 312:c:/Dropbox/AV_SmartWatch/toolchain_v3/src/libstm32f2\system_stm32f2xx.c ****         pllvco = (HSI_VALUE / pllm) * ((RCC->PLLCFGR & RCC_PLLCFGR_PLLN) >> 6);      
 313:c:/Dropbox/AV_SmartWatch/toolchain_v3/src/libstm32f2\system_stm32f2xx.c ****       }
 314:c:/Dropbox/AV_SmartWatch/toolchain_v3/src/libstm32f2\system_stm32f2xx.c **** 
 315:c:/Dropbox/AV_SmartWatch/toolchain_v3/src/libstm32f2\system_stm32f2xx.c ****       pllp = (((RCC->PLLCFGR & RCC_PLLCFGR_PLLP) >>16) + 1 ) *2;
 316:c:/Dropbox/AV_SmartWatch/toolchain_v3/src/libstm32f2\system_stm32f2xx.c ****       SystemCoreClock = pllvco/pllp;
 317:c:/Dropbox/AV_SmartWatch/toolchain_v3/src/libstm32f2\system_stm32f2xx.c ****       break;
 318:c:/Dropbox/AV_SmartWatch/toolchain_v3/src/libstm32f2\system_stm32f2xx.c ****     default:
 319:c:/Dropbox/AV_SmartWatch/toolchain_v3/src/libstm32f2\system_stm32f2xx.c ****       SystemCoreClock = HSI_VALUE;
 320:c:/Dropbox/AV_SmartWatch/toolchain_v3/src/libstm32f2\system_stm32f2xx.c ****       break;
 321:c:/Dropbox/AV_SmartWatch/toolchain_v3/src/libstm32f2\system_stm32f2xx.c ****   }
 322:c:/Dropbox/AV_SmartWatch/toolchain_v3/src/libstm32f2\system_stm32f2xx.c ****   /* Compute HCLK frequency --------------------------------------------------*/
 323:c:/Dropbox/AV_SmartWatch/toolchain_v3/src/libstm32f2\system_stm32f2xx.c ****   /* Get HCLK prescaler */
 324:c:/Dropbox/AV_SmartWatch/toolchain_v3/src/libstm32f2\system_stm32f2xx.c ****   tmp = AHBPrescTable[((RCC->CFGR & RCC_CFGR_HPRE) >> 4)];
 325:c:/Dropbox/AV_SmartWatch/toolchain_v3/src/libstm32f2\system_stm32f2xx.c ****   /* HCLK frequency */
 326:c:/Dropbox/AV_SmartWatch/toolchain_v3/src/libstm32f2\system_stm32f2xx.c ****   SystemCoreClock >>= tmp;
 327:c:/Dropbox/AV_SmartWatch/toolchain_v3/src/libstm32f2\system_stm32f2xx.c **** }
 328:c:/Dropbox/AV_SmartWatch/toolchain_v3/src/libstm32f2\system_stm32f2xx.c **** 
 329:c:/Dropbox/AV_SmartWatch/toolchain_v3/src/libstm32f2\system_stm32f2xx.c **** /**
 330:c:/Dropbox/AV_SmartWatch/toolchain_v3/src/libstm32f2\system_stm32f2xx.c ****   * @brief  Configures the System clock source, PLL Multiplier and Divider factors, 
 331:c:/Dropbox/AV_SmartWatch/toolchain_v3/src/libstm32f2\system_stm32f2xx.c ****   *         AHB/APBx prescalers and Flash settings
 332:c:/Dropbox/AV_SmartWatch/toolchain_v3/src/libstm32f2\system_stm32f2xx.c ****   * @Note   This function should be called only once the RCC clock configuration  
 333:c:/Dropbox/AV_SmartWatch/toolchain_v3/src/libstm32f2\system_stm32f2xx.c ****   *         is reset to the default reset state (done in SystemInit() function).   
 334:c:/Dropbox/AV_SmartWatch/toolchain_v3/src/libstm32f2\system_stm32f2xx.c ****   * @param  None
 335:c:/Dropbox/AV_SmartWatch/toolchain_v3/src/libstm32f2\system_stm32f2xx.c ****   * @retval None
 336:c:/Dropbox/AV_SmartWatch/toolchain_v3/src/libstm32f2\system_stm32f2xx.c ****   */
 337:c:/Dropbox/AV_SmartWatch/toolchain_v3/src/libstm32f2\system_stm32f2xx.c **** static void SetSysClock(void)
 338:c:/Dropbox/AV_SmartWatch/toolchain_v3/src/libstm32f2\system_stm32f2xx.c **** {
 339:c:/Dropbox/AV_SmartWatch/toolchain_v3/src/libstm32f2\system_stm32f2xx.c **** /******************************************************************************/
 340:c:/Dropbox/AV_SmartWatch/toolchain_v3/src/libstm32f2\system_stm32f2xx.c **** /*            PLL (clocked by HSE) used as System clock source                */
 341:c:/Dropbox/AV_SmartWatch/toolchain_v3/src/libstm32f2\system_stm32f2xx.c **** /******************************************************************************/
 342:c:/Dropbox/AV_SmartWatch/toolchain_v3/src/libstm32f2\system_stm32f2xx.c ****   __IO uint32_t StartUpCounter = 0, HSEStatus = 0;
  65              		.loc 1 342 0
  66 002a 0092     		str	r2, [sp, #0]
  67              	.LVL0:
  68 002c 0192     		str	r2, [sp, #4]
  69              	.LVL1:
 343:c:/Dropbox/AV_SmartWatch/toolchain_v3/src/libstm32f2\system_stm32f2xx.c ****   
 344:c:/Dropbox/AV_SmartWatch/toolchain_v3/src/libstm32f2\system_stm32f2xx.c ****   /* Enable HSE */
 345:c:/Dropbox/AV_SmartWatch/toolchain_v3/src/libstm32f2\system_stm32f2xx.c ****   RCC->CR |= ((uint32_t)RCC_CR_HSEON);
  70              		.loc 1 345 0
  71 002e 1A68     		ldr	r2, [r3, #0]
  72 0030 42F48031 		orr	r1, r2, #65536
  73 0034 1960     		str	r1, [r3, #0]
  74              	.L3:
 346:c:/Dropbox/AV_SmartWatch/toolchain_v3/src/libstm32f2\system_stm32f2xx.c ****  
 347:c:/Dropbox/AV_SmartWatch/toolchain_v3/src/libstm32f2\system_stm32f2xx.c ****   /* Wait till HSE is ready and if Time out is reached exit */
 348:c:/Dropbox/AV_SmartWatch/toolchain_v3/src/libstm32f2\system_stm32f2xx.c ****   do
 349:c:/Dropbox/AV_SmartWatch/toolchain_v3/src/libstm32f2\system_stm32f2xx.c ****   {
 350:c:/Dropbox/AV_SmartWatch/toolchain_v3/src/libstm32f2\system_stm32f2xx.c ****     HSEStatus = RCC->CR & RCC_CR_HSERDY;
  75              		.loc 1 350 0
  76 0036 224B     		ldr	r3, .L18
  77 0038 1868     		ldr	r0, [r3, #0]
  78 003a 00F40032 		and	r2, r0, #131072
  79              	.LVL2:
  80 003e 0192     		str	r2, [sp, #4]
  81              	.LVL3:
 351:c:/Dropbox/AV_SmartWatch/toolchain_v3/src/libstm32f2\system_stm32f2xx.c ****     StartUpCounter++;
  82              		.loc 1 351 0
  83 0040 0099     		ldr	r1, [sp, #0]
  84 0042 481C     		adds	r0, r1, #1
  85              	.LVL4:
  86 0044 0090     		str	r0, [sp, #0]
  87              	.LVL5:
 352:c:/Dropbox/AV_SmartWatch/toolchain_v3/src/libstm32f2\system_stm32f2xx.c ****   } while((HSEStatus == 0) && (StartUpCounter != HSE_STARTUP_TIMEOUT));
  88              		.loc 1 352 0
  89 0046 019A     		ldr	r2, [sp, #4]
  90              	.LVL6:
  91 0048 1AB9     		cbnz	r2, .L2
  92 004a 0099     		ldr	r1, [sp, #0]
  93 004c B1F5A06F 		cmp	r1, #1280
  94 0050 F1D1     		bne	.L3
  95              	.L2:
 353:c:/Dropbox/AV_SmartWatch/toolchain_v3/src/libstm32f2\system_stm32f2xx.c **** 
 354:c:/Dropbox/AV_SmartWatch/toolchain_v3/src/libstm32f2\system_stm32f2xx.c ****   if ((RCC->CR & RCC_CR_HSERDY) != RESET)
  96              		.loc 1 354 0
  97 0052 1B68     		ldr	r3, [r3, #0]
  98 0054 13F40030 		ands	r0, r3, #131072
 355:c:/Dropbox/AV_SmartWatch/toolchain_v3/src/libstm32f2\system_stm32f2xx.c ****   {
 356:c:/Dropbox/AV_SmartWatch/toolchain_v3/src/libstm32f2\system_stm32f2xx.c ****     HSEStatus = (uint32_t)0x01;
  99              		.loc 1 356 0
 100 0058 18BF     		it	ne
 101 005a 0120     		movne	r0, #1
 357:c:/Dropbox/AV_SmartWatch/toolchain_v3/src/libstm32f2\system_stm32f2xx.c ****   }
 358:c:/Dropbox/AV_SmartWatch/toolchain_v3/src/libstm32f2\system_stm32f2xx.c ****   else
 359:c:/Dropbox/AV_SmartWatch/toolchain_v3/src/libstm32f2\system_stm32f2xx.c ****   {
 360:c:/Dropbox/AV_SmartWatch/toolchain_v3/src/libstm32f2\system_stm32f2xx.c ****     HSEStatus = (uint32_t)0x00;
 102              		.loc 1 360 0
 103 005c 0190     		str	r0, [sp, #4]
 361:c:/Dropbox/AV_SmartWatch/toolchain_v3/src/libstm32f2\system_stm32f2xx.c ****   }
 362:c:/Dropbox/AV_SmartWatch/toolchain_v3/src/libstm32f2\system_stm32f2xx.c **** 
 363:c:/Dropbox/AV_SmartWatch/toolchain_v3/src/libstm32f2\system_stm32f2xx.c ****   if (HSEStatus == (uint32_t)0x01)
 104              		.loc 1 363 0
 105 005e 019A     		ldr	r2, [sp, #4]
 106 0060 012A     		cmp	r2, #1
 107 0062 04D0     		beq	.L6
 108              	.L9:
 109              	.LBE5:
 110              	.LBE4:
 241:c:/Dropbox/AV_SmartWatch/toolchain_v3/src/libstm32f2\system_stm32f2xx.c ****   SCB->VTOR = FLASH_BASE | VECT_TAB_OFFSET; /* Vector Table Relocation in Internal FLASH */
 111              		.loc 1 241 0
 112 0064 1849     		ldr	r1, .L18+8
 113 0066 194A     		ldr	r2, .L18+12
 114 0068 9160     		str	r1, [r2, #8]
 243:c:/Dropbox/AV_SmartWatch/toolchain_v3/src/libstm32f2\system_stm32f2xx.c **** }
 115              		.loc 1 243 0
 116 006a 02B0     		add	sp, sp, #8
 117 006c 7047     		bx	lr
 118              	.L6:
 119              	.LBB7:
 120              	.LBB6:
 364:c:/Dropbox/AV_SmartWatch/toolchain_v3/src/libstm32f2\system_stm32f2xx.c ****   {
 365:c:/Dropbox/AV_SmartWatch/toolchain_v3/src/libstm32f2\system_stm32f2xx.c ****     /* HCLK = SYSCLK / 1*/
 366:c:/Dropbox/AV_SmartWatch/toolchain_v3/src/libstm32f2\system_stm32f2xx.c ****     RCC->CFGR |= RCC_CFGR_HPRE_DIV1;
 121              		.loc 1 366 0
 122 006e 144B     		ldr	r3, .L18
 123 0070 9968     		ldr	r1, [r3, #8]
 124 0072 9960     		str	r1, [r3, #8]
 367:c:/Dropbox/AV_SmartWatch/toolchain_v3/src/libstm32f2\system_stm32f2xx.c ****       
 368:c:/Dropbox/AV_SmartWatch/toolchain_v3/src/libstm32f2\system_stm32f2xx.c ****     /* PCLK2 = HCLK / 2*/
 369:c:/Dropbox/AV_SmartWatch/toolchain_v3/src/libstm32f2\system_stm32f2xx.c ****     RCC->CFGR |= RCC_CFGR_PPRE2_DIV2;
 125              		.loc 1 369 0
 126 0074 9868     		ldr	r0, [r3, #8]
 127 0076 40F40042 		orr	r2, r0, #32768
 128 007a 9A60     		str	r2, [r3, #8]
 370:c:/Dropbox/AV_SmartWatch/toolchain_v3/src/libstm32f2\system_stm32f2xx.c ****     
 371:c:/Dropbox/AV_SmartWatch/toolchain_v3/src/libstm32f2\system_stm32f2xx.c ****     /* PCLK1 = HCLK / 4*/
 372:c:/Dropbox/AV_SmartWatch/toolchain_v3/src/libstm32f2\system_stm32f2xx.c ****     RCC->CFGR |= RCC_CFGR_PPRE1_DIV4;
 129              		.loc 1 372 0
 130 007c 9968     		ldr	r1, [r3, #8]
 373:c:/Dropbox/AV_SmartWatch/toolchain_v3/src/libstm32f2\system_stm32f2xx.c **** 
 374:c:/Dropbox/AV_SmartWatch/toolchain_v3/src/libstm32f2\system_stm32f2xx.c ****     /* Configure the main PLL */
 375:c:/Dropbox/AV_SmartWatch/toolchain_v3/src/libstm32f2\system_stm32f2xx.c ****     RCC->PLLCFGR = PLL_M | (PLL_N << 6) | (((PLL_P >> 1) -1) << 16) |
 131              		.loc 1 375 0
 132 007e 144A     		ldr	r2, .L18+16
 372:c:/Dropbox/AV_SmartWatch/toolchain_v3/src/libstm32f2\system_stm32f2xx.c ****     RCC->CFGR |= RCC_CFGR_PPRE1_DIV4;
 133              		.loc 1 372 0
 134 0080 41F4A050 		orr	r0, r1, #5120
 135 0084 9860     		str	r0, [r3, #8]
 136              		.loc 1 375 0
 137 0086 5A60     		str	r2, [r3, #4]
 376:c:/Dropbox/AV_SmartWatch/toolchain_v3/src/libstm32f2\system_stm32f2xx.c ****                    (RCC_PLLCFGR_PLLSRC_HSE) | (PLL_Q << 24);
 377:c:/Dropbox/AV_SmartWatch/toolchain_v3/src/libstm32f2\system_stm32f2xx.c **** 
 378:c:/Dropbox/AV_SmartWatch/toolchain_v3/src/libstm32f2\system_stm32f2xx.c ****     /* Enable the main PLL */
 379:c:/Dropbox/AV_SmartWatch/toolchain_v3/src/libstm32f2\system_stm32f2xx.c ****     RCC->CR |= RCC_CR_PLLON;
 138              		.loc 1 379 0
 139 0088 1968     		ldr	r1, [r3, #0]
 140 008a 41F08070 		orr	r0, r1, #16777216
 141 008e 1860     		str	r0, [r3, #0]
 142              	.L7:
 380:c:/Dropbox/AV_SmartWatch/toolchain_v3/src/libstm32f2\system_stm32f2xx.c **** 
 381:c:/Dropbox/AV_SmartWatch/toolchain_v3/src/libstm32f2\system_stm32f2xx.c ****     /* Wait till the main PLL is ready */
 382:c:/Dropbox/AV_SmartWatch/toolchain_v3/src/libstm32f2\system_stm32f2xx.c ****     while((RCC->CR & RCC_CR_PLLRDY) == 0)
 143              		.loc 1 382 0
 144 0090 1968     		ldr	r1, [r3, #0]
 145 0092 0B4A     		ldr	r2, .L18
 146 0094 8901     		lsls	r1, r1, #6
 147 0096 FBD5     		bpl	.L7
 383:c:/Dropbox/AV_SmartWatch/toolchain_v3/src/libstm32f2\system_stm32f2xx.c ****     {
 384:c:/Dropbox/AV_SmartWatch/toolchain_v3/src/libstm32f2\system_stm32f2xx.c ****     }
 385:c:/Dropbox/AV_SmartWatch/toolchain_v3/src/libstm32f2\system_stm32f2xx.c ****    
 386:c:/Dropbox/AV_SmartWatch/toolchain_v3/src/libstm32f2\system_stm32f2xx.c ****     /* Configure Flash prefetch, Instruction cache, Data cache and wait state */
 387:c:/Dropbox/AV_SmartWatch/toolchain_v3/src/libstm32f2\system_stm32f2xx.c ****     FLASH->ACR = FLASH_ACR_PRFTEN | FLASH_ACR_ICEN | FLASH_ACR_DCEN | FLASH_ACR_LATENCY_3WS;
 148              		.loc 1 387 0
 149 0098 0E4B     		ldr	r3, .L18+20
 150 009a 40F20370 		movw	r0, #1795
 151 009e 1860     		str	r0, [r3, #0]
 388:c:/Dropbox/AV_SmartWatch/toolchain_v3/src/libstm32f2\system_stm32f2xx.c **** 
 389:c:/Dropbox/AV_SmartWatch/toolchain_v3/src/libstm32f2\system_stm32f2xx.c ****     /* Select the main PLL as system clock source */
 390:c:/Dropbox/AV_SmartWatch/toolchain_v3/src/libstm32f2\system_stm32f2xx.c ****     RCC->CFGR &= (uint32_t)((uint32_t)~(RCC_CFGR_SW));
 152              		.loc 1 390 0
 153 00a0 9168     		ldr	r1, [r2, #8]
 154 00a2 21F00300 		bic	r0, r1, #3
 155 00a6 9060     		str	r0, [r2, #8]
 391:c:/Dropbox/AV_SmartWatch/toolchain_v3/src/libstm32f2\system_stm32f2xx.c ****     RCC->CFGR |= RCC_CFGR_SW_PLL;
 156              		.loc 1 391 0
 157 00a8 9368     		ldr	r3, [r2, #8]
 158 00aa 43F00201 		orr	r1, r3, #2
 159 00ae 9160     		str	r1, [r2, #8]
 160              	.L8:
 392:c:/Dropbox/AV_SmartWatch/toolchain_v3/src/libstm32f2\system_stm32f2xx.c **** 
 393:c:/Dropbox/AV_SmartWatch/toolchain_v3/src/libstm32f2\system_stm32f2xx.c ****     /* Wait till the main PLL is used as system clock source */
 394:c:/Dropbox/AV_SmartWatch/toolchain_v3/src/libstm32f2\system_stm32f2xx.c ****     while ((RCC->CFGR & (uint32_t)RCC_CFGR_SWS ) != RCC_CFGR_SWS_PLL);
 161              		.loc 1 394 0
 162 00b0 034A     		ldr	r2, .L18
 163 00b2 9068     		ldr	r0, [r2, #8]
 164 00b4 00F00C03 		and	r3, r0, #12
 165 00b8 082B     		cmp	r3, #8
 166 00ba F9D1     		bne	.L8
 167 00bc D2E7     		b	.L9
 168              	.L19:
 169 00be 00BF     		.align	2
 170              	.L18:
 171 00c0 00380240 		.word	1073887232
 172 00c4 10300024 		.word	603992080
 173 00c8 00000408 		.word	134479872
 174 00cc 00ED00E0 		.word	-536810240
 175 00d0 193C4005 		.word	88095769
 176 00d4 003C0240 		.word	1073888256
 177              	.LBE6:
 178              	.LBE7:
 179              		.cfi_endproc
 180              	.LFE56:
 182              		.section	.text.SystemCoreClockUpdate,"ax",%progbits
 183              		.align	1
 184              		.global	SystemCoreClockUpdate
 185              		.thumb
 186              		.thumb_func
 188              	SystemCoreClockUpdate:
 189              	.LFB57:
 282:c:/Dropbox/AV_SmartWatch/toolchain_v3/src/libstm32f2\system_stm32f2xx.c **** {
 190              		.loc 1 282 0
 191              		.cfi_startproc
 192              		@ args = 0, pretend = 0, frame = 0
 193              		@ frame_needed = 0, uses_anonymous_args = 0
 194              		@ link register save eliminated.
 195              	.LVL7:
 286:c:/Dropbox/AV_SmartWatch/toolchain_v3/src/libstm32f2\system_stm32f2xx.c ****   tmp = RCC->CFGR & RCC_CFGR_SWS;
 196              		.loc 1 286 0
 197 0000 184B     		ldr	r3, .L30
 198 0002 194A     		ldr	r2, .L30+4
 199 0004 9968     		ldr	r1, [r3, #8]
 200              	.LVL8:
 201 0006 01F00C00 		and	r0, r1, #12
 202              	.LVL9:
 288:c:/Dropbox/AV_SmartWatch/toolchain_v3/src/libstm32f2\system_stm32f2xx.c ****   switch (tmp)
 203              		.loc 1 288 0
 204 000a 0428     		cmp	r0, #4
 205 000c 03D0     		beq	.L23
 206 000e 0828     		cmp	r0, #8
 207 0010 03D0     		beq	.L24
 208 0012 164B     		ldr	r3, .L30+8
 209 0014 19E0     		b	.L29
 210              	.L23:
 294:c:/Dropbox/AV_SmartWatch/toolchain_v3/src/libstm32f2\system_stm32f2xx.c ****       SystemCoreClock = HSE_VALUE;
 211              		.loc 1 294 0
 212 0016 164B     		ldr	r3, .L30+12
 213 0018 17E0     		b	.L29
 214              	.L24:
 301:c:/Dropbox/AV_SmartWatch/toolchain_v3/src/libstm32f2\system_stm32f2xx.c ****       pllsource = (RCC->PLLCFGR & RCC_PLLCFGR_PLLSRC) >> 22;
 215              		.loc 1 301 0
 216 001a 5968     		ldr	r1, [r3, #4]
 217              	.LVL10:
 302:c:/Dropbox/AV_SmartWatch/toolchain_v3/src/libstm32f2\system_stm32f2xx.c ****       pllm = RCC->PLLCFGR & RCC_PLLCFGR_PLLM;
 218              		.loc 1 302 0
 219 001c 5A68     		ldr	r2, [r3, #4]
 304:c:/Dropbox/AV_SmartWatch/toolchain_v3/src/libstm32f2\system_stm32f2xx.c ****       if (pllsource != 0)
 220              		.loc 1 304 0
 221 001e 11F4800F 		tst	r1, #4194304
 307:c:/Dropbox/AV_SmartWatch/toolchain_v3/src/libstm32f2\system_stm32f2xx.c ****         pllvco = (HSE_VALUE / pllm) * ((RCC->PLLCFGR & RCC_PLLCFGR_PLLN) >> 6);
 222              		.loc 1 307 0
 223 0022 5968     		ldr	r1, [r3, #4]
 224              	.LVL11:
 225 0024 14BF     		ite	ne
 226 0026 124B     		ldrne	r3, .L30+12
 312:c:/Dropbox/AV_SmartWatch/toolchain_v3/src/libstm32f2\system_stm32f2xx.c ****         pllvco = (HSI_VALUE / pllm) * ((RCC->PLLCFGR & RCC_PLLCFGR_PLLN) >> 6);      
 227              		.loc 1 312 0
 228 0028 104B     		ldreq	r3, .L30+8
 302:c:/Dropbox/AV_SmartWatch/toolchain_v3/src/libstm32f2\system_stm32f2xx.c ****       pllm = RCC->PLLCFGR & RCC_PLLCFGR_PLLM;
 229              		.loc 1 302 0
 230 002a 02F03F00 		and	r0, r2, #63
 231              	.LVL12:
 312:c:/Dropbox/AV_SmartWatch/toolchain_v3/src/libstm32f2\system_stm32f2xx.c ****         pllvco = (HSI_VALUE / pllm) * ((RCC->PLLCFGR & RCC_PLLCFGR_PLLN) >> 6);      
 232              		.loc 1 312 0
 233 002e B3FBF0F3 		udiv	r3, r3, r0
 315:c:/Dropbox/AV_SmartWatch/toolchain_v3/src/libstm32f2\system_stm32f2xx.c ****       pllp = (((RCC->PLLCFGR & RCC_PLLCFGR_PLLP) >>16) + 1 ) *2;
 234              		.loc 1 315 0
 235 0032 0C48     		ldr	r0, .L30
 236              	.LVL13:
 307:c:/Dropbox/AV_SmartWatch/toolchain_v3/src/libstm32f2\system_stm32f2xx.c ****         pllvco = (HSE_VALUE / pllm) * ((RCC->PLLCFGR & RCC_PLLCFGR_PLLN) >> 6);
 237              		.loc 1 307 0
 238 0034 C1F38812 		ubfx	r2, r1, #6, #9
 239              	.LVL14:
 315:c:/Dropbox/AV_SmartWatch/toolchain_v3/src/libstm32f2\system_stm32f2xx.c ****       pllp = (((RCC->PLLCFGR & RCC_PLLCFGR_PLLP) >>16) + 1 ) *2;
 240              		.loc 1 315 0
 241 0038 4168     		ldr	r1, [r0, #4]
 312:c:/Dropbox/AV_SmartWatch/toolchain_v3/src/libstm32f2\system_stm32f2xx.c ****         pllvco = (HSI_VALUE / pllm) * ((RCC->PLLCFGR & RCC_PLLCFGR_PLLN) >> 6);      
 242              		.loc 1 312 0
 243 003a 5343     		muls	r3, r2, r3
 244              	.LVL15:
 315:c:/Dropbox/AV_SmartWatch/toolchain_v3/src/libstm32f2\system_stm32f2xx.c ****       pllp = (((RCC->PLLCFGR & RCC_PLLCFGR_PLLP) >>16) + 1 ) *2;
 245              		.loc 1 315 0
 246 003c C1F30142 		ubfx	r2, r1, #16, #2
 247 0040 501C     		adds	r0, r2, #1
 248 0042 4100     		lsls	r1, r0, #1
 249              	.LVL16:
 316:c:/Dropbox/AV_SmartWatch/toolchain_v3/src/libstm32f2\system_stm32f2xx.c ****       SystemCoreClock = pllvco/pllp;
 250              		.loc 1 316 0
 251 0044 084A     		ldr	r2, .L30+4
 252 0046 B3FBF1F3 		udiv	r3, r3, r1
 253              	.LVL17:
 254              	.L29:
 324:c:/Dropbox/AV_SmartWatch/toolchain_v3/src/libstm32f2\system_stm32f2xx.c ****   tmp = AHBPrescTable[((RCC->CFGR & RCC_CFGR_HPRE) >> 4)];
 255              		.loc 1 324 0
 256 004a 0648     		ldr	r0, .L30
 316:c:/Dropbox/AV_SmartWatch/toolchain_v3/src/libstm32f2\system_stm32f2xx.c ****       SystemCoreClock = pllvco/pllp;
 257              		.loc 1 316 0
 258 004c 1360     		str	r3, [r2, #0]
 324:c:/Dropbox/AV_SmartWatch/toolchain_v3/src/libstm32f2\system_stm32f2xx.c ****   tmp = AHBPrescTable[((RCC->CFGR & RCC_CFGR_HPRE) >> 4)];
 259              		.loc 1 324 0
 260 004e 8168     		ldr	r1, [r0, #8]
 261 0050 084A     		ldr	r2, .L30+16
 262 0052 C1F30313 		ubfx	r3, r1, #4, #4
 326:c:/Dropbox/AV_SmartWatch/toolchain_v3/src/libstm32f2\system_stm32f2xx.c ****   SystemCoreClock >>= tmp;
 263              		.loc 1 326 0
 264 0056 0449     		ldr	r1, .L30+4
 324:c:/Dropbox/AV_SmartWatch/toolchain_v3/src/libstm32f2\system_stm32f2xx.c ****   tmp = AHBPrescTable[((RCC->CFGR & RCC_CFGR_HPRE) >> 4)];
 265              		.loc 1 324 0
 266 0058 D05C     		ldrb	r0, [r2, r3]	@ zero_extendqisi2
 267              	.LVL18:
 326:c:/Dropbox/AV_SmartWatch/toolchain_v3/src/libstm32f2\system_stm32f2xx.c ****   SystemCoreClock >>= tmp;
 268              		.loc 1 326 0
 269 005a 0B68     		ldr	r3, [r1, #0]
 270 005c 23FA00F3 		lsr	r3, r3, r0
 271 0060 0B60     		str	r3, [r1, #0]
 272 0062 7047     		bx	lr
 273              	.L31:
 274              		.align	2
 275              	.L30:
 276 0064 00380240 		.word	1073887232
 277 0068 00000000 		.word	.LANCHOR0
 278 006c 0024F400 		.word	16000000
 279 0070 80BA8C01 		.word	26000000
 280 0074 00000000 		.word	.LANCHOR1
 281              		.cfi_endproc
 282              	.LFE57:
 284              		.global	AHBPrescTable
 285              		.global	SystemCoreClock
 286              		.section	.data.AHBPrescTable,"aw",%progbits
 287              		.set	.LANCHOR1,. + 0
 290              	AHBPrescTable:
 291 0000 00       		.byte	0
 292 0001 00       		.byte	0
 293 0002 00       		.byte	0
 294 0003 00       		.byte	0
 295 0004 00       		.byte	0
 296 0005 00       		.byte	0
 297 0006 00       		.byte	0
 298 0007 00       		.byte	0
 299 0008 01       		.byte	1
 300 0009 02       		.byte	2
 301 000a 03       		.byte	3
 302 000b 04       		.byte	4
 303 000c 06       		.byte	6
 304 000d 07       		.byte	7
 305 000e 08       		.byte	8
 306 000f 09       		.byte	9
 307              		.section	.data.SystemCoreClock,"aw",%progbits
 308              		.align	2
 309              		.set	.LANCHOR0,. + 0
 312              	SystemCoreClock:
 313 0000 000E2707 		.word	120000000
 314              		.text
 315              	.Letext0:
 316              		.file 2 "c:\\program files (x86)\\gnu tools arm embedded\\4.7 2013q1\\bin\\../lib/gcc/arm-none-eab
 317              		.file 3 "c:/Dropbox/AV_SmartWatch/toolchain_v3/src/libstm32f2/core_cm3.h"
 318              		.file 4 "c:/Dropbox/AV_SmartWatch/toolchain_v3/src/libstm32f2/stm32f2xx.h"
DEFINED SYMBOLS
                            *ABS*:00000000 system_stm32f2xx.c
C:\Users\STINA\AppData\Local\Temp\ccePXYJc.s:19     .text.SystemInit:00000000 $t
C:\Users\STINA\AppData\Local\Temp\ccePXYJc.s:24     .text.SystemInit:00000000 SystemInit
C:\Users\STINA\AppData\Local\Temp\ccePXYJc.s:171    .text.SystemInit:000000c0 $d
C:\Users\STINA\AppData\Local\Temp\ccePXYJc.s:183    .text.SystemCoreClockUpdate:00000000 $t
C:\Users\STINA\AppData\Local\Temp\ccePXYJc.s:188    .text.SystemCoreClockUpdate:00000000 SystemCoreClockUpdate
C:\Users\STINA\AppData\Local\Temp\ccePXYJc.s:276    .text.SystemCoreClockUpdate:00000064 $d
C:\Users\STINA\AppData\Local\Temp\ccePXYJc.s:290    .data.AHBPrescTable:00000000 AHBPrescTable
C:\Users\STINA\AppData\Local\Temp\ccePXYJc.s:312    .data.SystemCoreClock:00000000 SystemCoreClock
C:\Users\STINA\AppData\Local\Temp\ccePXYJc.s:308    .data.SystemCoreClock:00000000 $d
                     .debug_frame:00000010 $d

NO UNDEFINED SYMBOLS
